; ModuleID = 'loop_unroll.llvm.bc'
target datalayout = "e-p:32:32:32-i1:8:8-i8:8:8-i16:16:16-i32:32:32-i64:32:64-f32:32:32-f64:32:64-v64:64:64-v128:128:128-a0:0:64-f80:32:32"
target triple = "i386-pc-linux-gnu"

%struct.FILE = type { i32, i8*, i8*, i8*, i8*, i8*, i8*, i8*, i8*, i8*, i8*, i8*, %struct._IO_marker*, %struct.FILE*, i32, i32, i32, i16, i8, [1 x i8], i8*, i64, i8*, i8*, i8*, i8*, i32, i32, [40 x i8] }
%struct._IO_marker = type { %struct._IO_marker*, %struct.FILE*, i32 }
%struct.one_result = type { double, i8* }

@results = internal global %struct.one_result* null ; <%struct.one_result**> [#uses=512]
@init_value = internal global double 1.000000e+00, align 8 ; <double*> [#uses=259]
@current_test = internal global i32 0             ; <i32*> [#uses=1024]
@.str = private constant [16 x i8] c"test %i failed\0A\00", align 1 ; <[16 x i8]*> [#uses=1]
@start_time = internal global i32 0               ; <i32*> [#uses=512]
@allocated_results = internal global i32 0        ; <i32*> [#uses=1024]
@.str11 = private constant [31 x i8] c"Could not allocate %d results\0A\00", align 1 ; <[31 x i8]*> [#uses=1]
@iterations = internal global i32 1000            ; <i32*> [#uses=515]
@temp_string = internal global [32 x [100 x i8]] zeroinitializer, align 32 ; <[32 x [100 x i8]]*> [#uses=32]
@data32 = internal global [8000 x i32] zeroinitializer, align 32 ; <[8000 x i32]*> [#uses=1180]
@dataDouble = internal global [8000 x double] zeroinitializer, align 32 ; <[8000 x double]*> [#uses=444]

declare double @fabs(double)

define internal fastcc void @_ZN15loop_inner_bodyILi11EiE7do_workERiPKii(i32* nocapture %result, i32 %n) nounwind {
entry:
  %0 = getelementptr inbounds [8000 x i32]* @data32, i32 0, i32 %n ; <i32*> [#uses=1]
  %1 = load i32* %0, align 4                      ; <i32> [#uses=1]
  %tmp3.i.i.i.i.i.i.i.i.i.i.i = mul i32 %1, 269850533 ; <i32> [#uses=1]
  %2 = load i32* %result, align 4                 ; <i32> [#uses=1]
  %3 = add i32 %2, -1138325064                    ; <i32> [#uses=1]
  %4 = add nsw i32 %3, %tmp3.i.i.i.i.i.i.i.i.i.i.i ; <i32> [#uses=1]
  %5 = add nsw i32 %n, 1                          ; <i32> [#uses=1]
  %6 = getelementptr inbounds [8000 x i32]* @data32, i32 0, i32 %5 ; <i32*> [#uses=1]
  %7 = load i32* %6, align 4                      ; <i32> [#uses=1]
  %tmp3.i.i.i.i.i.i.i.i.i.i = mul i32 %7, 269850533 ; <i32> [#uses=1]
  %8 = add i32 %tmp3.i.i.i.i.i.i.i.i.i.i, -1138325064 ; <i32> [#uses=1]
  %9 = add nsw i32 %8, %4                         ; <i32> [#uses=1]
  %10 = add nsw i32 %n, 2                         ; <i32> [#uses=1]
  %11 = getelementptr inbounds [8000 x i32]* @data32, i32 0, i32 %10 ; <i32*> [#uses=1]
  %12 = load i32* %11, align 4                    ; <i32> [#uses=1]
  %tmp3.i.i.i.i.i.i.i.i.i = mul i32 %12, 269850533 ; <i32> [#uses=1]
  %13 = add i32 %tmp3.i.i.i.i.i.i.i.i.i, -1138325064 ; <i32> [#uses=1]
  %14 = add nsw i32 %13, %9                       ; <i32> [#uses=1]
  %15 = add nsw i32 %n, 3                         ; <i32> [#uses=1]
  %16 = getelementptr inbounds [8000 x i32]* @data32, i32 0, i32 %15 ; <i32*> [#uses=1]
  %17 = load i32* %16, align 4                    ; <i32> [#uses=1]
  %tmp3.i.i.i.i.i.i.i.i = mul i32 %17, 269850533  ; <i32> [#uses=1]
  %18 = add i32 %tmp3.i.i.i.i.i.i.i.i, -1138325064 ; <i32> [#uses=1]
  %19 = add nsw i32 %18, %14                      ; <i32> [#uses=1]
  %20 = add nsw i32 %n, 4                         ; <i32> [#uses=1]
  %21 = getelementptr inbounds [8000 x i32]* @data32, i32 0, i32 %20 ; <i32*> [#uses=1]
  %22 = load i32* %21, align 4                    ; <i32> [#uses=1]
  %tmp3.i.i.i.i.i.i.i = mul i32 %22, 269850533    ; <i32> [#uses=1]
  %23 = add i32 %tmp3.i.i.i.i.i.i.i, -1138325064  ; <i32> [#uses=1]
  %24 = add nsw i32 %23, %19                      ; <i32> [#uses=1]
  %25 = add nsw i32 %n, 5                         ; <i32> [#uses=1]
  %26 = getelementptr inbounds [8000 x i32]* @data32, i32 0, i32 %25 ; <i32*> [#uses=1]
  %27 = load i32* %26, align 4                    ; <i32> [#uses=1]
  %tmp3.i.i.i.i.i.i = mul i32 %27, 269850533      ; <i32> [#uses=1]
  %28 = add i32 %tmp3.i.i.i.i.i.i, -1138325064    ; <i32> [#uses=1]
  %29 = add nsw i32 %28, %24                      ; <i32> [#uses=1]
  %30 = add nsw i32 %n, 6                         ; <i32> [#uses=1]
  %31 = getelementptr inbounds [8000 x i32]* @data32, i32 0, i32 %30 ; <i32*> [#uses=1]
  %32 = load i32* %31, align 4                    ; <i32> [#uses=1]
  %tmp3.i.i.i.i.i = mul i32 %32, 269850533        ; <i32> [#uses=1]
  %33 = add i32 %tmp3.i.i.i.i.i, -1138325064      ; <i32> [#uses=1]
  %34 = add nsw i32 %33, %29                      ; <i32> [#uses=1]
  %35 = add nsw i32 %n, 7                         ; <i32> [#uses=1]
  %36 = getelementptr inbounds [8000 x i32]* @data32, i32 0, i32 %35 ; <i32*> [#uses=1]
  %37 = load i32* %36, align 4                    ; <i32> [#uses=1]
  %tmp3.i.i.i.i = mul i32 %37, 269850533          ; <i32> [#uses=1]
  %38 = add i32 %tmp3.i.i.i.i, -1138325064        ; <i32> [#uses=1]
  %39 = add nsw i32 %38, %34                      ; <i32> [#uses=1]
  %40 = add nsw i32 %n, 8                         ; <i32> [#uses=1]
  %41 = getelementptr inbounds [8000 x i32]* @data32, i32 0, i32 %40 ; <i32*> [#uses=1]
  %42 = load i32* %41, align 4                    ; <i32> [#uses=1]
  %tmp3.i.i.i = mul i32 %42, 269850533            ; <i32> [#uses=1]
  %43 = add i32 %tmp3.i.i.i, -1138325064          ; <i32> [#uses=1]
  %44 = add nsw i32 %43, %39                      ; <i32> [#uses=1]
  %45 = add nsw i32 %n, 9                         ; <i32> [#uses=1]
  %46 = getelementptr inbounds [8000 x i32]* @data32, i32 0, i32 %45 ; <i32*> [#uses=1]
  %47 = load i32* %46, align 4                    ; <i32> [#uses=1]
  %tmp3.i.i = mul i32 %47, 269850533              ; <i32> [#uses=1]
  %48 = add i32 %tmp3.i.i, -1138325064            ; <i32> [#uses=1]
  %49 = add nsw i32 %48, %44                      ; <i32> [#uses=1]
  %50 = add nsw i32 %n, 10                        ; <i32> [#uses=1]
  %51 = getelementptr inbounds [8000 x i32]* @data32, i32 0, i32 %50 ; <i32*> [#uses=1]
  %52 = load i32* %51, align 4                    ; <i32> [#uses=1]
  %tmp3.i = mul i32 %52, 269850533                ; <i32> [#uses=1]
  %53 = add i32 %tmp3.i, -1138325064              ; <i32> [#uses=1]
  %54 = add nsw i32 %53, %49                      ; <i32> [#uses=1]
  store i32 %54, i32* %result, align 4
  ret void
}

define internal fastcc void @_ZN15loop_inner_bodyILi21EiE7do_workERiPKii(i32* nocapture %result, i32 %n) nounwind {
entry:
  tail call fastcc void @_ZN15loop_inner_bodyILi11EiE7do_workERiPKii(i32* %result, i32 %n) nounwind
  %0 = add nsw i32 %n, 11                         ; <i32> [#uses=1]
  %1 = getelementptr inbounds [8000 x i32]* @data32, i32 0, i32 %0 ; <i32*> [#uses=1]
  %2 = load i32* %1, align 4                      ; <i32> [#uses=1]
  %tmp3.i.i.i.i.i.i.i.i.i.i = mul i32 %2, 269850533 ; <i32> [#uses=1]
  %3 = load i32* %result, align 4                 ; <i32> [#uses=1]
  %4 = add nsw i32 %n, 12                         ; <i32> [#uses=1]
  %5 = getelementptr inbounds [8000 x i32]* @data32, i32 0, i32 %4 ; <i32*> [#uses=1]
  %6 = load i32* %5, align 4                      ; <i32> [#uses=1]
  %tmp3.i.i.i.i.i.i.i.i.i = mul i32 %6, 269850533 ; <i32> [#uses=1]
  %7 = add i32 %tmp3.i.i.i.i.i.i.i.i.i.i, %3      ; <i32> [#uses=1]
  %8 = add nsw i32 %7, 2018317168                 ; <i32> [#uses=1]
  %9 = add nsw i32 %8, %tmp3.i.i.i.i.i.i.i.i.i    ; <i32> [#uses=1]
  %10 = add nsw i32 %n, 13                        ; <i32> [#uses=1]
  %11 = getelementptr inbounds [8000 x i32]* @data32, i32 0, i32 %10 ; <i32*> [#uses=1]
  %12 = load i32* %11, align 4                    ; <i32> [#uses=1]
  %tmp3.i.i.i.i.i.i.i.i = mul i32 %12, 269850533  ; <i32> [#uses=1]
  %13 = add i32 %tmp3.i.i.i.i.i.i.i.i, -1138325064 ; <i32> [#uses=1]
  %14 = add nsw i32 %13, %9                       ; <i32> [#uses=1]
  %15 = add nsw i32 %n, 14                        ; <i32> [#uses=1]
  %16 = getelementptr inbounds [8000 x i32]* @data32, i32 0, i32 %15 ; <i32*> [#uses=1]
  %17 = load i32* %16, align 4                    ; <i32> [#uses=1]
  %tmp3.i.i.i.i.i.i.i = mul i32 %17, 269850533    ; <i32> [#uses=1]
  %18 = add i32 %tmp3.i.i.i.i.i.i.i, -1138325064  ; <i32> [#uses=1]
  %19 = add nsw i32 %18, %14                      ; <i32> [#uses=1]
  %20 = add nsw i32 %n, 15                        ; <i32> [#uses=1]
  %21 = getelementptr inbounds [8000 x i32]* @data32, i32 0, i32 %20 ; <i32*> [#uses=1]
  %22 = load i32* %21, align 4                    ; <i32> [#uses=1]
  %tmp3.i.i.i.i.i.i = mul i32 %22, 269850533      ; <i32> [#uses=1]
  %23 = add i32 %tmp3.i.i.i.i.i.i, -1138325064    ; <i32> [#uses=1]
  %24 = add nsw i32 %23, %19                      ; <i32> [#uses=1]
  %25 = add nsw i32 %n, 16                        ; <i32> [#uses=1]
  %26 = getelementptr inbounds [8000 x i32]* @data32, i32 0, i32 %25 ; <i32*> [#uses=1]
  %27 = load i32* %26, align 4                    ; <i32> [#uses=1]
  %tmp3.i.i.i.i.i = mul i32 %27, 269850533        ; <i32> [#uses=1]
  %28 = add i32 %tmp3.i.i.i.i.i, -1138325064      ; <i32> [#uses=1]
  %29 = add nsw i32 %28, %24                      ; <i32> [#uses=1]
  %30 = add nsw i32 %n, 17                        ; <i32> [#uses=1]
  %31 = getelementptr inbounds [8000 x i32]* @data32, i32 0, i32 %30 ; <i32*> [#uses=1]
  %32 = load i32* %31, align 4                    ; <i32> [#uses=1]
  %tmp3.i.i.i.i = mul i32 %32, 269850533          ; <i32> [#uses=1]
  %33 = add i32 %tmp3.i.i.i.i, -1138325064        ; <i32> [#uses=1]
  %34 = add nsw i32 %33, %29                      ; <i32> [#uses=1]
  %35 = add nsw i32 %n, 18                        ; <i32> [#uses=1]
  %36 = getelementptr inbounds [8000 x i32]* @data32, i32 0, i32 %35 ; <i32*> [#uses=1]
  %37 = load i32* %36, align 4                    ; <i32> [#uses=1]
  %tmp3.i.i.i = mul i32 %37, 269850533            ; <i32> [#uses=1]
  %38 = add i32 %tmp3.i.i.i, -1138325064          ; <i32> [#uses=1]
  %39 = add nsw i32 %38, %34                      ; <i32> [#uses=1]
  %40 = add nsw i32 %n, 19                        ; <i32> [#uses=1]
  %41 = getelementptr inbounds [8000 x i32]* @data32, i32 0, i32 %40 ; <i32*> [#uses=1]
  %42 = load i32* %41, align 4                    ; <i32> [#uses=1]
  %tmp3.i.i = mul i32 %42, 269850533              ; <i32> [#uses=1]
  %43 = add i32 %tmp3.i.i, -1138325064            ; <i32> [#uses=1]
  %44 = add nsw i32 %43, %39                      ; <i32> [#uses=1]
  %45 = add nsw i32 %n, 20                        ; <i32> [#uses=1]
  %46 = getelementptr inbounds [8000 x i32]* @data32, i32 0, i32 %45 ; <i32*> [#uses=1]
  %47 = load i32* %46, align 4                    ; <i32> [#uses=1]
  %tmp3.i = mul i32 %47, 269850533                ; <i32> [#uses=1]
  %48 = add i32 %tmp3.i, -1138325064              ; <i32> [#uses=1]
  %49 = add nsw i32 %48, %44                      ; <i32> [#uses=1]
  store i32 %49, i32* %result, align 4
  ret void
}

define internal fastcc void @_ZN15loop_inner_bodyILi31EiE7do_workERiPKii(i32* nocapture %result, i32 %n) nounwind {
entry:
  tail call fastcc void @_ZN15loop_inner_bodyILi21EiE7do_workERiPKii(i32* %result, i32 %n) nounwind
  %0 = add nsw i32 %n, 21                         ; <i32> [#uses=1]
  %1 = getelementptr inbounds [8000 x i32]* @data32, i32 0, i32 %0 ; <i32*> [#uses=1]
  %2 = load i32* %1, align 4                      ; <i32> [#uses=1]
  %tmp3.i.i.i.i.i.i.i.i.i.i = mul i32 %2, 269850533 ; <i32> [#uses=1]
  %3 = load i32* %result, align 4                 ; <i32> [#uses=1]
  %4 = add nsw i32 %n, 22                         ; <i32> [#uses=1]
  %5 = getelementptr inbounds [8000 x i32]* @data32, i32 0, i32 %4 ; <i32*> [#uses=1]
  %6 = load i32* %5, align 4                      ; <i32> [#uses=1]
  %tmp3.i.i.i.i.i.i.i.i.i = mul i32 %6, 269850533 ; <i32> [#uses=1]
  %7 = add i32 %tmp3.i.i.i.i.i.i.i.i.i.i, %3      ; <i32> [#uses=1]
  %8 = add nsw i32 %7, 2018317168                 ; <i32> [#uses=1]
  %9 = add nsw i32 %8, %tmp3.i.i.i.i.i.i.i.i.i    ; <i32> [#uses=1]
  %10 = add nsw i32 %n, 23                        ; <i32> [#uses=1]
  %11 = getelementptr inbounds [8000 x i32]* @data32, i32 0, i32 %10 ; <i32*> [#uses=1]
  %12 = load i32* %11, align 4                    ; <i32> [#uses=1]
  %tmp3.i.i.i.i.i.i.i.i = mul i32 %12, 269850533  ; <i32> [#uses=1]
  %13 = add i32 %tmp3.i.i.i.i.i.i.i.i, -1138325064 ; <i32> [#uses=1]
  %14 = add nsw i32 %13, %9                       ; <i32> [#uses=1]
  %15 = add nsw i32 %n, 24                        ; <i32> [#uses=1]
  %16 = getelementptr inbounds [8000 x i32]* @data32, i32 0, i32 %15 ; <i32*> [#uses=1]
  %17 = load i32* %16, align 4                    ; <i32> [#uses=1]
  %tmp3.i.i.i.i.i.i.i = mul i32 %17, 269850533    ; <i32> [#uses=1]
  %18 = add i32 %tmp3.i.i.i.i.i.i.i, -1138325064  ; <i32> [#uses=1]
  %19 = add nsw i32 %18, %14                      ; <i32> [#uses=1]
  %20 = add nsw i32 %n, 25                        ; <i32> [#uses=1]
  %21 = getelementptr inbounds [8000 x i32]* @data32, i32 0, i32 %20 ; <i32*> [#uses=1]
  %22 = load i32* %21, align 4                    ; <i32> [#uses=1]
  %tmp3.i.i.i.i.i.i = mul i32 %22, 269850533      ; <i32> [#uses=1]
  %23 = add i32 %tmp3.i.i.i.i.i.i, -1138325064    ; <i32> [#uses=1]
  %24 = add nsw i32 %23, %19                      ; <i32> [#uses=1]
  %25 = add nsw i32 %n, 26                        ; <i32> [#uses=1]
  %26 = getelementptr inbounds [8000 x i32]* @data32, i32 0, i32 %25 ; <i32*> [#uses=1]
  %27 = load i32* %26, align 4                    ; <i32> [#uses=1]
  %tmp3.i.i.i.i.i = mul i32 %27, 269850533        ; <i32> [#uses=1]
  %28 = add i32 %tmp3.i.i.i.i.i, -1138325064      ; <i32> [#uses=1]
  %29 = add nsw i32 %28, %24                      ; <i32> [#uses=1]
  %30 = add nsw i32 %n, 27                        ; <i32> [#uses=1]
  %31 = getelementptr inbounds [8000 x i32]* @data32, i32 0, i32 %30 ; <i32*> [#uses=1]
  %32 = load i32* %31, align 4                    ; <i32> [#uses=1]
  %tmp3.i.i.i.i = mul i32 %32, 269850533          ; <i32> [#uses=1]
  %33 = add i32 %tmp3.i.i.i.i, -1138325064        ; <i32> [#uses=1]
  %34 = add nsw i32 %33, %29                      ; <i32> [#uses=1]
  %35 = add nsw i32 %n, 28                        ; <i32> [#uses=1]
  %36 = getelementptr inbounds [8000 x i32]* @data32, i32 0, i32 %35 ; <i32*> [#uses=1]
  %37 = load i32* %36, align 4                    ; <i32> [#uses=1]
  %tmp3.i.i.i = mul i32 %37, 269850533            ; <i32> [#uses=1]
  %38 = add i32 %tmp3.i.i.i, -1138325064          ; <i32> [#uses=1]
  %39 = add nsw i32 %38, %34                      ; <i32> [#uses=1]
  %40 = add nsw i32 %n, 29                        ; <i32> [#uses=1]
  %41 = getelementptr inbounds [8000 x i32]* @data32, i32 0, i32 %40 ; <i32*> [#uses=1]
  %42 = load i32* %41, align 4                    ; <i32> [#uses=1]
  %tmp3.i.i = mul i32 %42, 269850533              ; <i32> [#uses=1]
  %43 = add i32 %tmp3.i.i, -1138325064            ; <i32> [#uses=1]
  %44 = add nsw i32 %43, %39                      ; <i32> [#uses=1]
  %45 = add nsw i32 %n, 30                        ; <i32> [#uses=1]
  %46 = getelementptr inbounds [8000 x i32]* @data32, i32 0, i32 %45 ; <i32*> [#uses=1]
  %47 = load i32* %46, align 4                    ; <i32> [#uses=1]
  %tmp3.i = mul i32 %47, 269850533                ; <i32> [#uses=1]
  %48 = add i32 %tmp3.i, -1138325064              ; <i32> [#uses=1]
  %49 = add nsw i32 %48, %44                      ; <i32> [#uses=1]
  store i32 %49, i32* %result, align 4
  ret void
}

define internal fastcc void @_ZN15loop_inner_bodyILi6EdE7do_workERdPKdi(double* nocapture %result, i32 %n) nounwind {
entry:
  %0 = getelementptr inbounds [8000 x double]* @dataDouble, i32 0, i32 %n ; <double*> [#uses=1]
  %1 = load double* %0, align 8                   ; <double> [#uses=1]
  %2 = fadd double %1, 1.234500e+04               ; <double> [#uses=1]
  %3 = fmul double %2, 9.142370e+05               ; <double> [#uses=1]
  %4 = fadd double %3, -1.300000e+01              ; <double> [#uses=1]
  %5 = fadd double %4, 1.234500e+04               ; <double> [#uses=1]
  %6 = fmul double %5, 9.142370e+05               ; <double> [#uses=1]
  %7 = fadd double %6, -1.300000e+01              ; <double> [#uses=1]
  %8 = fadd double %7, 1.234500e+04               ; <double> [#uses=1]
  %9 = fmul double %8, 9.142370e+05               ; <double> [#uses=1]
  %10 = fadd double %9, -1.300000e+01             ; <double> [#uses=1]
  %11 = load double* %result, align 8             ; <double> [#uses=1]
  %12 = fadd double %11, %10                      ; <double> [#uses=1]
  %13 = add nsw i32 %n, 1                         ; <i32> [#uses=1]
  %14 = getelementptr inbounds [8000 x double]* @dataDouble, i32 0, i32 %13 ; <double*> [#uses=1]
  %15 = load double* %14, align 8                 ; <double> [#uses=1]
  %16 = fadd double %15, 1.234500e+04             ; <double> [#uses=1]
  %17 = fmul double %16, 9.142370e+05             ; <double> [#uses=1]
  %18 = fadd double %17, -1.300000e+01            ; <double> [#uses=1]
  %19 = fadd double %18, 1.234500e+04             ; <double> [#uses=1]
  %20 = fmul double %19, 9.142370e+05             ; <double> [#uses=1]
  %21 = fadd double %20, -1.300000e+01            ; <double> [#uses=1]
  %22 = fadd double %21, 1.234500e+04             ; <double> [#uses=1]
  %23 = fmul double %22, 9.142370e+05             ; <double> [#uses=1]
  %24 = fadd double %23, -1.300000e+01            ; <double> [#uses=1]
  %25 = fadd double %12, %24                      ; <double> [#uses=1]
  %26 = add nsw i32 %n, 2                         ; <i32> [#uses=1]
  %27 = getelementptr inbounds [8000 x double]* @dataDouble, i32 0, i32 %26 ; <double*> [#uses=1]
  %28 = load double* %27, align 8                 ; <double> [#uses=1]
  %29 = fadd double %28, 1.234500e+04             ; <double> [#uses=1]
  %30 = fmul double %29, 9.142370e+05             ; <double> [#uses=1]
  %31 = fadd double %30, -1.300000e+01            ; <double> [#uses=1]
  %32 = fadd double %31, 1.234500e+04             ; <double> [#uses=1]
  %33 = fmul double %32, 9.142370e+05             ; <double> [#uses=1]
  %34 = fadd double %33, -1.300000e+01            ; <double> [#uses=1]
  %35 = fadd double %34, 1.234500e+04             ; <double> [#uses=1]
  %36 = fmul double %35, 9.142370e+05             ; <double> [#uses=1]
  %37 = fadd double %36, -1.300000e+01            ; <double> [#uses=1]
  %38 = fadd double %25, %37                      ; <double> [#uses=1]
  %39 = add nsw i32 %n, 3                         ; <i32> [#uses=1]
  %40 = getelementptr inbounds [8000 x double]* @dataDouble, i32 0, i32 %39 ; <double*> [#uses=1]
  %41 = load double* %40, align 8                 ; <double> [#uses=1]
  %42 = fadd double %41, 1.234500e+04             ; <double> [#uses=1]
  %43 = fmul double %42, 9.142370e+05             ; <double> [#uses=1]
  %44 = fadd double %43, -1.300000e+01            ; <double> [#uses=1]
  %45 = fadd double %44, 1.234500e+04             ; <double> [#uses=1]
  %46 = fmul double %45, 9.142370e+05             ; <double> [#uses=1]
  %47 = fadd double %46, -1.300000e+01            ; <double> [#uses=1]
  %48 = fadd double %47, 1.234500e+04             ; <double> [#uses=1]
  %49 = fmul double %48, 9.142370e+05             ; <double> [#uses=1]
  %50 = fadd double %49, -1.300000e+01            ; <double> [#uses=1]
  %51 = fadd double %38, %50                      ; <double> [#uses=1]
  %52 = add nsw i32 %n, 4                         ; <i32> [#uses=1]
  %53 = getelementptr inbounds [8000 x double]* @dataDouble, i32 0, i32 %52 ; <double*> [#uses=1]
  %54 = load double* %53, align 8                 ; <double> [#uses=1]
  %55 = fadd double %54, 1.234500e+04             ; <double> [#uses=1]
  %56 = fmul double %55, 9.142370e+05             ; <double> [#uses=1]
  %57 = fadd double %56, -1.300000e+01            ; <double> [#uses=1]
  %58 = fadd double %57, 1.234500e+04             ; <double> [#uses=1]
  %59 = fmul double %58, 9.142370e+05             ; <double> [#uses=1]
  %60 = fadd double %59, -1.300000e+01            ; <double> [#uses=1]
  %61 = fadd double %60, 1.234500e+04             ; <double> [#uses=1]
  %62 = fmul double %61, 9.142370e+05             ; <double> [#uses=1]
  %63 = fadd double %62, -1.300000e+01            ; <double> [#uses=1]
  %64 = fadd double %51, %63                      ; <double> [#uses=1]
  %65 = add nsw i32 %n, 5                         ; <i32> [#uses=1]
  %66 = getelementptr inbounds [8000 x double]* @dataDouble, i32 0, i32 %65 ; <double*> [#uses=1]
  %67 = load double* %66, align 8                 ; <double> [#uses=1]
  %68 = fadd double %67, 1.234500e+04             ; <double> [#uses=1]
  %69 = fmul double %68, 9.142370e+05             ; <double> [#uses=1]
  %70 = fadd double %69, -1.300000e+01            ; <double> [#uses=1]
  %71 = fadd double %70, 1.234500e+04             ; <double> [#uses=1]
  %72 = fmul double %71, 9.142370e+05             ; <double> [#uses=1]
  %73 = fadd double %72, -1.300000e+01            ; <double> [#uses=1]
  %74 = fadd double %73, 1.234500e+04             ; <double> [#uses=1]
  %75 = fmul double %74, 9.142370e+05             ; <double> [#uses=1]
  %76 = fadd double %75, -1.300000e+01            ; <double> [#uses=1]
  %77 = fadd double %64, %76                      ; <double> [#uses=1]
  store double %77, double* %result, align 8
  ret void
}

define internal fastcc void @_ZN15loop_inner_bodyILi11EdE7do_workERdPKdi(double* nocapture %result, i32 %n) nounwind {
entry:
  tail call fastcc void @_ZN15loop_inner_bodyILi6EdE7do_workERdPKdi(double* %result, i32 %n) nounwind
  %0 = add nsw i32 %n, 6                          ; <i32> [#uses=1]
  %1 = getelementptr inbounds [8000 x double]* @dataDouble, i32 0, i32 %0 ; <double*> [#uses=1]
  %2 = load double* %1, align 8                   ; <double> [#uses=1]
  %3 = fadd double %2, 1.234500e+04               ; <double> [#uses=1]
  %4 = fmul double %3, 9.142370e+05               ; <double> [#uses=1]
  %5 = fadd double %4, -1.300000e+01              ; <double> [#uses=1]
  %6 = fadd double %5, 1.234500e+04               ; <double> [#uses=1]
  %7 = fmul double %6, 9.142370e+05               ; <double> [#uses=1]
  %8 = fadd double %7, -1.300000e+01              ; <double> [#uses=1]
  %9 = fadd double %8, 1.234500e+04               ; <double> [#uses=1]
  %10 = fmul double %9, 9.142370e+05              ; <double> [#uses=1]
  %11 = fadd double %10, -1.300000e+01            ; <double> [#uses=1]
  %12 = load double* %result, align 8             ; <double> [#uses=1]
  %13 = fadd double %12, %11                      ; <double> [#uses=1]
  %14 = add nsw i32 %n, 7                         ; <i32> [#uses=1]
  %15 = getelementptr inbounds [8000 x double]* @dataDouble, i32 0, i32 %14 ; <double*> [#uses=1]
  %16 = load double* %15, align 8                 ; <double> [#uses=1]
  %17 = fadd double %16, 1.234500e+04             ; <double> [#uses=1]
  %18 = fmul double %17, 9.142370e+05             ; <double> [#uses=1]
  %19 = fadd double %18, -1.300000e+01            ; <double> [#uses=1]
  %20 = fadd double %19, 1.234500e+04             ; <double> [#uses=1]
  %21 = fmul double %20, 9.142370e+05             ; <double> [#uses=1]
  %22 = fadd double %21, -1.300000e+01            ; <double> [#uses=1]
  %23 = fadd double %22, 1.234500e+04             ; <double> [#uses=1]
  %24 = fmul double %23, 9.142370e+05             ; <double> [#uses=1]
  %25 = fadd double %24, -1.300000e+01            ; <double> [#uses=1]
  %26 = fadd double %13, %25                      ; <double> [#uses=1]
  %27 = add nsw i32 %n, 8                         ; <i32> [#uses=1]
  %28 = getelementptr inbounds [8000 x double]* @dataDouble, i32 0, i32 %27 ; <double*> [#uses=1]
  %29 = load double* %28, align 8                 ; <double> [#uses=1]
  %30 = fadd double %29, 1.234500e+04             ; <double> [#uses=1]
  %31 = fmul double %30, 9.142370e+05             ; <double> [#uses=1]
  %32 = fadd double %31, -1.300000e+01            ; <double> [#uses=1]
  %33 = fadd double %32, 1.234500e+04             ; <double> [#uses=1]
  %34 = fmul double %33, 9.142370e+05             ; <double> [#uses=1]
  %35 = fadd double %34, -1.300000e+01            ; <double> [#uses=1]
  %36 = fadd double %35, 1.234500e+04             ; <double> [#uses=1]
  %37 = fmul double %36, 9.142370e+05             ; <double> [#uses=1]
  %38 = fadd double %37, -1.300000e+01            ; <double> [#uses=1]
  %39 = fadd double %26, %38                      ; <double> [#uses=1]
  %40 = add nsw i32 %n, 9                         ; <i32> [#uses=1]
  %41 = getelementptr inbounds [8000 x double]* @dataDouble, i32 0, i32 %40 ; <double*> [#uses=1]
  %42 = load double* %41, align 8                 ; <double> [#uses=1]
  %43 = fadd double %42, 1.234500e+04             ; <double> [#uses=1]
  %44 = fmul double %43, 9.142370e+05             ; <double> [#uses=1]
  %45 = fadd double %44, -1.300000e+01            ; <double> [#uses=1]
  %46 = fadd double %45, 1.234500e+04             ; <double> [#uses=1]
  %47 = fmul double %46, 9.142370e+05             ; <double> [#uses=1]
  %48 = fadd double %47, -1.300000e+01            ; <double> [#uses=1]
  %49 = fadd double %48, 1.234500e+04             ; <double> [#uses=1]
  %50 = fmul double %49, 9.142370e+05             ; <double> [#uses=1]
  %51 = fadd double %50, -1.300000e+01            ; <double> [#uses=1]
  %52 = fadd double %39, %51                      ; <double> [#uses=1]
  %53 = add nsw i32 %n, 10                        ; <i32> [#uses=1]
  %54 = getelementptr inbounds [8000 x double]* @dataDouble, i32 0, i32 %53 ; <double*> [#uses=1]
  %55 = load double* %54, align 8                 ; <double> [#uses=1]
  %56 = fadd double %55, 1.234500e+04             ; <double> [#uses=1]
  %57 = fmul double %56, 9.142370e+05             ; <double> [#uses=1]
  %58 = fadd double %57, -1.300000e+01            ; <double> [#uses=1]
  %59 = fadd double %58, 1.234500e+04             ; <double> [#uses=1]
  %60 = fmul double %59, 9.142370e+05             ; <double> [#uses=1]
  %61 = fadd double %60, -1.300000e+01            ; <double> [#uses=1]
  %62 = fadd double %61, 1.234500e+04             ; <double> [#uses=1]
  %63 = fmul double %62, 9.142370e+05             ; <double> [#uses=1]
  %64 = fadd double %63, -1.300000e+01            ; <double> [#uses=1]
  %65 = fadd double %52, %64                      ; <double> [#uses=1]
  store double %65, double* %result, align 8
  ret void
}

define internal fastcc void @_ZN15loop_inner_bodyILi16EdE7do_workERdPKdi(double* nocapture %result, i32 %n) nounwind {
entry:
  tail call fastcc void @_ZN15loop_inner_bodyILi11EdE7do_workERdPKdi(double* %result, i32 %n) nounwind
  %0 = add nsw i32 %n, 11                         ; <i32> [#uses=1]
  %1 = getelementptr inbounds [8000 x double]* @dataDouble, i32 0, i32 %0 ; <double*> [#uses=1]
  %2 = load double* %1, align 8                   ; <double> [#uses=1]
  %3 = fadd double %2, 1.234500e+04               ; <double> [#uses=1]
  %4 = fmul double %3, 9.142370e+05               ; <double> [#uses=1]
  %5 = fadd double %4, -1.300000e+01              ; <double> [#uses=1]
  %6 = fadd double %5, 1.234500e+04               ; <double> [#uses=1]
  %7 = fmul double %6, 9.142370e+05               ; <double> [#uses=1]
  %8 = fadd double %7, -1.300000e+01              ; <double> [#uses=1]
  %9 = fadd double %8, 1.234500e+04               ; <double> [#uses=1]
  %10 = fmul double %9, 9.142370e+05              ; <double> [#uses=1]
  %11 = fadd double %10, -1.300000e+01            ; <double> [#uses=1]
  %12 = load double* %result, align 8             ; <double> [#uses=1]
  %13 = fadd double %12, %11                      ; <double> [#uses=1]
  %14 = add nsw i32 %n, 12                        ; <i32> [#uses=1]
  %15 = getelementptr inbounds [8000 x double]* @dataDouble, i32 0, i32 %14 ; <double*> [#uses=1]
  %16 = load double* %15, align 8                 ; <double> [#uses=1]
  %17 = fadd double %16, 1.234500e+04             ; <double> [#uses=1]
  %18 = fmul double %17, 9.142370e+05             ; <double> [#uses=1]
  %19 = fadd double %18, -1.300000e+01            ; <double> [#uses=1]
  %20 = fadd double %19, 1.234500e+04             ; <double> [#uses=1]
  %21 = fmul double %20, 9.142370e+05             ; <double> [#uses=1]
  %22 = fadd double %21, -1.300000e+01            ; <double> [#uses=1]
  %23 = fadd double %22, 1.234500e+04             ; <double> [#uses=1]
  %24 = fmul double %23, 9.142370e+05             ; <double> [#uses=1]
  %25 = fadd double %24, -1.300000e+01            ; <double> [#uses=1]
  %26 = fadd double %13, %25                      ; <double> [#uses=1]
  %27 = add nsw i32 %n, 13                        ; <i32> [#uses=1]
  %28 = getelementptr inbounds [8000 x double]* @dataDouble, i32 0, i32 %27 ; <double*> [#uses=1]
  %29 = load double* %28, align 8                 ; <double> [#uses=1]
  %30 = fadd double %29, 1.234500e+04             ; <double> [#uses=1]
  %31 = fmul double %30, 9.142370e+05             ; <double> [#uses=1]
  %32 = fadd double %31, -1.300000e+01            ; <double> [#uses=1]
  %33 = fadd double %32, 1.234500e+04             ; <double> [#uses=1]
  %34 = fmul double %33, 9.142370e+05             ; <double> [#uses=1]
  %35 = fadd double %34, -1.300000e+01            ; <double> [#uses=1]
  %36 = fadd double %35, 1.234500e+04             ; <double> [#uses=1]
  %37 = fmul double %36, 9.142370e+05             ; <double> [#uses=1]
  %38 = fadd double %37, -1.300000e+01            ; <double> [#uses=1]
  %39 = fadd double %26, %38                      ; <double> [#uses=1]
  %40 = add nsw i32 %n, 14                        ; <i32> [#uses=1]
  %41 = getelementptr inbounds [8000 x double]* @dataDouble, i32 0, i32 %40 ; <double*> [#uses=1]
  %42 = load double* %41, align 8                 ; <double> [#uses=1]
  %43 = fadd double %42, 1.234500e+04             ; <double> [#uses=1]
  %44 = fmul double %43, 9.142370e+05             ; <double> [#uses=1]
  %45 = fadd double %44, -1.300000e+01            ; <double> [#uses=1]
  %46 = fadd double %45, 1.234500e+04             ; <double> [#uses=1]
  %47 = fmul double %46, 9.142370e+05             ; <double> [#uses=1]
  %48 = fadd double %47, -1.300000e+01            ; <double> [#uses=1]
  %49 = fadd double %48, 1.234500e+04             ; <double> [#uses=1]
  %50 = fmul double %49, 9.142370e+05             ; <double> [#uses=1]
  %51 = fadd double %50, -1.300000e+01            ; <double> [#uses=1]
  %52 = fadd double %39, %51                      ; <double> [#uses=1]
  %53 = add nsw i32 %n, 15                        ; <i32> [#uses=1]
  %54 = getelementptr inbounds [8000 x double]* @dataDouble, i32 0, i32 %53 ; <double*> [#uses=1]
  %55 = load double* %54, align 8                 ; <double> [#uses=1]
  %56 = fadd double %55, 1.234500e+04             ; <double> [#uses=1]
  %57 = fmul double %56, 9.142370e+05             ; <double> [#uses=1]
  %58 = fadd double %57, -1.300000e+01            ; <double> [#uses=1]
  %59 = fadd double %58, 1.234500e+04             ; <double> [#uses=1]
  %60 = fmul double %59, 9.142370e+05             ; <double> [#uses=1]
  %61 = fadd double %60, -1.300000e+01            ; <double> [#uses=1]
  %62 = fadd double %61, 1.234500e+04             ; <double> [#uses=1]
  %63 = fmul double %62, 9.142370e+05             ; <double> [#uses=1]
  %64 = fadd double %63, -1.300000e+01            ; <double> [#uses=1]
  %65 = fadd double %52, %64                      ; <double> [#uses=1]
  store double %65, double* %result, align 8
  ret void
}

define internal fastcc void @_ZN15loop_inner_bodyILi21EdE7do_workERdPKdi(double* nocapture %result, i32 %n) nounwind {
entry:
  tail call fastcc void @_ZN15loop_inner_bodyILi16EdE7do_workERdPKdi(double* %result, i32 %n) nounwind
  %0 = add nsw i32 %n, 16                         ; <i32> [#uses=1]
  %1 = getelementptr inbounds [8000 x double]* @dataDouble, i32 0, i32 %0 ; <double*> [#uses=1]
  %2 = load double* %1, align 8                   ; <double> [#uses=1]
  %3 = fadd double %2, 1.234500e+04               ; <double> [#uses=1]
  %4 = fmul double %3, 9.142370e+05               ; <double> [#uses=1]
  %5 = fadd double %4, -1.300000e+01              ; <double> [#uses=1]
  %6 = fadd double %5, 1.234500e+04               ; <double> [#uses=1]
  %7 = fmul double %6, 9.142370e+05               ; <double> [#uses=1]
  %8 = fadd double %7, -1.300000e+01              ; <double> [#uses=1]
  %9 = fadd double %8, 1.234500e+04               ; <double> [#uses=1]
  %10 = fmul double %9, 9.142370e+05              ; <double> [#uses=1]
  %11 = fadd double %10, -1.300000e+01            ; <double> [#uses=1]
  %12 = load double* %result, align 8             ; <double> [#uses=1]
  %13 = fadd double %12, %11                      ; <double> [#uses=1]
  %14 = add nsw i32 %n, 17                        ; <i32> [#uses=1]
  %15 = getelementptr inbounds [8000 x double]* @dataDouble, i32 0, i32 %14 ; <double*> [#uses=1]
  %16 = load double* %15, align 8                 ; <double> [#uses=1]
  %17 = fadd double %16, 1.234500e+04             ; <double> [#uses=1]
  %18 = fmul double %17, 9.142370e+05             ; <double> [#uses=1]
  %19 = fadd double %18, -1.300000e+01            ; <double> [#uses=1]
  %20 = fadd double %19, 1.234500e+04             ; <double> [#uses=1]
  %21 = fmul double %20, 9.142370e+05             ; <double> [#uses=1]
  %22 = fadd double %21, -1.300000e+01            ; <double> [#uses=1]
  %23 = fadd double %22, 1.234500e+04             ; <double> [#uses=1]
  %24 = fmul double %23, 9.142370e+05             ; <double> [#uses=1]
  %25 = fadd double %24, -1.300000e+01            ; <double> [#uses=1]
  %26 = fadd double %13, %25                      ; <double> [#uses=1]
  %27 = add nsw i32 %n, 18                        ; <i32> [#uses=1]
  %28 = getelementptr inbounds [8000 x double]* @dataDouble, i32 0, i32 %27 ; <double*> [#uses=1]
  %29 = load double* %28, align 8                 ; <double> [#uses=1]
  %30 = fadd double %29, 1.234500e+04             ; <double> [#uses=1]
  %31 = fmul double %30, 9.142370e+05             ; <double> [#uses=1]
  %32 = fadd double %31, -1.300000e+01            ; <double> [#uses=1]
  %33 = fadd double %32, 1.234500e+04             ; <double> [#uses=1]
  %34 = fmul double %33, 9.142370e+05             ; <double> [#uses=1]
  %35 = fadd double %34, -1.300000e+01            ; <double> [#uses=1]
  %36 = fadd double %35, 1.234500e+04             ; <double> [#uses=1]
  %37 = fmul double %36, 9.142370e+05             ; <double> [#uses=1]
  %38 = fadd double %37, -1.300000e+01            ; <double> [#uses=1]
  %39 = fadd double %26, %38                      ; <double> [#uses=1]
  %40 = add nsw i32 %n, 19                        ; <i32> [#uses=1]
  %41 = getelementptr inbounds [8000 x double]* @dataDouble, i32 0, i32 %40 ; <double*> [#uses=1]
  %42 = load double* %41, align 8                 ; <double> [#uses=1]
  %43 = fadd double %42, 1.234500e+04             ; <double> [#uses=1]
  %44 = fmul double %43, 9.142370e+05             ; <double> [#uses=1]
  %45 = fadd double %44, -1.300000e+01            ; <double> [#uses=1]
  %46 = fadd double %45, 1.234500e+04             ; <double> [#uses=1]
  %47 = fmul double %46, 9.142370e+05             ; <double> [#uses=1]
  %48 = fadd double %47, -1.300000e+01            ; <double> [#uses=1]
  %49 = fadd double %48, 1.234500e+04             ; <double> [#uses=1]
  %50 = fmul double %49, 9.142370e+05             ; <double> [#uses=1]
  %51 = fadd double %50, -1.300000e+01            ; <double> [#uses=1]
  %52 = fadd double %39, %51                      ; <double> [#uses=1]
  %53 = add nsw i32 %n, 20                        ; <i32> [#uses=1]
  %54 = getelementptr inbounds [8000 x double]* @dataDouble, i32 0, i32 %53 ; <double*> [#uses=1]
  %55 = load double* %54, align 8                 ; <double> [#uses=1]
  %56 = fadd double %55, 1.234500e+04             ; <double> [#uses=1]
  %57 = fmul double %56, 9.142370e+05             ; <double> [#uses=1]
  %58 = fadd double %57, -1.300000e+01            ; <double> [#uses=1]
  %59 = fadd double %58, 1.234500e+04             ; <double> [#uses=1]
  %60 = fmul double %59, 9.142370e+05             ; <double> [#uses=1]
  %61 = fadd double %60, -1.300000e+01            ; <double> [#uses=1]
  %62 = fadd double %61, 1.234500e+04             ; <double> [#uses=1]
  %63 = fmul double %62, 9.142370e+05             ; <double> [#uses=1]
  %64 = fadd double %63, -1.300000e+01            ; <double> [#uses=1]
  %65 = fadd double %52, %64                      ; <double> [#uses=1]
  store double %65, double* %result, align 8
  ret void
}

define internal fastcc void @_ZN15loop_inner_bodyILi26EdE7do_workERdPKdi(double* nocapture %result, i32 %n) nounwind {
entry:
  tail call fastcc void @_ZN15loop_inner_bodyILi21EdE7do_workERdPKdi(double* %result, i32 %n) nounwind
  %0 = add nsw i32 %n, 21                         ; <i32> [#uses=1]
  %1 = getelementptr inbounds [8000 x double]* @dataDouble, i32 0, i32 %0 ; <double*> [#uses=1]
  %2 = load double* %1, align 8                   ; <double> [#uses=1]
  %3 = fadd double %2, 1.234500e+04               ; <double> [#uses=1]
  %4 = fmul double %3, 9.142370e+05               ; <double> [#uses=1]
  %5 = fadd double %4, -1.300000e+01              ; <double> [#uses=1]
  %6 = fadd double %5, 1.234500e+04               ; <double> [#uses=1]
  %7 = fmul double %6, 9.142370e+05               ; <double> [#uses=1]
  %8 = fadd double %7, -1.300000e+01              ; <double> [#uses=1]
  %9 = fadd double %8, 1.234500e+04               ; <double> [#uses=1]
  %10 = fmul double %9, 9.142370e+05              ; <double> [#uses=1]
  %11 = fadd double %10, -1.300000e+01            ; <double> [#uses=1]
  %12 = load double* %result, align 8             ; <double> [#uses=1]
  %13 = fadd double %12, %11                      ; <double> [#uses=1]
  %14 = add nsw i32 %n, 22                        ; <i32> [#uses=1]
  %15 = getelementptr inbounds [8000 x double]* @dataDouble, i32 0, i32 %14 ; <double*> [#uses=1]
  %16 = load double* %15, align 8                 ; <double> [#uses=1]
  %17 = fadd double %16, 1.234500e+04             ; <double> [#uses=1]
  %18 = fmul double %17, 9.142370e+05             ; <double> [#uses=1]
  %19 = fadd double %18, -1.300000e+01            ; <double> [#uses=1]
  %20 = fadd double %19, 1.234500e+04             ; <double> [#uses=1]
  %21 = fmul double %20, 9.142370e+05             ; <double> [#uses=1]
  %22 = fadd double %21, -1.300000e+01            ; <double> [#uses=1]
  %23 = fadd double %22, 1.234500e+04             ; <double> [#uses=1]
  %24 = fmul double %23, 9.142370e+05             ; <double> [#uses=1]
  %25 = fadd double %24, -1.300000e+01            ; <double> [#uses=1]
  %26 = fadd double %13, %25                      ; <double> [#uses=1]
  %27 = add nsw i32 %n, 23                        ; <i32> [#uses=1]
  %28 = getelementptr inbounds [8000 x double]* @dataDouble, i32 0, i32 %27 ; <double*> [#uses=1]
  %29 = load double* %28, align 8                 ; <double> [#uses=1]
  %30 = fadd double %29, 1.234500e+04             ; <double> [#uses=1]
  %31 = fmul double %30, 9.142370e+05             ; <double> [#uses=1]
  %32 = fadd double %31, -1.300000e+01            ; <double> [#uses=1]
  %33 = fadd double %32, 1.234500e+04             ; <double> [#uses=1]
  %34 = fmul double %33, 9.142370e+05             ; <double> [#uses=1]
  %35 = fadd double %34, -1.300000e+01            ; <double> [#uses=1]
  %36 = fadd double %35, 1.234500e+04             ; <double> [#uses=1]
  %37 = fmul double %36, 9.142370e+05             ; <double> [#uses=1]
  %38 = fadd double %37, -1.300000e+01            ; <double> [#uses=1]
  %39 = fadd double %26, %38                      ; <double> [#uses=1]
  %40 = add nsw i32 %n, 24                        ; <i32> [#uses=1]
  %41 = getelementptr inbounds [8000 x double]* @dataDouble, i32 0, i32 %40 ; <double*> [#uses=1]
  %42 = load double* %41, align 8                 ; <double> [#uses=1]
  %43 = fadd double %42, 1.234500e+04             ; <double> [#uses=1]
  %44 = fmul double %43, 9.142370e+05             ; <double> [#uses=1]
  %45 = fadd double %44, -1.300000e+01            ; <double> [#uses=1]
  %46 = fadd double %45, 1.234500e+04             ; <double> [#uses=1]
  %47 = fmul double %46, 9.142370e+05             ; <double> [#uses=1]
  %48 = fadd double %47, -1.300000e+01            ; <double> [#uses=1]
  %49 = fadd double %48, 1.234500e+04             ; <double> [#uses=1]
  %50 = fmul double %49, 9.142370e+05             ; <double> [#uses=1]
  %51 = fadd double %50, -1.300000e+01            ; <double> [#uses=1]
  %52 = fadd double %39, %51                      ; <double> [#uses=1]
  %53 = add nsw i32 %n, 25                        ; <i32> [#uses=1]
  %54 = getelementptr inbounds [8000 x double]* @dataDouble, i32 0, i32 %53 ; <double*> [#uses=1]
  %55 = load double* %54, align 8                 ; <double> [#uses=1]
  %56 = fadd double %55, 1.234500e+04             ; <double> [#uses=1]
  %57 = fmul double %56, 9.142370e+05             ; <double> [#uses=1]
  %58 = fadd double %57, -1.300000e+01            ; <double> [#uses=1]
  %59 = fadd double %58, 1.234500e+04             ; <double> [#uses=1]
  %60 = fmul double %59, 9.142370e+05             ; <double> [#uses=1]
  %61 = fadd double %60, -1.300000e+01            ; <double> [#uses=1]
  %62 = fadd double %61, 1.234500e+04             ; <double> [#uses=1]
  %63 = fmul double %62, 9.142370e+05             ; <double> [#uses=1]
  %64 = fadd double %63, -1.300000e+01            ; <double> [#uses=1]
  %65 = fadd double %52, %64                      ; <double> [#uses=1]
  store double %65, double* %result, align 8
  ret void
}

define internal fastcc void @_ZN15loop_inner_bodyILi31EdE7do_workERdPKdi(double* nocapture %result, i32 %n) nounwind {
entry:
  tail call fastcc void @_ZN15loop_inner_bodyILi26EdE7do_workERdPKdi(double* %result, i32 %n) nounwind
  %0 = add nsw i32 %n, 26                         ; <i32> [#uses=1]
  %1 = getelementptr inbounds [8000 x double]* @dataDouble, i32 0, i32 %0 ; <double*> [#uses=1]
  %2 = load double* %1, align 8                   ; <double> [#uses=1]
  %3 = fadd double %2, 1.234500e+04               ; <double> [#uses=1]
  %4 = fmul double %3, 9.142370e+05               ; <double> [#uses=1]
  %5 = fadd double %4, -1.300000e+01              ; <double> [#uses=1]
  %6 = fadd double %5, 1.234500e+04               ; <double> [#uses=1]
  %7 = fmul double %6, 9.142370e+05               ; <double> [#uses=1]
  %8 = fadd double %7, -1.300000e+01              ; <double> [#uses=1]
  %9 = fadd double %8, 1.234500e+04               ; <double> [#uses=1]
  %10 = fmul double %9, 9.142370e+05              ; <double> [#uses=1]
  %11 = fadd double %10, -1.300000e+01            ; <double> [#uses=1]
  %12 = load double* %result, align 8             ; <double> [#uses=1]
  %13 = fadd double %12, %11                      ; <double> [#uses=1]
  %14 = add nsw i32 %n, 27                        ; <i32> [#uses=1]
  %15 = getelementptr inbounds [8000 x double]* @dataDouble, i32 0, i32 %14 ; <double*> [#uses=1]
  %16 = load double* %15, align 8                 ; <double> [#uses=1]
  %17 = fadd double %16, 1.234500e+04             ; <double> [#uses=1]
  %18 = fmul double %17, 9.142370e+05             ; <double> [#uses=1]
  %19 = fadd double %18, -1.300000e+01            ; <double> [#uses=1]
  %20 = fadd double %19, 1.234500e+04             ; <double> [#uses=1]
  %21 = fmul double %20, 9.142370e+05             ; <double> [#uses=1]
  %22 = fadd double %21, -1.300000e+01            ; <double> [#uses=1]
  %23 = fadd double %22, 1.234500e+04             ; <double> [#uses=1]
  %24 = fmul double %23, 9.142370e+05             ; <double> [#uses=1]
  %25 = fadd double %24, -1.300000e+01            ; <double> [#uses=1]
  %26 = fadd double %13, %25                      ; <double> [#uses=1]
  %27 = add nsw i32 %n, 28                        ; <i32> [#uses=1]
  %28 = getelementptr inbounds [8000 x double]* @dataDouble, i32 0, i32 %27 ; <double*> [#uses=1]
  %29 = load double* %28, align 8                 ; <double> [#uses=1]
  %30 = fadd double %29, 1.234500e+04             ; <double> [#uses=1]
  %31 = fmul double %30, 9.142370e+05             ; <double> [#uses=1]
  %32 = fadd double %31, -1.300000e+01            ; <double> [#uses=1]
  %33 = fadd double %32, 1.234500e+04             ; <double> [#uses=1]
  %34 = fmul double %33, 9.142370e+05             ; <double> [#uses=1]
  %35 = fadd double %34, -1.300000e+01            ; <double> [#uses=1]
  %36 = fadd double %35, 1.234500e+04             ; <double> [#uses=1]
  %37 = fmul double %36, 9.142370e+05             ; <double> [#uses=1]
  %38 = fadd double %37, -1.300000e+01            ; <double> [#uses=1]
  %39 = fadd double %26, %38                      ; <double> [#uses=1]
  %40 = add nsw i32 %n, 29                        ; <i32> [#uses=1]
  %41 = getelementptr inbounds [8000 x double]* @dataDouble, i32 0, i32 %40 ; <double*> [#uses=1]
  %42 = load double* %41, align 8                 ; <double> [#uses=1]
  %43 = fadd double %42, 1.234500e+04             ; <double> [#uses=1]
  %44 = fmul double %43, 9.142370e+05             ; <double> [#uses=1]
  %45 = fadd double %44, -1.300000e+01            ; <double> [#uses=1]
  %46 = fadd double %45, 1.234500e+04             ; <double> [#uses=1]
  %47 = fmul double %46, 9.142370e+05             ; <double> [#uses=1]
  %48 = fadd double %47, -1.300000e+01            ; <double> [#uses=1]
  %49 = fadd double %48, 1.234500e+04             ; <double> [#uses=1]
  %50 = fmul double %49, 9.142370e+05             ; <double> [#uses=1]
  %51 = fadd double %50, -1.300000e+01            ; <double> [#uses=1]
  %52 = fadd double %39, %51                      ; <double> [#uses=1]
  %53 = add nsw i32 %n, 30                        ; <i32> [#uses=1]
  %54 = getelementptr inbounds [8000 x double]* @dataDouble, i32 0, i32 %53 ; <double*> [#uses=1]
  %55 = load double* %54, align 8                 ; <double> [#uses=1]
  %56 = fadd double %55, 1.234500e+04             ; <double> [#uses=1]
  %57 = fmul double %56, 9.142370e+05             ; <double> [#uses=1]
  %58 = fadd double %57, -1.300000e+01            ; <double> [#uses=1]
  %59 = fadd double %58, 1.234500e+04             ; <double> [#uses=1]
  %60 = fmul double %59, 9.142370e+05             ; <double> [#uses=1]
  %61 = fadd double %60, -1.300000e+01            ; <double> [#uses=1]
  %62 = fadd double %61, 1.234500e+04             ; <double> [#uses=1]
  %63 = fmul double %62, 9.142370e+05             ; <double> [#uses=1]
  %64 = fadd double %63, -1.300000e+01            ; <double> [#uses=1]
  %65 = fadd double %52, %64                      ; <double> [#uses=1]
  store double %65, double* %result, align 8
  ret void
}

declare i32 @printf(i8* noalias nocapture, ...) nounwind

declare i32 @clock() nounwind

declare noalias i8* @realloc(i8* nocapture, i32) nounwind

declare void @exit(i32) noreturn nounwind

define internal fastcc void @_ZN14for_loop_testsILi23EiE7do_testEPKiPKc() nounwind {
entry:
  %result.i37 = alloca i32, align 4               ; <i32*> [#uses=5]
  %result.i7 = alloca i32, align 4                ; <i32*> [#uses=5]
  %result.i = alloca i32, align 4                 ; <i32*> [#uses=5]
  %0 = tail call i32 @clock() nounwind            ; <i32> [#uses=1]
  store i32 %0, i32* @start_time, align 4
  %1 = load i32* @iterations, align 4             ; <i32> [#uses=1]
  %2 = icmp sgt i32 %1, 0                         ; <i1> [#uses=1]
  br i1 %2, label %bb2.preheader.i.i, label %bb7.i.i

bb1.i.i:                                          ; preds = %bb2.preheader.i.i, %bb1.i.i
  %n.03.i.i = phi i32 [ 0, %bb2.preheader.i.i ], [ %6, %bb1.i.i ] ; <i32> [#uses=2]
  %result.12.i.i = phi i32 [ 0, %bb2.preheader.i.i ], [ %5, %bb1.i.i ] ; <i32> [#uses=1]
  %scevgep.i.i = getelementptr [8000 x i32]* @data32, i32 0, i32 %n.03.i.i ; <i32*> [#uses=1]
  %3 = load i32* %scevgep.i.i, align 4            ; <i32> [#uses=1]
  %tmp3.i.i.i.i = mul i32 %3, 269850533           ; <i32> [#uses=1]
  %4 = add i32 %result.12.i.i, -1138325064        ; <i32> [#uses=1]
  %5 = add nsw i32 %4, %tmp3.i.i.i.i              ; <i32> [#uses=2]
  %6 = add nsw i32 %n.03.i.i, 1                   ; <i32> [#uses=2]
  %exitcond.i.i = icmp eq i32 %6, 8000            ; <i1> [#uses=1]
  br i1 %exitcond.i.i, label %bb4.preheader.i.i, label %bb1.i.i

bb4.preheader.i.i:                                ; preds = %bb1.i.i
  %7 = load double* @init_value, align 8          ; <double> [#uses=1]
  %8 = fptosi double %7 to i32                    ; <i32> [#uses=1]
  %tmp.i.i.i = mul i32 %8, -1564285888            ; <i32> [#uses=1]
  %9 = add i32 %tmp.i.i.i, -1269844480            ; <i32> [#uses=1]
  %10 = icmp eq i32 %9, %5                        ; <i1> [#uses=1]
  br i1 %10, label %_Z9check_sumIiEvT_.exit.i.i, label %bb.i1.i.i

bb.i1.i.i:                                        ; preds = %bb4.preheader.i.i
  %11 = load i32* @current_test, align 4          ; <i32> [#uses=1]
  %12 = tail call i32 (i8*, ...)* @printf(i8* noalias getelementptr inbounds ([16 x i8]* @.str, i32 0, i32 0), i32 %11) nounwind ; <i32> [#uses=0]
  br label %_Z9check_sumIiEvT_.exit.i.i

_Z9check_sumIiEvT_.exit.i.i:                      ; preds = %bb.i1.i.i, %bb4.preheader.i.i
  %13 = load i32* @iterations, align 4            ; <i32> [#uses=1]
  %14 = icmp slt i32 %tmp18.i.i, %13              ; <i1> [#uses=1]
  br i1 %14, label %bb2.preheader.i.i, label %bb7.i.i

bb2.preheader.i.i:                                ; preds = %_Z9check_sumIiEvT_.exit.i.i, %entry
  %i.010.i.i = phi i32 [ %tmp18.i.i, %_Z9check_sumIiEvT_.exit.i.i ], [ 0, %entry ] ; <i32> [#uses=1]
  %tmp18.i.i = add i32 %i.010.i.i, 1              ; <i32> [#uses=2]
  br label %bb1.i.i

bb7.i.i:                                          ; preds = %_Z9check_sumIiEvT_.exit.i.i, %entry
  %15 = tail call i32 @clock() nounwind           ; <i32> [#uses=1]
  %16 = load i32* @start_time, align 4            ; <i32> [#uses=1]
  %17 = sub i32 %15, %16                          ; <i32> [#uses=1]
  %18 = sitofp i32 %17 to double                  ; <double> [#uses=1]
  %19 = fdiv double %18, 1.000000e+06             ; <double> [#uses=1]
  %20 = load %struct.one_result** @results, align 4 ; <%struct.one_result*> [#uses=3]
  %21 = icmp eq %struct.one_result* %20, null     ; <i1> [#uses=1]
  br i1 %21, label %bb1.i.i.i, label %bb.i.i.i

bb.i.i.i:                                         ; preds = %bb7.i.i
  %22 = load i32* @current_test, align 4          ; <i32> [#uses=1]
  %23 = load i32* @allocated_results, align 4     ; <i32> [#uses=1]
  %24 = icmp slt i32 %22, %23                     ; <i1> [#uses=1]
  br i1 %24, label %_Z27test_for_loop_unroll_factorILi1EiEvPKT0_iPKc.exit.i, label %bb1.i.i.i

bb1.i.i.i:                                        ; preds = %bb.i.i.i, %bb7.i.i
  %25 = load i32* @allocated_results, align 4     ; <i32> [#uses=1]
  %26 = add nsw i32 %25, 10                       ; <i32> [#uses=2]
  store i32 %26, i32* @allocated_results, align 4
  %27 = mul i32 %26, 12                           ; <i32> [#uses=1]
  %28 = bitcast %struct.one_result* %20 to i8*    ; <i8*> [#uses=1]
  %29 = tail call i8* @realloc(i8* %28, i32 %27) nounwind ; <i8*> [#uses=2]
  %30 = bitcast i8* %29 to %struct.one_result*    ; <%struct.one_result*> [#uses=2]
  store %struct.one_result* %30, %struct.one_result** @results, align 4
  %31 = icmp eq i8* %29, null                     ; <i1> [#uses=1]
  br i1 %31, label %bb2.i.i.i, label %_Z27test_for_loop_unroll_factorILi1EiEvPKT0_iPKc.exit.i

bb2.i.i.i:                                        ; preds = %bb1.i.i.i
  %32 = load i32* @allocated_results, align 4     ; <i32> [#uses=1]
  %33 = tail call i32 (i8*, ...)* @printf(i8* noalias getelementptr inbounds ([31 x i8]* @.str11, i32 0, i32 0), i32 %32) nounwind ; <i32> [#uses=0]
  tail call void @exit(i32 -1) noreturn nounwind
  unreachable

_Z27test_for_loop_unroll_factorILi1EiEvPKT0_iPKc.exit.i: ; preds = %bb1.i.i.i, %bb.i.i.i
  %34 = phi %struct.one_result* [ %20, %bb.i.i.i ], [ %30, %bb1.i.i.i ] ; <%struct.one_result*> [#uses=2]
  %35 = load i32* @current_test, align 4          ; <i32> [#uses=3]
  %36 = getelementptr inbounds %struct.one_result* %34, i32 %35, i32 0 ; <double*> [#uses=1]
  store double %19, double* %36, align 4
  %37 = getelementptr inbounds %struct.one_result* %34, i32 %35, i32 1 ; <i8**> [#uses=1]
  store i8* getelementptr inbounds ([32 x [100 x i8]]* @temp_string, i32 0, i32 0, i32 0), i8** %37, align 4
  %38 = add nsw i32 %35, 1                        ; <i32> [#uses=1]
  store i32 %38, i32* @current_test, align 4
  %39 = tail call i32 @clock() nounwind           ; <i32> [#uses=1]
  store i32 %39, i32* @start_time, align 4
  %40 = load i32* @iterations, align 4            ; <i32> [#uses=1]
  %41 = icmp sgt i32 %40, 0                       ; <i1> [#uses=1]
  br i1 %41, label %bb2.preheader.i364.i, label %bb7.i365.i

bb1.i347.i:                                       ; preds = %bb2.preheader.i364.i, %bb1.i347.i
  %indvar.i340.i = phi i32 [ 0, %bb2.preheader.i364.i ], [ %indvar.next.i346.i, %bb1.i347.i ] ; <i32> [#uses=2]
  %result.13.i.i = phi i32 [ 0, %bb2.preheader.i364.i ], [ %45, %bb1.i347.i ] ; <i32> [#uses=1]
  %tmp14.i341.i = shl i32 %indvar.i340.i, 1       ; <i32> [#uses=4]
  %scevgep.i342.i = getelementptr [8000 x i32]* @data32, i32 0, i32 %tmp14.i341.i ; <i32*> [#uses=1]
  %tmp1526.i.i = or i32 %tmp14.i341.i, 1          ; <i32> [#uses=1]
  %scevgep16.i.i = getelementptr [8000 x i32]* @data32, i32 0, i32 %tmp1526.i.i ; <i32*> [#uses=1]
  %tmp17.i343.i = add i32 %tmp14.i341.i, 2        ; <i32> [#uses=3]
  %42 = load i32* %scevgep.i342.i, align 8        ; <i32> [#uses=1]
  %43 = load i32* %scevgep16.i.i, align 4         ; <i32> [#uses=1]
  %tmp.i344.i = add i32 %43, %42                  ; <i32> [#uses=1]
  %tmp2.i345.i = mul i32 %tmp.i344.i, 269850533   ; <i32> [#uses=1]
  %44 = add nsw i32 %result.13.i.i, 2018317168    ; <i32> [#uses=1]
  %45 = add nsw i32 %44, %tmp2.i345.i             ; <i32> [#uses=3]
  %46 = icmp slt i32 %tmp17.i343.i, 7999          ; <i1> [#uses=1]
  %indvar.next.i346.i = add i32 %indvar.i340.i, 1 ; <i32> [#uses=1]
  br i1 %46, label %bb1.i347.i, label %bb4.preheader.i350.i

bb4.preheader.i350.i:                             ; preds = %bb1.i347.i
  %47 = icmp slt i32 %tmp17.i343.i, 8000          ; <i1> [#uses=1]
  br i1 %47, label %bb.nph9.i.i, label %bb5.i359.i

bb.nph9.i.i:                                      ; preds = %bb4.preheader.i350.i
  %tmp22.i351.i = sub i32 7998, %tmp14.i341.i     ; <i32> [#uses=1]
  br label %bb3.i356.i

bb3.i356.i:                                       ; preds = %bb3.i356.i, %bb.nph9.i.i
  %indvar19.i.i = phi i32 [ 0, %bb.nph9.i.i ], [ %indvar.next20.i.i, %bb3.i356.i ] ; <i32> [#uses=2]
  %result.07.i.i = phi i32 [ %45, %bb.nph9.i.i ], [ %50, %bb3.i356.i ] ; <i32> [#uses=1]
  %tmp23.i352.i = add i32 %indvar19.i.i, %tmp17.i343.i ; <i32> [#uses=1]
  %scevgep24.i353.i = getelementptr [8000 x i32]* @data32, i32 0, i32 %tmp23.i352.i ; <i32*> [#uses=1]
  %48 = load i32* %scevgep24.i353.i, align 4      ; <i32> [#uses=1]
  %tmp3.i.i354.i = mul i32 %48, 269850533         ; <i32> [#uses=1]
  %49 = add i32 %result.07.i.i, -1138325064       ; <i32> [#uses=1]
  %50 = add nsw i32 %49, %tmp3.i.i354.i           ; <i32> [#uses=2]
  %indvar.next20.i.i = add i32 %indvar19.i.i, 1   ; <i32> [#uses=2]
  %exitcond.i355.i = icmp eq i32 %indvar.next20.i.i, %tmp22.i351.i ; <i1> [#uses=1]
  br i1 %exitcond.i355.i, label %bb5.i359.i, label %bb3.i356.i

bb5.i359.i:                                       ; preds = %bb3.i356.i, %bb4.preheader.i350.i
  %result.0.lcssa.i357.i = phi i32 [ %45, %bb4.preheader.i350.i ], [ %50, %bb3.i356.i ] ; <i32> [#uses=1]
  %51 = load double* @init_value, align 8         ; <double> [#uses=1]
  %52 = fptosi double %51 to i32                  ; <i32> [#uses=1]
  %tmp.i.i358.i = mul i32 %52, -1564285888        ; <i32> [#uses=1]
  %53 = add i32 %tmp.i.i358.i, -1269844480        ; <i32> [#uses=1]
  %54 = icmp eq i32 %53, %result.0.lcssa.i357.i   ; <i1> [#uses=1]
  br i1 %54, label %_Z9check_sumIiEvT_.exit.i361.i, label %bb.i1.i360.i

bb.i1.i360.i:                                     ; preds = %bb5.i359.i
  %55 = load i32* @current_test, align 4          ; <i32> [#uses=1]
  %56 = tail call i32 (i8*, ...)* @printf(i8* noalias getelementptr inbounds ([16 x i8]* @.str, i32 0, i32 0), i32 %55) nounwind ; <i32> [#uses=0]
  br label %_Z9check_sumIiEvT_.exit.i361.i

_Z9check_sumIiEvT_.exit.i361.i:                   ; preds = %bb.i1.i360.i, %bb5.i359.i
  %57 = load i32* @iterations, align 4            ; <i32> [#uses=1]
  %58 = icmp slt i32 %tmp25.i363.i, %57           ; <i1> [#uses=1]
  br i1 %58, label %bb2.preheader.i364.i, label %bb7.i365.i

bb2.preheader.i364.i:                             ; preds = %_Z9check_sumIiEvT_.exit.i361.i, %_Z27test_for_loop_unroll_factorILi1EiEvPKT0_iPKc.exit.i
  %i.011.i.i = phi i32 [ %tmp25.i363.i, %_Z9check_sumIiEvT_.exit.i361.i ], [ 0, %_Z27test_for_loop_unroll_factorILi1EiEvPKT0_iPKc.exit.i ] ; <i32> [#uses=1]
  %tmp25.i363.i = add i32 %i.011.i.i, 1           ; <i32> [#uses=2]
  br label %bb1.i347.i

bb7.i365.i:                                       ; preds = %_Z9check_sumIiEvT_.exit.i361.i, %_Z27test_for_loop_unroll_factorILi1EiEvPKT0_iPKc.exit.i
  %59 = tail call i32 @clock() nounwind           ; <i32> [#uses=1]
  %60 = load i32* @start_time, align 4            ; <i32> [#uses=1]
  %61 = sub i32 %59, %60                          ; <i32> [#uses=1]
  %62 = sitofp i32 %61 to double                  ; <double> [#uses=1]
  %63 = fdiv double %62, 1.000000e+06             ; <double> [#uses=1]
  %64 = load %struct.one_result** @results, align 4 ; <%struct.one_result*> [#uses=3]
  %65 = icmp eq %struct.one_result* %64, null     ; <i1> [#uses=1]
  br i1 %65, label %bb1.i.i367.i, label %bb.i.i366.i

bb.i.i366.i:                                      ; preds = %bb7.i365.i
  %66 = load i32* @current_test, align 4          ; <i32> [#uses=1]
  %67 = load i32* @allocated_results, align 4     ; <i32> [#uses=1]
  %68 = icmp slt i32 %66, %67                     ; <i1> [#uses=1]
  br i1 %68, label %_Z27test_for_loop_unroll_factorILi2EiEvPKT0_iPKc.exit.i, label %bb1.i.i367.i

bb1.i.i367.i:                                     ; preds = %bb.i.i366.i, %bb7.i365.i
  %69 = load i32* @allocated_results, align 4     ; <i32> [#uses=1]
  %70 = add nsw i32 %69, 10                       ; <i32> [#uses=2]
  store i32 %70, i32* @allocated_results, align 4
  %71 = mul i32 %70, 12                           ; <i32> [#uses=1]
  %72 = bitcast %struct.one_result* %64 to i8*    ; <i8*> [#uses=1]
  %73 = tail call i8* @realloc(i8* %72, i32 %71) nounwind ; <i8*> [#uses=2]
  %74 = bitcast i8* %73 to %struct.one_result*    ; <%struct.one_result*> [#uses=2]
  store %struct.one_result* %74, %struct.one_result** @results, align 4
  %75 = icmp eq i8* %73, null                     ; <i1> [#uses=1]
  br i1 %75, label %bb2.i.i368.i, label %_Z27test_for_loop_unroll_factorILi2EiEvPKT0_iPKc.exit.i

bb2.i.i368.i:                                     ; preds = %bb1.i.i367.i
  %76 = load i32* @allocated_results, align 4     ; <i32> [#uses=1]
  %77 = tail call i32 (i8*, ...)* @printf(i8* noalias getelementptr inbounds ([31 x i8]* @.str11, i32 0, i32 0), i32 %76) nounwind ; <i32> [#uses=0]
  tail call void @exit(i32 -1) noreturn nounwind
  unreachable

_Z27test_for_loop_unroll_factorILi2EiEvPKT0_iPKc.exit.i: ; preds = %bb1.i.i367.i, %bb.i.i366.i
  %78 = phi %struct.one_result* [ %64, %bb.i.i366.i ], [ %74, %bb1.i.i367.i ] ; <%struct.one_result*> [#uses=2]
  %79 = load i32* @current_test, align 4          ; <i32> [#uses=3]
  %80 = getelementptr inbounds %struct.one_result* %78, i32 %79, i32 0 ; <double*> [#uses=1]
  store double %63, double* %80, align 4
  %81 = getelementptr inbounds %struct.one_result* %78, i32 %79, i32 1 ; <i8**> [#uses=1]
  store i8* getelementptr inbounds ([32 x [100 x i8]]* @temp_string, i32 0, i32 1, i32 0), i8** %81, align 4
  %82 = add nsw i32 %79, 1                        ; <i32> [#uses=1]
  store i32 %82, i32* @current_test, align 4
  %83 = tail call i32 @clock() nounwind           ; <i32> [#uses=1]
  store i32 %83, i32* @start_time, align 4
  %84 = load i32* @iterations, align 4            ; <i32> [#uses=1]
  %85 = icmp sgt i32 %84, 0                       ; <i1> [#uses=1]
  br i1 %85, label %bb2.preheader.i335.i, label %bb7.i336.i

bb1.i318.i:                                       ; preds = %bb2.preheader.i335.i, %bb1.i318.i
  %indvar.i308.i = phi i32 [ 0, %bb2.preheader.i335.i ], [ %indvar.next.i317.i, %bb1.i318.i ] ; <i32> [#uses=2]
  %result.14.i.i = phi i32 [ 0, %bb2.preheader.i335.i ], [ %90, %bb1.i318.i ] ; <i32> [#uses=1]
  %tmp15.i.i = mul i32 %indvar.i308.i, 3          ; <i32> [#uses=5]
  %scevgep.i309.i = getelementptr [8000 x i32]* @data32, i32 0, i32 %tmp15.i.i ; <i32*> [#uses=1]
  %tmp16.i310.i = add i32 %tmp15.i.i, 1           ; <i32> [#uses=1]
  %scevgep17.i.i = getelementptr [8000 x i32]* @data32, i32 0, i32 %tmp16.i310.i ; <i32*> [#uses=1]
  %tmp18.i311.i = add i32 %tmp15.i.i, 2           ; <i32> [#uses=1]
  %scevgep19.i312.i = getelementptr [8000 x i32]* @data32, i32 0, i32 %tmp18.i311.i ; <i32*> [#uses=1]
  %tmp20.i313.i = add i32 %tmp15.i.i, 3           ; <i32> [#uses=3]
  %86 = load i32* %scevgep.i309.i, align 4        ; <i32> [#uses=1]
  %87 = load i32* %scevgep17.i.i, align 4         ; <i32> [#uses=1]
  %88 = load i32* %scevgep19.i312.i, align 4      ; <i32> [#uses=1]
  %tmp.i314.i = add i32 %87, %86                  ; <i32> [#uses=1]
  %tmp2.i315.i = add i32 %tmp.i314.i, %88         ; <i32> [#uses=1]
  %tmp3.i316.i = mul i32 %tmp2.i315.i, 269850533  ; <i32> [#uses=1]
  %89 = add i32 %result.14.i.i, 879992104         ; <i32> [#uses=1]
  %90 = add nsw i32 %89, %tmp3.i316.i             ; <i32> [#uses=3]
  %91 = icmp slt i32 %tmp20.i313.i, 7998          ; <i1> [#uses=1]
  %indvar.next.i317.i = add i32 %indvar.i308.i, 1 ; <i32> [#uses=1]
  br i1 %91, label %bb1.i318.i, label %bb4.preheader.i321.i

bb4.preheader.i321.i:                             ; preds = %bb1.i318.i
  %92 = icmp slt i32 %tmp20.i313.i, 8000          ; <i1> [#uses=1]
  br i1 %92, label %bb.nph10.i.i, label %bb5.i330.i

bb.nph10.i.i:                                     ; preds = %bb4.preheader.i321.i
  %tmp25.i322.i = sub i32 7997, %tmp15.i.i        ; <i32> [#uses=1]
  br label %bb3.i327.i

bb3.i327.i:                                       ; preds = %bb3.i327.i, %bb.nph10.i.i
  %indvar22.i.i = phi i32 [ 0, %bb.nph10.i.i ], [ %indvar.next23.i.i, %bb3.i327.i ] ; <i32> [#uses=2]
  %result.08.i.i = phi i32 [ %90, %bb.nph10.i.i ], [ %95, %bb3.i327.i ] ; <i32> [#uses=1]
  %tmp26.i323.i = add i32 %indvar22.i.i, %tmp20.i313.i ; <i32> [#uses=1]
  %scevgep27.i324.i = getelementptr [8000 x i32]* @data32, i32 0, i32 %tmp26.i323.i ; <i32*> [#uses=1]
  %93 = load i32* %scevgep27.i324.i, align 4      ; <i32> [#uses=1]
  %tmp3.i.i325.i = mul i32 %93, 269850533         ; <i32> [#uses=1]
  %94 = add i32 %result.08.i.i, -1138325064       ; <i32> [#uses=1]
  %95 = add nsw i32 %94, %tmp3.i.i325.i           ; <i32> [#uses=2]
  %indvar.next23.i.i = add i32 %indvar22.i.i, 1   ; <i32> [#uses=2]
  %exitcond.i326.i = icmp eq i32 %indvar.next23.i.i, %tmp25.i322.i ; <i1> [#uses=1]
  br i1 %exitcond.i326.i, label %bb5.i330.i, label %bb3.i327.i

bb5.i330.i:                                       ; preds = %bb3.i327.i, %bb4.preheader.i321.i
  %result.0.lcssa.i328.i = phi i32 [ %90, %bb4.preheader.i321.i ], [ %95, %bb3.i327.i ] ; <i32> [#uses=1]
  %96 = load double* @init_value, align 8         ; <double> [#uses=1]
  %97 = fptosi double %96 to i32                  ; <i32> [#uses=1]
  %tmp.i.i329.i = mul i32 %97, -1564285888        ; <i32> [#uses=1]
  %98 = add i32 %tmp.i.i329.i, -1269844480        ; <i32> [#uses=1]
  %99 = icmp eq i32 %98, %result.0.lcssa.i328.i   ; <i1> [#uses=1]
  br i1 %99, label %_Z9check_sumIiEvT_.exit.i332.i, label %bb.i1.i331.i

bb.i1.i331.i:                                     ; preds = %bb5.i330.i
  %100 = load i32* @current_test, align 4         ; <i32> [#uses=1]
  %101 = tail call i32 (i8*, ...)* @printf(i8* noalias getelementptr inbounds ([16 x i8]* @.str, i32 0, i32 0), i32 %100) nounwind ; <i32> [#uses=0]
  br label %_Z9check_sumIiEvT_.exit.i332.i

_Z9check_sumIiEvT_.exit.i332.i:                   ; preds = %bb.i1.i331.i, %bb5.i330.i
  %102 = load i32* @iterations, align 4           ; <i32> [#uses=1]
  %103 = icmp slt i32 %tmp28.i334.i, %102         ; <i1> [#uses=1]
  br i1 %103, label %bb2.preheader.i335.i, label %bb7.i336.i

bb2.preheader.i335.i:                             ; preds = %_Z9check_sumIiEvT_.exit.i332.i, %_Z27test_for_loop_unroll_factorILi2EiEvPKT0_iPKc.exit.i
  %i.012.i.i = phi i32 [ %tmp28.i334.i, %_Z9check_sumIiEvT_.exit.i332.i ], [ 0, %_Z27test_for_loop_unroll_factorILi2EiEvPKT0_iPKc.exit.i ] ; <i32> [#uses=1]
  %tmp28.i334.i = add i32 %i.012.i.i, 1           ; <i32> [#uses=2]
  br label %bb1.i318.i

bb7.i336.i:                                       ; preds = %_Z9check_sumIiEvT_.exit.i332.i, %_Z27test_for_loop_unroll_factorILi2EiEvPKT0_iPKc.exit.i
  %104 = tail call i32 @clock() nounwind          ; <i32> [#uses=1]
  %105 = load i32* @start_time, align 4           ; <i32> [#uses=1]
  %106 = sub i32 %104, %105                       ; <i32> [#uses=1]
  %107 = sitofp i32 %106 to double                ; <double> [#uses=1]
  %108 = fdiv double %107, 1.000000e+06           ; <double> [#uses=1]
  %109 = load %struct.one_result** @results, align 4 ; <%struct.one_result*> [#uses=3]
  %110 = icmp eq %struct.one_result* %109, null   ; <i1> [#uses=1]
  br i1 %110, label %bb1.i.i338.i, label %bb.i.i337.i

bb.i.i337.i:                                      ; preds = %bb7.i336.i
  %111 = load i32* @current_test, align 4         ; <i32> [#uses=1]
  %112 = load i32* @allocated_results, align 4    ; <i32> [#uses=1]
  %113 = icmp slt i32 %111, %112                  ; <i1> [#uses=1]
  br i1 %113, label %_Z27test_for_loop_unroll_factorILi3EiEvPKT0_iPKc.exit.i, label %bb1.i.i338.i

bb1.i.i338.i:                                     ; preds = %bb.i.i337.i, %bb7.i336.i
  %114 = load i32* @allocated_results, align 4    ; <i32> [#uses=1]
  %115 = add nsw i32 %114, 10                     ; <i32> [#uses=2]
  store i32 %115, i32* @allocated_results, align 4
  %116 = mul i32 %115, 12                         ; <i32> [#uses=1]
  %117 = bitcast %struct.one_result* %109 to i8*  ; <i8*> [#uses=1]
  %118 = tail call i8* @realloc(i8* %117, i32 %116) nounwind ; <i8*> [#uses=2]
  %119 = bitcast i8* %118 to %struct.one_result*  ; <%struct.one_result*> [#uses=2]
  store %struct.one_result* %119, %struct.one_result** @results, align 4
  %120 = icmp eq i8* %118, null                   ; <i1> [#uses=1]
  br i1 %120, label %bb2.i.i339.i, label %_Z27test_for_loop_unroll_factorILi3EiEvPKT0_iPKc.exit.i

bb2.i.i339.i:                                     ; preds = %bb1.i.i338.i
  %121 = load i32* @allocated_results, align 4    ; <i32> [#uses=1]
  %122 = tail call i32 (i8*, ...)* @printf(i8* noalias getelementptr inbounds ([31 x i8]* @.str11, i32 0, i32 0), i32 %121) nounwind ; <i32> [#uses=0]
  tail call void @exit(i32 -1) noreturn nounwind
  unreachable

_Z27test_for_loop_unroll_factorILi3EiEvPKT0_iPKc.exit.i: ; preds = %bb1.i.i338.i, %bb.i.i337.i
  %123 = phi %struct.one_result* [ %109, %bb.i.i337.i ], [ %119, %bb1.i.i338.i ] ; <%struct.one_result*> [#uses=2]
  %124 = load i32* @current_test, align 4         ; <i32> [#uses=3]
  %125 = getelementptr inbounds %struct.one_result* %123, i32 %124, i32 0 ; <double*> [#uses=1]
  store double %108, double* %125, align 4
  %126 = getelementptr inbounds %struct.one_result* %123, i32 %124, i32 1 ; <i8**> [#uses=1]
  store i8* getelementptr inbounds ([32 x [100 x i8]]* @temp_string, i32 0, i32 2, i32 0), i8** %126, align 4
  %127 = add nsw i32 %124, 1                      ; <i32> [#uses=1]
  store i32 %127, i32* @current_test, align 4
  %128 = tail call i32 @clock() nounwind          ; <i32> [#uses=1]
  store i32 %128, i32* @start_time, align 4
  %129 = load i32* @iterations, align 4           ; <i32> [#uses=1]
  %130 = icmp sgt i32 %129, 0                     ; <i1> [#uses=1]
  br i1 %130, label %bb2.preheader.i303.i, label %bb7.i304.i

bb1.i285.i:                                       ; preds = %bb2.preheader.i303.i, %bb1.i285.i
  %indvar.i274.i = phi i32 [ 0, %bb2.preheader.i303.i ], [ %indvar.next.i284.i, %bb1.i285.i ] ; <i32> [#uses=2]
  %result.15.i.i = phi i32 [ 0, %bb2.preheader.i303.i ], [ %136, %bb1.i285.i ] ; <i32> [#uses=1]
  %tmp16.i275.i = shl i32 %indvar.i274.i, 2       ; <i32> [#uses=6]
  %scevgep.i276.i = getelementptr [8000 x i32]* @data32, i32 0, i32 %tmp16.i275.i ; <i32*> [#uses=1]
  %tmp1734.i.i = or i32 %tmp16.i275.i, 1          ; <i32> [#uses=1]
  %scevgep18.i.i = getelementptr [8000 x i32]* @data32, i32 0, i32 %tmp1734.i.i ; <i32*> [#uses=1]
  %tmp1933.i.i = or i32 %tmp16.i275.i, 2          ; <i32> [#uses=1]
  %scevgep20.i277.i = getelementptr [8000 x i32]* @data32, i32 0, i32 %tmp1933.i.i ; <i32*> [#uses=1]
  %tmp2132.i.i = or i32 %tmp16.i275.i, 3          ; <i32> [#uses=1]
  %scevgep22.i278.i = getelementptr [8000 x i32]* @data32, i32 0, i32 %tmp2132.i.i ; <i32*> [#uses=1]
  %tmp23.i279.i = add i32 %tmp16.i275.i, 4        ; <i32> [#uses=3]
  %131 = load i32* %scevgep.i276.i, align 16      ; <i32> [#uses=1]
  %132 = load i32* %scevgep18.i.i, align 4        ; <i32> [#uses=1]
  %133 = load i32* %scevgep20.i277.i, align 8     ; <i32> [#uses=1]
  %134 = load i32* %scevgep22.i278.i, align 4     ; <i32> [#uses=1]
  %tmp.i280.i = add i32 %132, %131                ; <i32> [#uses=1]
  %tmp2.i281.i = add i32 %tmp.i280.i, %133        ; <i32> [#uses=1]
  %tmp3.i282.i = add i32 %tmp2.i281.i, %134       ; <i32> [#uses=1]
  %tmp4.i283.i = mul i32 %tmp3.i282.i, 269850533  ; <i32> [#uses=1]
  %135 = add i32 %result.15.i.i, -258332960       ; <i32> [#uses=1]
  %136 = add nsw i32 %135, %tmp4.i283.i           ; <i32> [#uses=3]
  %137 = icmp slt i32 %tmp23.i279.i, 7997         ; <i1> [#uses=1]
  %indvar.next.i284.i = add i32 %indvar.i274.i, 1 ; <i32> [#uses=1]
  br i1 %137, label %bb1.i285.i, label %bb4.preheader.i288.i

bb4.preheader.i288.i:                             ; preds = %bb1.i285.i
  %138 = icmp slt i32 %tmp23.i279.i, 8000         ; <i1> [#uses=1]
  br i1 %138, label %bb.nph11.i290.i, label %bb5.i298.i

bb.nph11.i290.i:                                  ; preds = %bb4.preheader.i288.i
  %tmp28.i289.i = sub i32 7996, %tmp16.i275.i     ; <i32> [#uses=1]
  br label %bb3.i295.i

bb3.i295.i:                                       ; preds = %bb3.i295.i, %bb.nph11.i290.i
  %indvar25.i.i = phi i32 [ 0, %bb.nph11.i290.i ], [ %indvar.next26.i.i, %bb3.i295.i ] ; <i32> [#uses=2]
  %result.09.i.i = phi i32 [ %136, %bb.nph11.i290.i ], [ %141, %bb3.i295.i ] ; <i32> [#uses=1]
  %tmp29.i291.i = add i32 %indvar25.i.i, %tmp23.i279.i ; <i32> [#uses=1]
  %scevgep30.i292.i = getelementptr [8000 x i32]* @data32, i32 0, i32 %tmp29.i291.i ; <i32*> [#uses=1]
  %139 = load i32* %scevgep30.i292.i, align 4     ; <i32> [#uses=1]
  %tmp3.i.i293.i = mul i32 %139, 269850533        ; <i32> [#uses=1]
  %140 = add i32 %result.09.i.i, -1138325064      ; <i32> [#uses=1]
  %141 = add nsw i32 %140, %tmp3.i.i293.i         ; <i32> [#uses=2]
  %indvar.next26.i.i = add i32 %indvar25.i.i, 1   ; <i32> [#uses=2]
  %exitcond.i294.i = icmp eq i32 %indvar.next26.i.i, %tmp28.i289.i ; <i1> [#uses=1]
  br i1 %exitcond.i294.i, label %bb5.i298.i, label %bb3.i295.i

bb5.i298.i:                                       ; preds = %bb3.i295.i, %bb4.preheader.i288.i
  %result.0.lcssa.i296.i = phi i32 [ %136, %bb4.preheader.i288.i ], [ %141, %bb3.i295.i ] ; <i32> [#uses=1]
  %142 = load double* @init_value, align 8        ; <double> [#uses=1]
  %143 = fptosi double %142 to i32                ; <i32> [#uses=1]
  %tmp.i.i297.i = mul i32 %143, -1564285888       ; <i32> [#uses=1]
  %144 = add i32 %tmp.i.i297.i, -1269844480       ; <i32> [#uses=1]
  %145 = icmp eq i32 %144, %result.0.lcssa.i296.i ; <i1> [#uses=1]
  br i1 %145, label %_Z9check_sumIiEvT_.exit.i300.i, label %bb.i1.i299.i

bb.i1.i299.i:                                     ; preds = %bb5.i298.i
  %146 = load i32* @current_test, align 4         ; <i32> [#uses=1]
  %147 = tail call i32 (i8*, ...)* @printf(i8* noalias getelementptr inbounds ([16 x i8]* @.str, i32 0, i32 0), i32 %146) nounwind ; <i32> [#uses=0]
  br label %_Z9check_sumIiEvT_.exit.i300.i

_Z9check_sumIiEvT_.exit.i300.i:                   ; preds = %bb.i1.i299.i, %bb5.i298.i
  %148 = load i32* @iterations, align 4           ; <i32> [#uses=1]
  %149 = icmp slt i32 %tmp31.i302.i, %148         ; <i1> [#uses=1]
  br i1 %149, label %bb2.preheader.i303.i, label %bb7.i304.i

bb2.preheader.i303.i:                             ; preds = %_Z9check_sumIiEvT_.exit.i300.i, %_Z27test_for_loop_unroll_factorILi3EiEvPKT0_iPKc.exit.i
  %i.013.i.i = phi i32 [ %tmp31.i302.i, %_Z9check_sumIiEvT_.exit.i300.i ], [ 0, %_Z27test_for_loop_unroll_factorILi3EiEvPKT0_iPKc.exit.i ] ; <i32> [#uses=1]
  %tmp31.i302.i = add i32 %i.013.i.i, 1           ; <i32> [#uses=2]
  br label %bb1.i285.i

bb7.i304.i:                                       ; preds = %_Z9check_sumIiEvT_.exit.i300.i, %_Z27test_for_loop_unroll_factorILi3EiEvPKT0_iPKc.exit.i
  %150 = tail call i32 @clock() nounwind          ; <i32> [#uses=1]
  %151 = load i32* @start_time, align 4           ; <i32> [#uses=1]
  %152 = sub i32 %150, %151                       ; <i32> [#uses=1]
  %153 = sitofp i32 %152 to double                ; <double> [#uses=1]
  %154 = fdiv double %153, 1.000000e+06           ; <double> [#uses=1]
  %155 = load %struct.one_result** @results, align 4 ; <%struct.one_result*> [#uses=3]
  %156 = icmp eq %struct.one_result* %155, null   ; <i1> [#uses=1]
  br i1 %156, label %bb1.i.i306.i, label %bb.i.i305.i

bb.i.i305.i:                                      ; preds = %bb7.i304.i
  %157 = load i32* @current_test, align 4         ; <i32> [#uses=1]
  %158 = load i32* @allocated_results, align 4    ; <i32> [#uses=1]
  %159 = icmp slt i32 %157, %158                  ; <i1> [#uses=1]
  br i1 %159, label %_Z27test_for_loop_unroll_factorILi4EiEvPKT0_iPKc.exit.i, label %bb1.i.i306.i

bb1.i.i306.i:                                     ; preds = %bb.i.i305.i, %bb7.i304.i
  %160 = load i32* @allocated_results, align 4    ; <i32> [#uses=1]
  %161 = add nsw i32 %160, 10                     ; <i32> [#uses=2]
  store i32 %161, i32* @allocated_results, align 4
  %162 = mul i32 %161, 12                         ; <i32> [#uses=1]
  %163 = bitcast %struct.one_result* %155 to i8*  ; <i8*> [#uses=1]
  %164 = tail call i8* @realloc(i8* %163, i32 %162) nounwind ; <i8*> [#uses=2]
  %165 = bitcast i8* %164 to %struct.one_result*  ; <%struct.one_result*> [#uses=2]
  store %struct.one_result* %165, %struct.one_result** @results, align 4
  %166 = icmp eq i8* %164, null                   ; <i1> [#uses=1]
  br i1 %166, label %bb2.i.i307.i, label %_Z27test_for_loop_unroll_factorILi4EiEvPKT0_iPKc.exit.i

bb2.i.i307.i:                                     ; preds = %bb1.i.i306.i
  %167 = load i32* @allocated_results, align 4    ; <i32> [#uses=1]
  %168 = tail call i32 (i8*, ...)* @printf(i8* noalias getelementptr inbounds ([31 x i8]* @.str11, i32 0, i32 0), i32 %167) nounwind ; <i32> [#uses=0]
  tail call void @exit(i32 -1) noreturn nounwind
  unreachable

_Z27test_for_loop_unroll_factorILi4EiEvPKT0_iPKc.exit.i: ; preds = %bb1.i.i306.i, %bb.i.i305.i
  %169 = phi %struct.one_result* [ %155, %bb.i.i305.i ], [ %165, %bb1.i.i306.i ] ; <%struct.one_result*> [#uses=2]
  %170 = load i32* @current_test, align 4         ; <i32> [#uses=3]
  %171 = getelementptr inbounds %struct.one_result* %169, i32 %170, i32 0 ; <double*> [#uses=1]
  store double %154, double* %171, align 4
  %172 = getelementptr inbounds %struct.one_result* %169, i32 %170, i32 1 ; <i8**> [#uses=1]
  store i8* getelementptr inbounds ([32 x [100 x i8]]* @temp_string, i32 0, i32 3, i32 0), i8** %172, align 4
  %173 = add nsw i32 %170, 1                      ; <i32> [#uses=1]
  store i32 %173, i32* @current_test, align 4
  %174 = tail call i32 @clock() nounwind          ; <i32> [#uses=1]
  store i32 %174, i32* @start_time, align 4
  %175 = load i32* @iterations, align 4           ; <i32> [#uses=1]
  %176 = icmp sgt i32 %175, 0                     ; <i1> [#uses=1]
  br i1 %176, label %bb2.preheader.i269.i, label %bb7.i270.i

bb1.i252.i:                                       ; preds = %bb2.preheader.i269.i, %bb1.i252.i
  %indvar.i236.i = phi i32 [ 0, %bb2.preheader.i269.i ], [ %indvar.next.i251.i, %bb1.i252.i ] ; <i32> [#uses=2]
  %result.16.i.i = phi i32 [ 0, %bb2.preheader.i269.i ], [ %183, %bb1.i252.i ] ; <i32> [#uses=1]
  %tmp17.i.i = mul i32 %indvar.i236.i, 5          ; <i32> [#uses=7]
  %scevgep.i237.i = getelementptr [8000 x i32]* @data32, i32 0, i32 %tmp17.i.i ; <i32*> [#uses=1]
  %tmp18.i238.i = add i32 %tmp17.i.i, 1           ; <i32> [#uses=1]
  %scevgep19.i.i = getelementptr [8000 x i32]* @data32, i32 0, i32 %tmp18.i238.i ; <i32*> [#uses=1]
  %tmp20.i239.i = add i32 %tmp17.i.i, 2           ; <i32> [#uses=1]
  %scevgep21.i240.i = getelementptr [8000 x i32]* @data32, i32 0, i32 %tmp20.i239.i ; <i32*> [#uses=1]
  %tmp22.i241.i = add i32 %tmp17.i.i, 3           ; <i32> [#uses=1]
  %scevgep23.i242.i = getelementptr [8000 x i32]* @data32, i32 0, i32 %tmp22.i241.i ; <i32*> [#uses=1]
  %tmp24.i243.i = add i32 %tmp17.i.i, 4           ; <i32> [#uses=1]
  %scevgep25.i244.i = getelementptr [8000 x i32]* @data32, i32 0, i32 %tmp24.i243.i ; <i32*> [#uses=1]
  %tmp26.i245.i = add i32 %tmp17.i.i, 5           ; <i32> [#uses=3]
  %177 = load i32* %scevgep.i237.i, align 4       ; <i32> [#uses=1]
  %178 = load i32* %scevgep19.i.i, align 4        ; <i32> [#uses=1]
  %179 = load i32* %scevgep21.i240.i, align 4     ; <i32> [#uses=1]
  %180 = load i32* %scevgep23.i242.i, align 4     ; <i32> [#uses=1]
  %181 = load i32* %scevgep25.i244.i, align 4     ; <i32> [#uses=1]
  %tmp.i246.i = add i32 %178, %177                ; <i32> [#uses=1]
  %tmp2.i247.i = add i32 %tmp.i246.i, %179        ; <i32> [#uses=1]
  %tmp3.i248.i = add i32 %tmp2.i247.i, %180       ; <i32> [#uses=1]
  %tmp4.i249.i = add i32 %tmp3.i248.i, %181       ; <i32> [#uses=1]
  %tmp5.i250.i = mul i32 %tmp4.i249.i, 269850533  ; <i32> [#uses=1]
  %182 = add i32 %result.16.i.i, -1396658024      ; <i32> [#uses=1]
  %183 = add nsw i32 %182, %tmp5.i250.i           ; <i32> [#uses=3]
  %184 = icmp slt i32 %tmp26.i245.i, 7996         ; <i1> [#uses=1]
  %indvar.next.i251.i = add i32 %indvar.i236.i, 1 ; <i32> [#uses=1]
  br i1 %184, label %bb1.i252.i, label %bb4.preheader.i255.i

bb4.preheader.i255.i:                             ; preds = %bb1.i252.i
  %185 = icmp slt i32 %tmp26.i245.i, 8000         ; <i1> [#uses=1]
  br i1 %185, label %bb.nph12.i.i, label %bb5.i264.i

bb.nph12.i.i:                                     ; preds = %bb4.preheader.i255.i
  %tmp31.i256.i = sub i32 7995, %tmp17.i.i        ; <i32> [#uses=1]
  br label %bb3.i261.i

bb3.i261.i:                                       ; preds = %bb3.i261.i, %bb.nph12.i.i
  %indvar28.i.i = phi i32 [ 0, %bb.nph12.i.i ], [ %indvar.next29.i.i, %bb3.i261.i ] ; <i32> [#uses=2]
  %result.010.i.i = phi i32 [ %183, %bb.nph12.i.i ], [ %188, %bb3.i261.i ] ; <i32> [#uses=1]
  %tmp32.i257.i = add i32 %indvar28.i.i, %tmp26.i245.i ; <i32> [#uses=1]
  %scevgep33.i258.i = getelementptr [8000 x i32]* @data32, i32 0, i32 %tmp32.i257.i ; <i32*> [#uses=1]
  %186 = load i32* %scevgep33.i258.i, align 4     ; <i32> [#uses=1]
  %tmp3.i.i259.i = mul i32 %186, 269850533        ; <i32> [#uses=1]
  %187 = add i32 %result.010.i.i, -1138325064     ; <i32> [#uses=1]
  %188 = add nsw i32 %187, %tmp3.i.i259.i         ; <i32> [#uses=2]
  %indvar.next29.i.i = add i32 %indvar28.i.i, 1   ; <i32> [#uses=2]
  %exitcond.i260.i = icmp eq i32 %indvar.next29.i.i, %tmp31.i256.i ; <i1> [#uses=1]
  br i1 %exitcond.i260.i, label %bb5.i264.i, label %bb3.i261.i

bb5.i264.i:                                       ; preds = %bb3.i261.i, %bb4.preheader.i255.i
  %result.0.lcssa.i262.i = phi i32 [ %183, %bb4.preheader.i255.i ], [ %188, %bb3.i261.i ] ; <i32> [#uses=1]
  %189 = load double* @init_value, align 8        ; <double> [#uses=1]
  %190 = fptosi double %189 to i32                ; <i32> [#uses=1]
  %tmp.i.i263.i = mul i32 %190, -1564285888       ; <i32> [#uses=1]
  %191 = add i32 %tmp.i.i263.i, -1269844480       ; <i32> [#uses=1]
  %192 = icmp eq i32 %191, %result.0.lcssa.i262.i ; <i1> [#uses=1]
  br i1 %192, label %_Z9check_sumIiEvT_.exit.i266.i, label %bb.i1.i265.i

bb.i1.i265.i:                                     ; preds = %bb5.i264.i
  %193 = load i32* @current_test, align 4         ; <i32> [#uses=1]
  %194 = tail call i32 (i8*, ...)* @printf(i8* noalias getelementptr inbounds ([16 x i8]* @.str, i32 0, i32 0), i32 %193) nounwind ; <i32> [#uses=0]
  br label %_Z9check_sumIiEvT_.exit.i266.i

_Z9check_sumIiEvT_.exit.i266.i:                   ; preds = %bb.i1.i265.i, %bb5.i264.i
  %195 = load i32* @iterations, align 4           ; <i32> [#uses=1]
  %196 = icmp slt i32 %tmp34.i268.i, %195         ; <i1> [#uses=1]
  br i1 %196, label %bb2.preheader.i269.i, label %bb7.i270.i

bb2.preheader.i269.i:                             ; preds = %_Z9check_sumIiEvT_.exit.i266.i, %_Z27test_for_loop_unroll_factorILi4EiEvPKT0_iPKc.exit.i
  %i.014.i.i = phi i32 [ %tmp34.i268.i, %_Z9check_sumIiEvT_.exit.i266.i ], [ 0, %_Z27test_for_loop_unroll_factorILi4EiEvPKT0_iPKc.exit.i ] ; <i32> [#uses=1]
  %tmp34.i268.i = add i32 %i.014.i.i, 1           ; <i32> [#uses=2]
  br label %bb1.i252.i

bb7.i270.i:                                       ; preds = %_Z9check_sumIiEvT_.exit.i266.i, %_Z27test_for_loop_unroll_factorILi4EiEvPKT0_iPKc.exit.i
  %197 = tail call i32 @clock() nounwind          ; <i32> [#uses=1]
  %198 = load i32* @start_time, align 4           ; <i32> [#uses=1]
  %199 = sub i32 %197, %198                       ; <i32> [#uses=1]
  %200 = sitofp i32 %199 to double                ; <double> [#uses=1]
  %201 = fdiv double %200, 1.000000e+06           ; <double> [#uses=1]
  %202 = load %struct.one_result** @results, align 4 ; <%struct.one_result*> [#uses=3]
  %203 = icmp eq %struct.one_result* %202, null   ; <i1> [#uses=1]
  br i1 %203, label %bb1.i.i272.i, label %bb.i.i271.i

bb.i.i271.i:                                      ; preds = %bb7.i270.i
  %204 = load i32* @current_test, align 4         ; <i32> [#uses=1]
  %205 = load i32* @allocated_results, align 4    ; <i32> [#uses=1]
  %206 = icmp slt i32 %204, %205                  ; <i1> [#uses=1]
  br i1 %206, label %_Z27test_for_loop_unroll_factorILi5EiEvPKT0_iPKc.exit.i, label %bb1.i.i272.i

bb1.i.i272.i:                                     ; preds = %bb.i.i271.i, %bb7.i270.i
  %207 = load i32* @allocated_results, align 4    ; <i32> [#uses=1]
  %208 = add nsw i32 %207, 10                     ; <i32> [#uses=2]
  store i32 %208, i32* @allocated_results, align 4
  %209 = mul i32 %208, 12                         ; <i32> [#uses=1]
  %210 = bitcast %struct.one_result* %202 to i8*  ; <i8*> [#uses=1]
  %211 = tail call i8* @realloc(i8* %210, i32 %209) nounwind ; <i8*> [#uses=2]
  %212 = bitcast i8* %211 to %struct.one_result*  ; <%struct.one_result*> [#uses=2]
  store %struct.one_result* %212, %struct.one_result** @results, align 4
  %213 = icmp eq i8* %211, null                   ; <i1> [#uses=1]
  br i1 %213, label %bb2.i.i273.i, label %_Z27test_for_loop_unroll_factorILi5EiEvPKT0_iPKc.exit.i

bb2.i.i273.i:                                     ; preds = %bb1.i.i272.i
  %214 = load i32* @allocated_results, align 4    ; <i32> [#uses=1]
  %215 = tail call i32 (i8*, ...)* @printf(i8* noalias getelementptr inbounds ([31 x i8]* @.str11, i32 0, i32 0), i32 %214) nounwind ; <i32> [#uses=0]
  tail call void @exit(i32 -1) noreturn nounwind
  unreachable

_Z27test_for_loop_unroll_factorILi5EiEvPKT0_iPKc.exit.i: ; preds = %bb1.i.i272.i, %bb.i.i271.i
  %216 = phi %struct.one_result* [ %202, %bb.i.i271.i ], [ %212, %bb1.i.i272.i ] ; <%struct.one_result*> [#uses=2]
  %217 = load i32* @current_test, align 4         ; <i32> [#uses=3]
  %218 = getelementptr inbounds %struct.one_result* %216, i32 %217, i32 0 ; <double*> [#uses=1]
  store double %201, double* %218, align 4
  %219 = getelementptr inbounds %struct.one_result* %216, i32 %217, i32 1 ; <i8**> [#uses=1]
  store i8* getelementptr inbounds ([32 x [100 x i8]]* @temp_string, i32 0, i32 4, i32 0), i8** %219, align 4
  %220 = add nsw i32 %217, 1                      ; <i32> [#uses=1]
  store i32 %220, i32* @current_test, align 4
  %221 = tail call i32 @clock() nounwind          ; <i32> [#uses=1]
  store i32 %221, i32* @start_time, align 4
  %222 = load i32* @iterations, align 4           ; <i32> [#uses=1]
  %223 = icmp sgt i32 %222, 0                     ; <i1> [#uses=1]
  br i1 %223, label %bb2.preheader.i231.i, label %bb7.i232.i

bb1.i214.i:                                       ; preds = %bb2.preheader.i231.i, %bb1.i214.i
  %indvar.i195.i = phi i32 [ 0, %bb2.preheader.i231.i ], [ %indvar.next.i213.i, %bb1.i214.i ] ; <i32> [#uses=2]
  %result.17.i.i = phi i32 [ 0, %bb2.preheader.i231.i ], [ %231, %bb1.i214.i ] ; <i32> [#uses=1]
  %tmp18.i196.i = mul i32 %indvar.i195.i, 6       ; <i32> [#uses=8]
  %scevgep.i197.i = getelementptr [8000 x i32]* @data32, i32 0, i32 %tmp18.i196.i ; <i32*> [#uses=1]
  %tmp1938.i.i = or i32 %tmp18.i196.i, 1          ; <i32> [#uses=1]
  %scevgep20.i.i = getelementptr [8000 x i32]* @data32, i32 0, i32 %tmp1938.i.i ; <i32*> [#uses=1]
  %tmp21.i198.i = add i32 %tmp18.i196.i, 2        ; <i32> [#uses=1]
  %scevgep22.i199.i = getelementptr [8000 x i32]* @data32, i32 0, i32 %tmp21.i198.i ; <i32*> [#uses=1]
  %tmp23.i200.i = add i32 %tmp18.i196.i, 3        ; <i32> [#uses=1]
  %scevgep24.i201.i = getelementptr [8000 x i32]* @data32, i32 0, i32 %tmp23.i200.i ; <i32*> [#uses=1]
  %tmp25.i202.i = add i32 %tmp18.i196.i, 4        ; <i32> [#uses=1]
  %scevgep26.i203.i = getelementptr [8000 x i32]* @data32, i32 0, i32 %tmp25.i202.i ; <i32*> [#uses=1]
  %tmp27.i204.i = add i32 %tmp18.i196.i, 5        ; <i32> [#uses=1]
  %scevgep28.i205.i = getelementptr [8000 x i32]* @data32, i32 0, i32 %tmp27.i204.i ; <i32*> [#uses=1]
  %tmp29.i206.i = add i32 %tmp18.i196.i, 6        ; <i32> [#uses=3]
  %224 = load i32* %scevgep.i197.i, align 8       ; <i32> [#uses=1]
  %225 = load i32* %scevgep20.i.i, align 4        ; <i32> [#uses=1]
  %226 = load i32* %scevgep22.i199.i, align 8     ; <i32> [#uses=1]
  %227 = load i32* %scevgep24.i201.i, align 4     ; <i32> [#uses=1]
  %228 = load i32* %scevgep26.i203.i, align 8     ; <i32> [#uses=1]
  %229 = load i32* %scevgep28.i205.i, align 4     ; <i32> [#uses=1]
  %tmp.i207.i = add i32 %225, %224                ; <i32> [#uses=1]
  %tmp2.i208.i = add i32 %tmp.i207.i, %226        ; <i32> [#uses=1]
  %tmp3.i209.i = add i32 %tmp2.i208.i, %227       ; <i32> [#uses=1]
  %tmp4.i210.i = add i32 %tmp3.i209.i, %228       ; <i32> [#uses=1]
  %tmp5.i211.i = add i32 %tmp4.i210.i, %229       ; <i32> [#uses=1]
  %tmp6.i212.i = mul i32 %tmp5.i211.i, 269850533  ; <i32> [#uses=1]
  %230 = add i32 %result.17.i.i, 1759984208       ; <i32> [#uses=1]
  %231 = add nsw i32 %230, %tmp6.i212.i           ; <i32> [#uses=3]
  %232 = icmp slt i32 %tmp29.i206.i, 7995         ; <i1> [#uses=1]
  %indvar.next.i213.i = add i32 %indvar.i195.i, 1 ; <i32> [#uses=1]
  br i1 %232, label %bb1.i214.i, label %bb4.preheader.i217.i

bb4.preheader.i217.i:                             ; preds = %bb1.i214.i
  %233 = icmp slt i32 %tmp29.i206.i, 8000         ; <i1> [#uses=1]
  br i1 %233, label %bb.nph13.i.i, label %bb5.i226.i

bb.nph13.i.i:                                     ; preds = %bb4.preheader.i217.i
  %tmp34.i218.i = sub i32 7994, %tmp18.i196.i     ; <i32> [#uses=1]
  br label %bb3.i223.i

bb3.i223.i:                                       ; preds = %bb3.i223.i, %bb.nph13.i.i
  %indvar31.i.i = phi i32 [ 0, %bb.nph13.i.i ], [ %indvar.next32.i.i, %bb3.i223.i ] ; <i32> [#uses=2]
  %result.011.i.i = phi i32 [ %231, %bb.nph13.i.i ], [ %236, %bb3.i223.i ] ; <i32> [#uses=1]
  %tmp35.i219.i = add i32 %indvar31.i.i, %tmp29.i206.i ; <i32> [#uses=1]
  %scevgep36.i220.i = getelementptr [8000 x i32]* @data32, i32 0, i32 %tmp35.i219.i ; <i32*> [#uses=1]
  %234 = load i32* %scevgep36.i220.i, align 4     ; <i32> [#uses=1]
  %tmp3.i.i221.i = mul i32 %234, 269850533        ; <i32> [#uses=1]
  %235 = add i32 %result.011.i.i, -1138325064     ; <i32> [#uses=1]
  %236 = add nsw i32 %235, %tmp3.i.i221.i         ; <i32> [#uses=2]
  %indvar.next32.i.i = add i32 %indvar31.i.i, 1   ; <i32> [#uses=2]
  %exitcond.i222.i = icmp eq i32 %indvar.next32.i.i, %tmp34.i218.i ; <i1> [#uses=1]
  br i1 %exitcond.i222.i, label %bb5.i226.i, label %bb3.i223.i

bb5.i226.i:                                       ; preds = %bb3.i223.i, %bb4.preheader.i217.i
  %result.0.lcssa.i224.i = phi i32 [ %231, %bb4.preheader.i217.i ], [ %236, %bb3.i223.i ] ; <i32> [#uses=1]
  %237 = load double* @init_value, align 8        ; <double> [#uses=1]
  %238 = fptosi double %237 to i32                ; <i32> [#uses=1]
  %tmp.i.i225.i = mul i32 %238, -1564285888       ; <i32> [#uses=1]
  %239 = add i32 %tmp.i.i225.i, -1269844480       ; <i32> [#uses=1]
  %240 = icmp eq i32 %239, %result.0.lcssa.i224.i ; <i1> [#uses=1]
  br i1 %240, label %_Z9check_sumIiEvT_.exit.i228.i, label %bb.i1.i227.i

bb.i1.i227.i:                                     ; preds = %bb5.i226.i
  %241 = load i32* @current_test, align 4         ; <i32> [#uses=1]
  %242 = tail call i32 (i8*, ...)* @printf(i8* noalias getelementptr inbounds ([16 x i8]* @.str, i32 0, i32 0), i32 %241) nounwind ; <i32> [#uses=0]
  br label %_Z9check_sumIiEvT_.exit.i228.i

_Z9check_sumIiEvT_.exit.i228.i:                   ; preds = %bb.i1.i227.i, %bb5.i226.i
  %243 = load i32* @iterations, align 4           ; <i32> [#uses=1]
  %244 = icmp slt i32 %tmp37.i230.i, %243         ; <i1> [#uses=1]
  br i1 %244, label %bb2.preheader.i231.i, label %bb7.i232.i

bb2.preheader.i231.i:                             ; preds = %_Z9check_sumIiEvT_.exit.i228.i, %_Z27test_for_loop_unroll_factorILi5EiEvPKT0_iPKc.exit.i
  %i.015.i.i = phi i32 [ %tmp37.i230.i, %_Z9check_sumIiEvT_.exit.i228.i ], [ 0, %_Z27test_for_loop_unroll_factorILi5EiEvPKT0_iPKc.exit.i ] ; <i32> [#uses=1]
  %tmp37.i230.i = add i32 %i.015.i.i, 1           ; <i32> [#uses=2]
  br label %bb1.i214.i

bb7.i232.i:                                       ; preds = %_Z9check_sumIiEvT_.exit.i228.i, %_Z27test_for_loop_unroll_factorILi5EiEvPKT0_iPKc.exit.i
  %245 = tail call i32 @clock() nounwind          ; <i32> [#uses=1]
  %246 = load i32* @start_time, align 4           ; <i32> [#uses=1]
  %247 = sub i32 %245, %246                       ; <i32> [#uses=1]
  %248 = sitofp i32 %247 to double                ; <double> [#uses=1]
  %249 = fdiv double %248, 1.000000e+06           ; <double> [#uses=1]
  %250 = load %struct.one_result** @results, align 4 ; <%struct.one_result*> [#uses=3]
  %251 = icmp eq %struct.one_result* %250, null   ; <i1> [#uses=1]
  br i1 %251, label %bb1.i.i234.i, label %bb.i.i233.i

bb.i.i233.i:                                      ; preds = %bb7.i232.i
  %252 = load i32* @current_test, align 4         ; <i32> [#uses=1]
  %253 = load i32* @allocated_results, align 4    ; <i32> [#uses=1]
  %254 = icmp slt i32 %252, %253                  ; <i1> [#uses=1]
  br i1 %254, label %_Z27test_for_loop_unroll_factorILi6EiEvPKT0_iPKc.exit.i, label %bb1.i.i234.i

bb1.i.i234.i:                                     ; preds = %bb.i.i233.i, %bb7.i232.i
  %255 = load i32* @allocated_results, align 4    ; <i32> [#uses=1]
  %256 = add nsw i32 %255, 10                     ; <i32> [#uses=2]
  store i32 %256, i32* @allocated_results, align 4
  %257 = mul i32 %256, 12                         ; <i32> [#uses=1]
  %258 = bitcast %struct.one_result* %250 to i8*  ; <i8*> [#uses=1]
  %259 = tail call i8* @realloc(i8* %258, i32 %257) nounwind ; <i8*> [#uses=2]
  %260 = bitcast i8* %259 to %struct.one_result*  ; <%struct.one_result*> [#uses=2]
  store %struct.one_result* %260, %struct.one_result** @results, align 4
  %261 = icmp eq i8* %259, null                   ; <i1> [#uses=1]
  br i1 %261, label %bb2.i.i235.i, label %_Z27test_for_loop_unroll_factorILi6EiEvPKT0_iPKc.exit.i

bb2.i.i235.i:                                     ; preds = %bb1.i.i234.i
  %262 = load i32* @allocated_results, align 4    ; <i32> [#uses=1]
  %263 = tail call i32 (i8*, ...)* @printf(i8* noalias getelementptr inbounds ([31 x i8]* @.str11, i32 0, i32 0), i32 %262) nounwind ; <i32> [#uses=0]
  tail call void @exit(i32 -1) noreturn nounwind
  unreachable

_Z27test_for_loop_unroll_factorILi6EiEvPKT0_iPKc.exit.i: ; preds = %bb1.i.i234.i, %bb.i.i233.i
  %264 = phi %struct.one_result* [ %250, %bb.i.i233.i ], [ %260, %bb1.i.i234.i ] ; <%struct.one_result*> [#uses=2]
  %265 = load i32* @current_test, align 4         ; <i32> [#uses=3]
  %266 = getelementptr inbounds %struct.one_result* %264, i32 %265, i32 0 ; <double*> [#uses=1]
  store double %249, double* %266, align 4
  %267 = getelementptr inbounds %struct.one_result* %264, i32 %265, i32 1 ; <i8**> [#uses=1]
  store i8* getelementptr inbounds ([32 x [100 x i8]]* @temp_string, i32 0, i32 5, i32 0), i8** %267, align 4
  %268 = add nsw i32 %265, 1                      ; <i32> [#uses=1]
  store i32 %268, i32* @current_test, align 4
  %269 = tail call i32 @clock() nounwind          ; <i32> [#uses=1]
  store i32 %269, i32* @start_time, align 4
  %270 = load i32* @iterations, align 4           ; <i32> [#uses=1]
  %271 = icmp sgt i32 %270, 0                     ; <i1> [#uses=1]
  br i1 %271, label %bb2.preheader.i190.i, label %bb7.i191.i

bb1.i173.i:                                       ; preds = %bb2.preheader.i190.i, %bb1.i173.i
  %indvar.i151.i = phi i32 [ 0, %bb2.preheader.i190.i ], [ %indvar.next.i172.i, %bb1.i173.i ] ; <i32> [#uses=2]
  %result.18.i.i = phi i32 [ 0, %bb2.preheader.i190.i ], [ %280, %bb1.i173.i ] ; <i32> [#uses=1]
  %tmp19.i.i = mul i32 %indvar.i151.i, 7          ; <i32> [#uses=9]
  %scevgep.i152.i = getelementptr [8000 x i32]* @data32, i32 0, i32 %tmp19.i.i ; <i32*> [#uses=1]
  %tmp20.i153.i = add i32 %tmp19.i.i, 1           ; <i32> [#uses=1]
  %scevgep21.i.i = getelementptr [8000 x i32]* @data32, i32 0, i32 %tmp20.i153.i ; <i32*> [#uses=1]
  %tmp22.i154.i = add i32 %tmp19.i.i, 2           ; <i32> [#uses=1]
  %scevgep23.i155.i = getelementptr [8000 x i32]* @data32, i32 0, i32 %tmp22.i154.i ; <i32*> [#uses=1]
  %tmp24.i156.i = add i32 %tmp19.i.i, 3           ; <i32> [#uses=1]
  %scevgep25.i157.i = getelementptr [8000 x i32]* @data32, i32 0, i32 %tmp24.i156.i ; <i32*> [#uses=1]
  %tmp26.i158.i = add i32 %tmp19.i.i, 4           ; <i32> [#uses=1]
  %scevgep27.i159.i = getelementptr [8000 x i32]* @data32, i32 0, i32 %tmp26.i158.i ; <i32*> [#uses=1]
  %tmp28.i160.i = add i32 %tmp19.i.i, 5           ; <i32> [#uses=1]
  %scevgep29.i161.i = getelementptr [8000 x i32]* @data32, i32 0, i32 %tmp28.i160.i ; <i32*> [#uses=1]
  %tmp30.i162.i = add i32 %tmp19.i.i, 6           ; <i32> [#uses=1]
  %scevgep31.i163.i = getelementptr [8000 x i32]* @data32, i32 0, i32 %tmp30.i162.i ; <i32*> [#uses=1]
  %tmp32.i164.i = add i32 %tmp19.i.i, 7           ; <i32> [#uses=3]
  %272 = load i32* %scevgep.i152.i, align 4       ; <i32> [#uses=1]
  %273 = load i32* %scevgep21.i.i, align 4        ; <i32> [#uses=1]
  %274 = load i32* %scevgep23.i155.i, align 4     ; <i32> [#uses=1]
  %275 = load i32* %scevgep25.i157.i, align 4     ; <i32> [#uses=1]
  %276 = load i32* %scevgep27.i159.i, align 4     ; <i32> [#uses=1]
  %277 = load i32* %scevgep29.i161.i, align 4     ; <i32> [#uses=1]
  %278 = load i32* %scevgep31.i163.i, align 4     ; <i32> [#uses=1]
  %tmp.i165.i = add i32 %273, %272                ; <i32> [#uses=1]
  %tmp2.i166.i = add i32 %tmp.i165.i, %274        ; <i32> [#uses=1]
  %tmp3.i167.i = add i32 %tmp2.i166.i, %275       ; <i32> [#uses=1]
  %tmp4.i168.i = add i32 %tmp3.i167.i, %276       ; <i32> [#uses=1]
  %tmp5.i169.i = add i32 %tmp4.i168.i, %277       ; <i32> [#uses=1]
  %tmp6.i170.i = add i32 %tmp5.i169.i, %278       ; <i32> [#uses=1]
  %tmp7.i171.i = mul i32 %tmp6.i170.i, 269850533  ; <i32> [#uses=1]
  %279 = add i32 %result.18.i.i, 621659144        ; <i32> [#uses=1]
  %280 = add nsw i32 %279, %tmp7.i171.i           ; <i32> [#uses=3]
  %281 = icmp slt i32 %tmp32.i164.i, 7994         ; <i1> [#uses=1]
  %indvar.next.i172.i = add i32 %indvar.i151.i, 1 ; <i32> [#uses=1]
  br i1 %281, label %bb1.i173.i, label %bb4.preheader.i176.i

bb4.preheader.i176.i:                             ; preds = %bb1.i173.i
  %282 = icmp slt i32 %tmp32.i164.i, 8000         ; <i1> [#uses=1]
  br i1 %282, label %bb.nph14.i.i, label %bb5.i185.i

bb.nph14.i.i:                                     ; preds = %bb4.preheader.i176.i
  %tmp37.i177.i = sub i32 7993, %tmp19.i.i        ; <i32> [#uses=1]
  br label %bb3.i182.i

bb3.i182.i:                                       ; preds = %bb3.i182.i, %bb.nph14.i.i
  %indvar34.i.i = phi i32 [ 0, %bb.nph14.i.i ], [ %indvar.next35.i.i, %bb3.i182.i ] ; <i32> [#uses=2]
  %result.012.i.i = phi i32 [ %280, %bb.nph14.i.i ], [ %285, %bb3.i182.i ] ; <i32> [#uses=1]
  %tmp38.i178.i = add i32 %indvar34.i.i, %tmp32.i164.i ; <i32> [#uses=1]
  %scevgep39.i179.i = getelementptr [8000 x i32]* @data32, i32 0, i32 %tmp38.i178.i ; <i32*> [#uses=1]
  %283 = load i32* %scevgep39.i179.i, align 4     ; <i32> [#uses=1]
  %tmp3.i.i180.i = mul i32 %283, 269850533        ; <i32> [#uses=1]
  %284 = add i32 %result.012.i.i, -1138325064     ; <i32> [#uses=1]
  %285 = add nsw i32 %284, %tmp3.i.i180.i         ; <i32> [#uses=2]
  %indvar.next35.i.i = add i32 %indvar34.i.i, 1   ; <i32> [#uses=2]
  %exitcond.i181.i = icmp eq i32 %indvar.next35.i.i, %tmp37.i177.i ; <i1> [#uses=1]
  br i1 %exitcond.i181.i, label %bb5.i185.i, label %bb3.i182.i

bb5.i185.i:                                       ; preds = %bb3.i182.i, %bb4.preheader.i176.i
  %result.0.lcssa.i183.i = phi i32 [ %280, %bb4.preheader.i176.i ], [ %285, %bb3.i182.i ] ; <i32> [#uses=1]
  %286 = load double* @init_value, align 8        ; <double> [#uses=1]
  %287 = fptosi double %286 to i32                ; <i32> [#uses=1]
  %tmp.i.i184.i = mul i32 %287, -1564285888       ; <i32> [#uses=1]
  %288 = add i32 %tmp.i.i184.i, -1269844480       ; <i32> [#uses=1]
  %289 = icmp eq i32 %288, %result.0.lcssa.i183.i ; <i1> [#uses=1]
  br i1 %289, label %_Z9check_sumIiEvT_.exit.i187.i, label %bb.i1.i186.i

bb.i1.i186.i:                                     ; preds = %bb5.i185.i
  %290 = load i32* @current_test, align 4         ; <i32> [#uses=1]
  %291 = tail call i32 (i8*, ...)* @printf(i8* noalias getelementptr inbounds ([16 x i8]* @.str, i32 0, i32 0), i32 %290) nounwind ; <i32> [#uses=0]
  br label %_Z9check_sumIiEvT_.exit.i187.i

_Z9check_sumIiEvT_.exit.i187.i:                   ; preds = %bb.i1.i186.i, %bb5.i185.i
  %292 = load i32* @iterations, align 4           ; <i32> [#uses=1]
  %293 = icmp slt i32 %tmp40.i189.i, %292         ; <i1> [#uses=1]
  br i1 %293, label %bb2.preheader.i190.i, label %bb7.i191.i

bb2.preheader.i190.i:                             ; preds = %_Z9check_sumIiEvT_.exit.i187.i, %_Z27test_for_loop_unroll_factorILi6EiEvPKT0_iPKc.exit.i
  %i.016.i.i = phi i32 [ %tmp40.i189.i, %_Z9check_sumIiEvT_.exit.i187.i ], [ 0, %_Z27test_for_loop_unroll_factorILi6EiEvPKT0_iPKc.exit.i ] ; <i32> [#uses=1]
  %tmp40.i189.i = add i32 %i.016.i.i, 1           ; <i32> [#uses=2]
  br label %bb1.i173.i

bb7.i191.i:                                       ; preds = %_Z9check_sumIiEvT_.exit.i187.i, %_Z27test_for_loop_unroll_factorILi6EiEvPKT0_iPKc.exit.i
  %294 = tail call i32 @clock() nounwind          ; <i32> [#uses=1]
  %295 = load i32* @start_time, align 4           ; <i32> [#uses=1]
  %296 = sub i32 %294, %295                       ; <i32> [#uses=1]
  %297 = sitofp i32 %296 to double                ; <double> [#uses=1]
  %298 = fdiv double %297, 1.000000e+06           ; <double> [#uses=1]
  %299 = load %struct.one_result** @results, align 4 ; <%struct.one_result*> [#uses=3]
  %300 = icmp eq %struct.one_result* %299, null   ; <i1> [#uses=1]
  br i1 %300, label %bb1.i.i193.i, label %bb.i.i192.i

bb.i.i192.i:                                      ; preds = %bb7.i191.i
  %301 = load i32* @current_test, align 4         ; <i32> [#uses=1]
  %302 = load i32* @allocated_results, align 4    ; <i32> [#uses=1]
  %303 = icmp slt i32 %301, %302                  ; <i1> [#uses=1]
  br i1 %303, label %_Z27test_for_loop_unroll_factorILi7EiEvPKT0_iPKc.exit.i, label %bb1.i.i193.i

bb1.i.i193.i:                                     ; preds = %bb.i.i192.i, %bb7.i191.i
  %304 = load i32* @allocated_results, align 4    ; <i32> [#uses=1]
  %305 = add nsw i32 %304, 10                     ; <i32> [#uses=2]
  store i32 %305, i32* @allocated_results, align 4
  %306 = mul i32 %305, 12                         ; <i32> [#uses=1]
  %307 = bitcast %struct.one_result* %299 to i8*  ; <i8*> [#uses=1]
  %308 = tail call i8* @realloc(i8* %307, i32 %306) nounwind ; <i8*> [#uses=2]
  %309 = bitcast i8* %308 to %struct.one_result*  ; <%struct.one_result*> [#uses=2]
  store %struct.one_result* %309, %struct.one_result** @results, align 4
  %310 = icmp eq i8* %308, null                   ; <i1> [#uses=1]
  br i1 %310, label %bb2.i.i194.i, label %_Z27test_for_loop_unroll_factorILi7EiEvPKT0_iPKc.exit.i

bb2.i.i194.i:                                     ; preds = %bb1.i.i193.i
  %311 = load i32* @allocated_results, align 4    ; <i32> [#uses=1]
  %312 = tail call i32 (i8*, ...)* @printf(i8* noalias getelementptr inbounds ([31 x i8]* @.str11, i32 0, i32 0), i32 %311) nounwind ; <i32> [#uses=0]
  tail call void @exit(i32 -1) noreturn nounwind
  unreachable

_Z27test_for_loop_unroll_factorILi7EiEvPKT0_iPKc.exit.i: ; preds = %bb1.i.i193.i, %bb.i.i192.i
  %313 = phi %struct.one_result* [ %299, %bb.i.i192.i ], [ %309, %bb1.i.i193.i ] ; <%struct.one_result*> [#uses=2]
  %314 = load i32* @current_test, align 4         ; <i32> [#uses=3]
  %315 = getelementptr inbounds %struct.one_result* %313, i32 %314, i32 0 ; <double*> [#uses=1]
  store double %298, double* %315, align 4
  %316 = getelementptr inbounds %struct.one_result* %313, i32 %314, i32 1 ; <i8**> [#uses=1]
  store i8* getelementptr inbounds ([32 x [100 x i8]]* @temp_string, i32 0, i32 6, i32 0), i8** %316, align 4
  %317 = add nsw i32 %314, 1                      ; <i32> [#uses=1]
  store i32 %317, i32* @current_test, align 4
  %318 = tail call i32 @clock() nounwind          ; <i32> [#uses=1]
  store i32 %318, i32* @start_time, align 4
  %319 = load i32* @iterations, align 4           ; <i32> [#uses=1]
  %320 = icmp sgt i32 %319, 0                     ; <i1> [#uses=1]
  br i1 %320, label %bb2.preheader.i146.i, label %bb7.i147.i

bb1.i130.i:                                       ; preds = %bb2.preheader.i146.i, %bb1.i130.i
  %indvar.i112.i = phi i32 [ 0, %bb2.preheader.i146.i ], [ %indvar.next.i129.i, %bb1.i130.i ] ; <i32> [#uses=2]
  %result.19.i.i = phi i32 [ 0, %bb2.preheader.i146.i ], [ %330, %bb1.i130.i ] ; <i32> [#uses=1]
  %tmp20.i.i = shl i32 %indvar.i112.i, 3          ; <i32> [#uses=10]
  %scevgep.i113.i = getelementptr [8000 x i32]* @data32, i32 0, i32 %tmp20.i.i ; <i32*> [#uses=1]
  %tmp2150.i.i = or i32 %tmp20.i.i, 1             ; <i32> [#uses=1]
  %scevgep22.i.i = getelementptr [8000 x i32]* @data32, i32 0, i32 %tmp2150.i.i ; <i32*> [#uses=1]
  %tmp2349.i.i = or i32 %tmp20.i.i, 2             ; <i32> [#uses=1]
  %scevgep24.i114.i = getelementptr [8000 x i32]* @data32, i32 0, i32 %tmp2349.i.i ; <i32*> [#uses=1]
  %tmp2548.i.i = or i32 %tmp20.i.i, 3             ; <i32> [#uses=1]
  %scevgep26.i115.i = getelementptr [8000 x i32]* @data32, i32 0, i32 %tmp2548.i.i ; <i32*> [#uses=1]
  %tmp2747.i.i = or i32 %tmp20.i.i, 4             ; <i32> [#uses=1]
  %scevgep28.i116.i = getelementptr [8000 x i32]* @data32, i32 0, i32 %tmp2747.i.i ; <i32*> [#uses=1]
  %tmp2946.i.i = or i32 %tmp20.i.i, 5             ; <i32> [#uses=1]
  %scevgep30.i117.i = getelementptr [8000 x i32]* @data32, i32 0, i32 %tmp2946.i.i ; <i32*> [#uses=1]
  %tmp3145.i.i = or i32 %tmp20.i.i, 6             ; <i32> [#uses=1]
  %scevgep32.i118.i = getelementptr [8000 x i32]* @data32, i32 0, i32 %tmp3145.i.i ; <i32*> [#uses=1]
  %tmp3344.i.i = or i32 %tmp20.i.i, 7             ; <i32> [#uses=1]
  %scevgep34.i119.i = getelementptr [8000 x i32]* @data32, i32 0, i32 %tmp3344.i.i ; <i32*> [#uses=1]
  %tmp35.i120.i = add i32 %tmp20.i.i, 8           ; <i32> [#uses=3]
  %321 = load i32* %scevgep.i113.i, align 32      ; <i32> [#uses=1]
  %322 = load i32* %scevgep22.i.i, align 4        ; <i32> [#uses=1]
  %323 = load i32* %scevgep24.i114.i, align 8     ; <i32> [#uses=1]
  %324 = load i32* %scevgep26.i115.i, align 4     ; <i32> [#uses=1]
  %325 = load i32* %scevgep28.i116.i, align 16    ; <i32> [#uses=1]
  %326 = load i32* %scevgep30.i117.i, align 4     ; <i32> [#uses=1]
  %327 = load i32* %scevgep32.i118.i, align 8     ; <i32> [#uses=1]
  %328 = load i32* %scevgep34.i119.i, align 4     ; <i32> [#uses=1]
  %tmp.i121.i = add i32 %322, %321                ; <i32> [#uses=1]
  %tmp2.i122.i = add i32 %tmp.i121.i, %323        ; <i32> [#uses=1]
  %tmp3.i123.i = add i32 %tmp2.i122.i, %324       ; <i32> [#uses=1]
  %tmp4.i124.i = add i32 %tmp3.i123.i, %325       ; <i32> [#uses=1]
  %tmp5.i125.i = add i32 %tmp4.i124.i, %326       ; <i32> [#uses=1]
  %tmp6.i126.i = add i32 %tmp5.i125.i, %327       ; <i32> [#uses=1]
  %tmp7.i127.i = add i32 %tmp6.i126.i, %328       ; <i32> [#uses=1]
  %tmp8.i128.i = mul i32 %tmp7.i127.i, 269850533  ; <i32> [#uses=1]
  %329 = add i32 %result.19.i.i, -516665920       ; <i32> [#uses=1]
  %330 = add nsw i32 %329, %tmp8.i128.i           ; <i32> [#uses=3]
  %331 = icmp slt i32 %tmp35.i120.i, 7993         ; <i1> [#uses=1]
  %indvar.next.i129.i = add i32 %indvar.i112.i, 1 ; <i32> [#uses=1]
  br i1 %331, label %bb1.i130.i, label %bb4.preheader.i133.i

bb4.preheader.i133.i:                             ; preds = %bb1.i130.i
  %332 = icmp slt i32 %tmp35.i120.i, 8000         ; <i1> [#uses=1]
  br i1 %332, label %bb.nph15.i.i, label %bb5.i141.i

bb.nph15.i.i:                                     ; preds = %bb4.preheader.i133.i
  %tmp40.i134.i = sub i32 7992, %tmp20.i.i        ; <i32> [#uses=1]
  br label %bb3.i138.i

bb3.i138.i:                                       ; preds = %bb3.i138.i, %bb.nph15.i.i
  %indvar37.i.i = phi i32 [ 0, %bb.nph15.i.i ], [ %indvar.next38.i.i, %bb3.i138.i ] ; <i32> [#uses=2]
  %result.013.i.i = phi i32 [ %330, %bb.nph15.i.i ], [ %335, %bb3.i138.i ] ; <i32> [#uses=1]
  %tmp41.i135.i = add i32 %indvar37.i.i, %tmp35.i120.i ; <i32> [#uses=1]
  %scevgep42.i.i = getelementptr [8000 x i32]* @data32, i32 0, i32 %tmp41.i135.i ; <i32*> [#uses=1]
  %333 = load i32* %scevgep42.i.i, align 4        ; <i32> [#uses=1]
  %tmp3.i.i136.i = mul i32 %333, 269850533        ; <i32> [#uses=1]
  %334 = add i32 %result.013.i.i, -1138325064     ; <i32> [#uses=1]
  %335 = add nsw i32 %334, %tmp3.i.i136.i         ; <i32> [#uses=2]
  %indvar.next38.i.i = add i32 %indvar37.i.i, 1   ; <i32> [#uses=2]
  %exitcond.i137.i = icmp eq i32 %indvar.next38.i.i, %tmp40.i134.i ; <i1> [#uses=1]
  br i1 %exitcond.i137.i, label %bb5.i141.i, label %bb3.i138.i

bb5.i141.i:                                       ; preds = %bb3.i138.i, %bb4.preheader.i133.i
  %result.0.lcssa.i139.i = phi i32 [ %330, %bb4.preheader.i133.i ], [ %335, %bb3.i138.i ] ; <i32> [#uses=1]
  %336 = load double* @init_value, align 8        ; <double> [#uses=1]
  %337 = fptosi double %336 to i32                ; <i32> [#uses=1]
  %tmp.i.i140.i = mul i32 %337, -1564285888       ; <i32> [#uses=1]
  %338 = add i32 %tmp.i.i140.i, -1269844480       ; <i32> [#uses=1]
  %339 = icmp eq i32 %338, %result.0.lcssa.i139.i ; <i1> [#uses=1]
  br i1 %339, label %_Z9check_sumIiEvT_.exit.i143.i, label %bb.i1.i142.i

bb.i1.i142.i:                                     ; preds = %bb5.i141.i
  %340 = load i32* @current_test, align 4         ; <i32> [#uses=1]
  %341 = tail call i32 (i8*, ...)* @printf(i8* noalias getelementptr inbounds ([16 x i8]* @.str, i32 0, i32 0), i32 %340) nounwind ; <i32> [#uses=0]
  br label %_Z9check_sumIiEvT_.exit.i143.i

_Z9check_sumIiEvT_.exit.i143.i:                   ; preds = %bb.i1.i142.i, %bb5.i141.i
  %342 = load i32* @iterations, align 4           ; <i32> [#uses=1]
  %343 = icmp slt i32 %tmp43.i145.i, %342         ; <i1> [#uses=1]
  br i1 %343, label %bb2.preheader.i146.i, label %bb7.i147.i

bb2.preheader.i146.i:                             ; preds = %_Z9check_sumIiEvT_.exit.i143.i, %_Z27test_for_loop_unroll_factorILi7EiEvPKT0_iPKc.exit.i
  %i.017.i.i = phi i32 [ %tmp43.i145.i, %_Z9check_sumIiEvT_.exit.i143.i ], [ 0, %_Z27test_for_loop_unroll_factorILi7EiEvPKT0_iPKc.exit.i ] ; <i32> [#uses=1]
  %tmp43.i145.i = add i32 %i.017.i.i, 1           ; <i32> [#uses=2]
  br label %bb1.i130.i

bb7.i147.i:                                       ; preds = %_Z9check_sumIiEvT_.exit.i143.i, %_Z27test_for_loop_unroll_factorILi7EiEvPKT0_iPKc.exit.i
  %344 = tail call i32 @clock() nounwind          ; <i32> [#uses=1]
  %345 = load i32* @start_time, align 4           ; <i32> [#uses=1]
  %346 = sub i32 %344, %345                       ; <i32> [#uses=1]
  %347 = sitofp i32 %346 to double                ; <double> [#uses=1]
  %348 = fdiv double %347, 1.000000e+06           ; <double> [#uses=1]
  %349 = load %struct.one_result** @results, align 4 ; <%struct.one_result*> [#uses=3]
  %350 = icmp eq %struct.one_result* %349, null   ; <i1> [#uses=1]
  br i1 %350, label %bb1.i.i149.i, label %bb.i.i148.i

bb.i.i148.i:                                      ; preds = %bb7.i147.i
  %351 = load i32* @current_test, align 4         ; <i32> [#uses=1]
  %352 = load i32* @allocated_results, align 4    ; <i32> [#uses=1]
  %353 = icmp slt i32 %351, %352                  ; <i1> [#uses=1]
  br i1 %353, label %_Z27test_for_loop_unroll_factorILi8EiEvPKT0_iPKc.exit.i, label %bb1.i.i149.i

bb1.i.i149.i:                                     ; preds = %bb.i.i148.i, %bb7.i147.i
  %354 = load i32* @allocated_results, align 4    ; <i32> [#uses=1]
  %355 = add nsw i32 %354, 10                     ; <i32> [#uses=2]
  store i32 %355, i32* @allocated_results, align 4
  %356 = mul i32 %355, 12                         ; <i32> [#uses=1]
  %357 = bitcast %struct.one_result* %349 to i8*  ; <i8*> [#uses=1]
  %358 = tail call i8* @realloc(i8* %357, i32 %356) nounwind ; <i8*> [#uses=2]
  %359 = bitcast i8* %358 to %struct.one_result*  ; <%struct.one_result*> [#uses=2]
  store %struct.one_result* %359, %struct.one_result** @results, align 4
  %360 = icmp eq i8* %358, null                   ; <i1> [#uses=1]
  br i1 %360, label %bb2.i.i150.i, label %_Z27test_for_loop_unroll_factorILi8EiEvPKT0_iPKc.exit.i

bb2.i.i150.i:                                     ; preds = %bb1.i.i149.i
  %361 = load i32* @allocated_results, align 4    ; <i32> [#uses=1]
  %362 = tail call i32 (i8*, ...)* @printf(i8* noalias getelementptr inbounds ([31 x i8]* @.str11, i32 0, i32 0), i32 %361) nounwind ; <i32> [#uses=0]
  tail call void @exit(i32 -1) noreturn nounwind
  unreachable

_Z27test_for_loop_unroll_factorILi8EiEvPKT0_iPKc.exit.i: ; preds = %bb1.i.i149.i, %bb.i.i148.i
  %363 = phi %struct.one_result* [ %349, %bb.i.i148.i ], [ %359, %bb1.i.i149.i ] ; <%struct.one_result*> [#uses=2]
  %364 = load i32* @current_test, align 4         ; <i32> [#uses=3]
  %365 = getelementptr inbounds %struct.one_result* %363, i32 %364, i32 0 ; <double*> [#uses=1]
  store double %348, double* %365, align 4
  %366 = getelementptr inbounds %struct.one_result* %363, i32 %364, i32 1 ; <i8**> [#uses=1]
  store i8* getelementptr inbounds ([32 x [100 x i8]]* @temp_string, i32 0, i32 7, i32 0), i8** %366, align 4
  %367 = add nsw i32 %364, 1                      ; <i32> [#uses=1]
  store i32 %367, i32* @current_test, align 4
  %368 = tail call i32 @clock() nounwind          ; <i32> [#uses=1]
  store i32 %368, i32* @start_time, align 4
  %369 = load i32* @iterations, align 4           ; <i32> [#uses=1]
  %370 = icmp sgt i32 %369, 0                     ; <i1> [#uses=1]
  br i1 %370, label %bb2.preheader.i107.i, label %bb7.i108.i

bb1.i93.i:                                        ; preds = %bb2.preheader.i107.i, %bb1.i93.i
  %indvar.i65.i = phi i32 [ 0, %bb2.preheader.i107.i ], [ %indvar.next.i92.i, %bb1.i93.i ] ; <i32> [#uses=2]
  %result.110.i.i = phi i32 [ 0, %bb2.preheader.i107.i ], [ %381, %bb1.i93.i ] ; <i32> [#uses=1]
  %tmp21.i.i = mul i32 %indvar.i65.i, 9           ; <i32> [#uses=11]
  %scevgep.i66.i = getelementptr [8000 x i32]* @data32, i32 0, i32 %tmp21.i.i ; <i32*> [#uses=1]
  %tmp22.i67.i = add i32 %tmp21.i.i, 1            ; <i32> [#uses=1]
  %scevgep23.i.i = getelementptr [8000 x i32]* @data32, i32 0, i32 %tmp22.i67.i ; <i32*> [#uses=1]
  %tmp24.i68.i = add i32 %tmp21.i.i, 2            ; <i32> [#uses=1]
  %scevgep25.i69.i = getelementptr [8000 x i32]* @data32, i32 0, i32 %tmp24.i68.i ; <i32*> [#uses=1]
  %tmp26.i70.i = add i32 %tmp21.i.i, 3            ; <i32> [#uses=1]
  %scevgep27.i71.i = getelementptr [8000 x i32]* @data32, i32 0, i32 %tmp26.i70.i ; <i32*> [#uses=1]
  %tmp28.i72.i = add i32 %tmp21.i.i, 4            ; <i32> [#uses=1]
  %scevgep29.i73.i = getelementptr [8000 x i32]* @data32, i32 0, i32 %tmp28.i72.i ; <i32*> [#uses=1]
  %tmp30.i74.i = add i32 %tmp21.i.i, 5            ; <i32> [#uses=1]
  %scevgep31.i75.i = getelementptr [8000 x i32]* @data32, i32 0, i32 %tmp30.i74.i ; <i32*> [#uses=1]
  %tmp32.i76.i = add i32 %tmp21.i.i, 6            ; <i32> [#uses=1]
  %scevgep33.i77.i = getelementptr [8000 x i32]* @data32, i32 0, i32 %tmp32.i76.i ; <i32*> [#uses=1]
  %tmp34.i78.i = add i32 %tmp21.i.i, 7            ; <i32> [#uses=1]
  %scevgep35.i79.i = getelementptr [8000 x i32]* @data32, i32 0, i32 %tmp34.i78.i ; <i32*> [#uses=1]
  %tmp36.i80.i = add i32 %tmp21.i.i, 8            ; <i32> [#uses=1]
  %scevgep37.i81.i = getelementptr [8000 x i32]* @data32, i32 0, i32 %tmp36.i80.i ; <i32*> [#uses=1]
  %tmp38.i82.i = add i32 %tmp21.i.i, 9            ; <i32> [#uses=3]
  %371 = load i32* %scevgep.i66.i, align 4        ; <i32> [#uses=1]
  %372 = load i32* %scevgep23.i.i, align 4        ; <i32> [#uses=1]
  %373 = load i32* %scevgep25.i69.i, align 4      ; <i32> [#uses=1]
  %374 = load i32* %scevgep27.i71.i, align 4      ; <i32> [#uses=1]
  %375 = load i32* %scevgep29.i73.i, align 4      ; <i32> [#uses=1]
  %376 = load i32* %scevgep31.i75.i, align 4      ; <i32> [#uses=1]
  %377 = load i32* %scevgep33.i77.i, align 4      ; <i32> [#uses=1]
  %378 = load i32* %scevgep35.i79.i, align 4      ; <i32> [#uses=1]
  %379 = load i32* %scevgep37.i81.i, align 4      ; <i32> [#uses=1]
  %tmp.i83.i = add i32 %372, %371                 ; <i32> [#uses=1]
  %tmp2.i84.i = add i32 %tmp.i83.i, %373          ; <i32> [#uses=1]
  %tmp3.i85.i = add i32 %tmp2.i84.i, %374         ; <i32> [#uses=1]
  %tmp4.i86.i = add i32 %tmp3.i85.i, %375         ; <i32> [#uses=1]
  %tmp5.i87.i = add i32 %tmp4.i86.i, %376         ; <i32> [#uses=1]
  %tmp6.i88.i = add i32 %tmp5.i87.i, %377         ; <i32> [#uses=1]
  %tmp7.i89.i = add i32 %tmp6.i88.i, %378         ; <i32> [#uses=1]
  %tmp8.i90.i = add i32 %tmp7.i89.i, %379         ; <i32> [#uses=1]
  %tmp9.i91.i = mul i32 %tmp8.i90.i, 269850533    ; <i32> [#uses=1]
  %380 = add i32 %result.110.i.i, -1654990984     ; <i32> [#uses=1]
  %381 = add nsw i32 %380, %tmp9.i91.i            ; <i32> [#uses=3]
  %382 = icmp slt i32 %tmp38.i82.i, 7992          ; <i1> [#uses=1]
  %indvar.next.i92.i = add i32 %indvar.i65.i, 1   ; <i32> [#uses=1]
  br i1 %382, label %bb1.i93.i, label %bb4.preheader.i96.i

bb4.preheader.i96.i:                              ; preds = %bb1.i93.i
  %383 = icmp slt i32 %tmp38.i82.i, 8000          ; <i1> [#uses=1]
  br i1 %383, label %bb.nph16.i.i, label %bb5.i103.i

bb.nph16.i.i:                                     ; preds = %bb4.preheader.i96.i
  %tmp43.i.i = sub i32 7991, %tmp21.i.i           ; <i32> [#uses=1]
  br label %bb3.i100.i

bb3.i100.i:                                       ; preds = %bb3.i100.i, %bb.nph16.i.i
  %indvar40.i.i = phi i32 [ 0, %bb.nph16.i.i ], [ %indvar.next41.i.i, %bb3.i100.i ] ; <i32> [#uses=2]
  %result.014.i.i = phi i32 [ %381, %bb.nph16.i.i ], [ %386, %bb3.i100.i ] ; <i32> [#uses=1]
  %tmp44.i97.i = add i32 %indvar40.i.i, %tmp38.i82.i ; <i32> [#uses=1]
  %scevgep45.i.i = getelementptr [8000 x i32]* @data32, i32 0, i32 %tmp44.i97.i ; <i32*> [#uses=1]
  %384 = load i32* %scevgep45.i.i, align 4        ; <i32> [#uses=1]
  %tmp3.i.i98.i = mul i32 %384, 269850533         ; <i32> [#uses=1]
  %385 = add i32 %result.014.i.i, -1138325064     ; <i32> [#uses=1]
  %386 = add nsw i32 %385, %tmp3.i.i98.i          ; <i32> [#uses=2]
  %indvar.next41.i.i = add i32 %indvar40.i.i, 1   ; <i32> [#uses=2]
  %exitcond.i99.i = icmp eq i32 %indvar.next41.i.i, %tmp43.i.i ; <i1> [#uses=1]
  br i1 %exitcond.i99.i, label %bb5.i103.i, label %bb3.i100.i

bb5.i103.i:                                       ; preds = %bb3.i100.i, %bb4.preheader.i96.i
  %result.0.lcssa.i101.i = phi i32 [ %381, %bb4.preheader.i96.i ], [ %386, %bb3.i100.i ] ; <i32> [#uses=1]
  %387 = load double* @init_value, align 8        ; <double> [#uses=1]
  %388 = fptosi double %387 to i32                ; <i32> [#uses=1]
  %tmp.i.i102.i = mul i32 %388, -1564285888       ; <i32> [#uses=1]
  %389 = add i32 %tmp.i.i102.i, -1269844480       ; <i32> [#uses=1]
  %390 = icmp eq i32 %389, %result.0.lcssa.i101.i ; <i1> [#uses=1]
  br i1 %390, label %_Z9check_sumIiEvT_.exit.i105.i, label %bb.i1.i104.i

bb.i1.i104.i:                                     ; preds = %bb5.i103.i
  %391 = load i32* @current_test, align 4         ; <i32> [#uses=1]
  %392 = tail call i32 (i8*, ...)* @printf(i8* noalias getelementptr inbounds ([16 x i8]* @.str, i32 0, i32 0), i32 %391) nounwind ; <i32> [#uses=0]
  br label %_Z9check_sumIiEvT_.exit.i105.i

_Z9check_sumIiEvT_.exit.i105.i:                   ; preds = %bb.i1.i104.i, %bb5.i103.i
  %393 = load i32* @iterations, align 4           ; <i32> [#uses=1]
  %394 = icmp slt i32 %tmp46.i106.i, %393         ; <i1> [#uses=1]
  br i1 %394, label %bb2.preheader.i107.i, label %bb7.i108.i

bb2.preheader.i107.i:                             ; preds = %_Z9check_sumIiEvT_.exit.i105.i, %_Z27test_for_loop_unroll_factorILi8EiEvPKT0_iPKc.exit.i
  %i.018.i.i = phi i32 [ %tmp46.i106.i, %_Z9check_sumIiEvT_.exit.i105.i ], [ 0, %_Z27test_for_loop_unroll_factorILi8EiEvPKT0_iPKc.exit.i ] ; <i32> [#uses=1]
  %tmp46.i106.i = add i32 %i.018.i.i, 1           ; <i32> [#uses=2]
  br label %bb1.i93.i

bb7.i108.i:                                       ; preds = %_Z9check_sumIiEvT_.exit.i105.i, %_Z27test_for_loop_unroll_factorILi8EiEvPKT0_iPKc.exit.i
  %395 = tail call i32 @clock() nounwind          ; <i32> [#uses=1]
  %396 = load i32* @start_time, align 4           ; <i32> [#uses=1]
  %397 = sub i32 %395, %396                       ; <i32> [#uses=1]
  %398 = sitofp i32 %397 to double                ; <double> [#uses=1]
  %399 = fdiv double %398, 1.000000e+06           ; <double> [#uses=1]
  %400 = load %struct.one_result** @results, align 4 ; <%struct.one_result*> [#uses=3]
  %401 = icmp eq %struct.one_result* %400, null   ; <i1> [#uses=1]
  br i1 %401, label %bb1.i.i110.i, label %bb.i.i109.i

bb.i.i109.i:                                      ; preds = %bb7.i108.i
  %402 = load i32* @current_test, align 4         ; <i32> [#uses=1]
  %403 = load i32* @allocated_results, align 4    ; <i32> [#uses=1]
  %404 = icmp slt i32 %402, %403                  ; <i1> [#uses=1]
  br i1 %404, label %_Z27test_for_loop_unroll_factorILi9EiEvPKT0_iPKc.exit.i, label %bb1.i.i110.i

bb1.i.i110.i:                                     ; preds = %bb.i.i109.i, %bb7.i108.i
  %405 = load i32* @allocated_results, align 4    ; <i32> [#uses=1]
  %406 = add nsw i32 %405, 10                     ; <i32> [#uses=2]
  store i32 %406, i32* @allocated_results, align 4
  %407 = mul i32 %406, 12                         ; <i32> [#uses=1]
  %408 = bitcast %struct.one_result* %400 to i8*  ; <i8*> [#uses=1]
  %409 = tail call i8* @realloc(i8* %408, i32 %407) nounwind ; <i8*> [#uses=2]
  %410 = bitcast i8* %409 to %struct.one_result*  ; <%struct.one_result*> [#uses=2]
  store %struct.one_result* %410, %struct.one_result** @results, align 4
  %411 = icmp eq i8* %409, null                   ; <i1> [#uses=1]
  br i1 %411, label %bb2.i.i111.i, label %_Z27test_for_loop_unroll_factorILi9EiEvPKT0_iPKc.exit.i

bb2.i.i111.i:                                     ; preds = %bb1.i.i110.i
  %412 = load i32* @allocated_results, align 4    ; <i32> [#uses=1]
  %413 = tail call i32 (i8*, ...)* @printf(i8* noalias getelementptr inbounds ([31 x i8]* @.str11, i32 0, i32 0), i32 %412) nounwind ; <i32> [#uses=0]
  tail call void @exit(i32 -1) noreturn nounwind
  unreachable

_Z27test_for_loop_unroll_factorILi9EiEvPKT0_iPKc.exit.i: ; preds = %bb1.i.i110.i, %bb.i.i109.i
  %414 = phi %struct.one_result* [ %400, %bb.i.i109.i ], [ %410, %bb1.i.i110.i ] ; <%struct.one_result*> [#uses=2]
  %415 = load i32* @current_test, align 4         ; <i32> [#uses=3]
  %416 = getelementptr inbounds %struct.one_result* %414, i32 %415, i32 0 ; <double*> [#uses=1]
  store double %399, double* %416, align 4
  %417 = getelementptr inbounds %struct.one_result* %414, i32 %415, i32 1 ; <i8**> [#uses=1]
  store i8* getelementptr inbounds ([32 x [100 x i8]]* @temp_string, i32 0, i32 8, i32 0), i8** %417, align 4
  %418 = add nsw i32 %415, 1                      ; <i32> [#uses=1]
  store i32 %418, i32* @current_test, align 4
  %419 = tail call i32 @clock() nounwind          ; <i32> [#uses=1]
  store i32 %419, i32* @start_time, align 4
  %420 = load i32* @iterations, align 4           ; <i32> [#uses=1]
  %421 = icmp sgt i32 %420, 0                     ; <i1> [#uses=1]
  br i1 %421, label %bb2.preheader.i60.i, label %bb7.i61.i

bb1.i47.i:                                        ; preds = %bb2.preheader.i60.i, %bb1.i47.i
  %indvar.i34.i = phi i32 [ 0, %bb2.preheader.i60.i ], [ %indvar.next.i46.i, %bb1.i47.i ] ; <i32> [#uses=2]
  %result.111.i.i = phi i32 [ 0, %bb2.preheader.i60.i ], [ %433, %bb1.i47.i ] ; <i32> [#uses=1]
  %tmp22.i.i = mul i32 %indvar.i34.i, 10          ; <i32> [#uses=12]
  %scevgep.i35.i = getelementptr [8000 x i32]* @data32, i32 0, i32 %tmp22.i.i ; <i32*> [#uses=1]
  %tmp2350.i.i = or i32 %tmp22.i.i, 1             ; <i32> [#uses=1]
  %scevgep24.i.i = getelementptr [8000 x i32]* @data32, i32 0, i32 %tmp2350.i.i ; <i32*> [#uses=1]
  %tmp25.i.i = add i32 %tmp22.i.i, 2              ; <i32> [#uses=1]
  %scevgep26.i.i = getelementptr [8000 x i32]* @data32, i32 0, i32 %tmp25.i.i ; <i32*> [#uses=1]
  %tmp27.i.i = add i32 %tmp22.i.i, 3              ; <i32> [#uses=1]
  %scevgep28.i.i = getelementptr [8000 x i32]* @data32, i32 0, i32 %tmp27.i.i ; <i32*> [#uses=1]
  %tmp29.i.i = add i32 %tmp22.i.i, 4              ; <i32> [#uses=1]
  %scevgep30.i.i = getelementptr [8000 x i32]* @data32, i32 0, i32 %tmp29.i.i ; <i32*> [#uses=1]
  %tmp31.i.i = add i32 %tmp22.i.i, 5              ; <i32> [#uses=1]
  %scevgep32.i.i = getelementptr [8000 x i32]* @data32, i32 0, i32 %tmp31.i.i ; <i32*> [#uses=1]
  %tmp33.i.i = add i32 %tmp22.i.i, 6              ; <i32> [#uses=1]
  %scevgep34.i.i = getelementptr [8000 x i32]* @data32, i32 0, i32 %tmp33.i.i ; <i32*> [#uses=1]
  %tmp35.i.i = add i32 %tmp22.i.i, 7              ; <i32> [#uses=1]
  %scevgep36.i.i = getelementptr [8000 x i32]* @data32, i32 0, i32 %tmp35.i.i ; <i32*> [#uses=1]
  %tmp37.i.i = add i32 %tmp22.i.i, 8              ; <i32> [#uses=1]
  %scevgep38.i.i = getelementptr [8000 x i32]* @data32, i32 0, i32 %tmp37.i.i ; <i32*> [#uses=1]
  %tmp39.i.i = add i32 %tmp22.i.i, 9              ; <i32> [#uses=1]
  %scevgep40.i.i = getelementptr [8000 x i32]* @data32, i32 0, i32 %tmp39.i.i ; <i32*> [#uses=1]
  %tmp41.i.i = add i32 %tmp22.i.i, 10             ; <i32> [#uses=3]
  %422 = load i32* %scevgep.i35.i, align 8        ; <i32> [#uses=1]
  %423 = load i32* %scevgep24.i.i, align 4        ; <i32> [#uses=1]
  %424 = load i32* %scevgep26.i.i, align 8        ; <i32> [#uses=1]
  %425 = load i32* %scevgep28.i.i, align 4        ; <i32> [#uses=1]
  %426 = load i32* %scevgep30.i.i, align 8        ; <i32> [#uses=1]
  %427 = load i32* %scevgep32.i.i, align 4        ; <i32> [#uses=1]
  %428 = load i32* %scevgep34.i.i, align 8        ; <i32> [#uses=1]
  %429 = load i32* %scevgep36.i.i, align 4        ; <i32> [#uses=1]
  %430 = load i32* %scevgep38.i.i, align 8        ; <i32> [#uses=1]
  %431 = load i32* %scevgep40.i.i, align 4        ; <i32> [#uses=1]
  %tmp.i36.i = add i32 %423, %422                 ; <i32> [#uses=1]
  %tmp2.i37.i = add i32 %tmp.i36.i, %424          ; <i32> [#uses=1]
  %tmp3.i38.i = add i32 %tmp2.i37.i, %425         ; <i32> [#uses=1]
  %tmp4.i39.i = add i32 %tmp3.i38.i, %426         ; <i32> [#uses=1]
  %tmp5.i40.i = add i32 %tmp4.i39.i, %427         ; <i32> [#uses=1]
  %tmp6.i41.i = add i32 %tmp5.i40.i, %428         ; <i32> [#uses=1]
  %tmp7.i42.i = add i32 %tmp6.i41.i, %429         ; <i32> [#uses=1]
  %tmp8.i43.i = add i32 %tmp7.i42.i, %430         ; <i32> [#uses=1]
  %tmp9.i44.i = add i32 %tmp8.i43.i, %431         ; <i32> [#uses=1]
  %tmp10.i45.i = mul i32 %tmp9.i44.i, 269850533   ; <i32> [#uses=1]
  %432 = add i32 %result.111.i.i, 1501651248      ; <i32> [#uses=1]
  %433 = add nsw i32 %432, %tmp10.i45.i           ; <i32> [#uses=3]
  %434 = icmp slt i32 %tmp41.i.i, 7991            ; <i1> [#uses=1]
  %indvar.next.i46.i = add i32 %indvar.i34.i, 1   ; <i32> [#uses=1]
  br i1 %434, label %bb1.i47.i, label %bb4.preheader.i50.i

bb4.preheader.i50.i:                              ; preds = %bb1.i47.i
  %435 = icmp slt i32 %tmp41.i.i, 8000            ; <i1> [#uses=1]
  br i1 %435, label %bb.nph17.i.i, label %bb5.i56.i

bb.nph17.i.i:                                     ; preds = %bb4.preheader.i50.i
  %tmp46.i.i = sub i32 7990, %tmp22.i.i           ; <i32> [#uses=1]
  br label %bb3.i53.i

bb3.i53.i:                                        ; preds = %bb3.i53.i, %bb.nph17.i.i
  %indvar43.i.i = phi i32 [ 0, %bb.nph17.i.i ], [ %indvar.next44.i.i, %bb3.i53.i ] ; <i32> [#uses=2]
  %result.015.i.i = phi i32 [ %433, %bb.nph17.i.i ], [ %438, %bb3.i53.i ] ; <i32> [#uses=1]
  %tmp47.i.i = add i32 %indvar43.i.i, %tmp41.i.i  ; <i32> [#uses=1]
  %scevgep48.i.i = getelementptr [8000 x i32]* @data32, i32 0, i32 %tmp47.i.i ; <i32*> [#uses=1]
  %436 = load i32* %scevgep48.i.i, align 4        ; <i32> [#uses=1]
  %tmp3.i.i51.i = mul i32 %436, 269850533         ; <i32> [#uses=1]
  %437 = add i32 %result.015.i.i, -1138325064     ; <i32> [#uses=1]
  %438 = add nsw i32 %437, %tmp3.i.i51.i          ; <i32> [#uses=2]
  %indvar.next44.i.i = add i32 %indvar43.i.i, 1   ; <i32> [#uses=2]
  %exitcond.i52.i = icmp eq i32 %indvar.next44.i.i, %tmp46.i.i ; <i1> [#uses=1]
  br i1 %exitcond.i52.i, label %bb5.i56.i, label %bb3.i53.i

bb5.i56.i:                                        ; preds = %bb3.i53.i, %bb4.preheader.i50.i
  %result.0.lcssa.i54.i = phi i32 [ %433, %bb4.preheader.i50.i ], [ %438, %bb3.i53.i ] ; <i32> [#uses=1]
  %439 = load double* @init_value, align 8        ; <double> [#uses=1]
  %440 = fptosi double %439 to i32                ; <i32> [#uses=1]
  %tmp.i.i55.i = mul i32 %440, -1564285888        ; <i32> [#uses=1]
  %441 = add i32 %tmp.i.i55.i, -1269844480        ; <i32> [#uses=1]
  %442 = icmp eq i32 %441, %result.0.lcssa.i54.i  ; <i1> [#uses=1]
  br i1 %442, label %_Z9check_sumIiEvT_.exit.i58.i, label %bb.i1.i57.i

bb.i1.i57.i:                                      ; preds = %bb5.i56.i
  %443 = load i32* @current_test, align 4         ; <i32> [#uses=1]
  %444 = tail call i32 (i8*, ...)* @printf(i8* noalias getelementptr inbounds ([16 x i8]* @.str, i32 0, i32 0), i32 %443) nounwind ; <i32> [#uses=0]
  br label %_Z9check_sumIiEvT_.exit.i58.i

_Z9check_sumIiEvT_.exit.i58.i:                    ; preds = %bb.i1.i57.i, %bb5.i56.i
  %445 = load i32* @iterations, align 4           ; <i32> [#uses=1]
  %446 = icmp slt i32 %tmp49.i59.i, %445          ; <i1> [#uses=1]
  br i1 %446, label %bb2.preheader.i60.i, label %bb7.i61.i

bb2.preheader.i60.i:                              ; preds = %_Z9check_sumIiEvT_.exit.i58.i, %_Z27test_for_loop_unroll_factorILi9EiEvPKT0_iPKc.exit.i
  %i.019.i.i = phi i32 [ %tmp49.i59.i, %_Z9check_sumIiEvT_.exit.i58.i ], [ 0, %_Z27test_for_loop_unroll_factorILi9EiEvPKT0_iPKc.exit.i ] ; <i32> [#uses=1]
  %tmp49.i59.i = add i32 %i.019.i.i, 1            ; <i32> [#uses=2]
  br label %bb1.i47.i

bb7.i61.i:                                        ; preds = %_Z9check_sumIiEvT_.exit.i58.i, %_Z27test_for_loop_unroll_factorILi9EiEvPKT0_iPKc.exit.i
  %447 = tail call i32 @clock() nounwind          ; <i32> [#uses=1]
  %448 = load i32* @start_time, align 4           ; <i32> [#uses=1]
  %449 = sub i32 %447, %448                       ; <i32> [#uses=1]
  %450 = sitofp i32 %449 to double                ; <double> [#uses=1]
  %451 = fdiv double %450, 1.000000e+06           ; <double> [#uses=1]
  %452 = load %struct.one_result** @results, align 4 ; <%struct.one_result*> [#uses=3]
  %453 = icmp eq %struct.one_result* %452, null   ; <i1> [#uses=1]
  br i1 %453, label %bb1.i.i63.i, label %bb.i.i62.i

bb.i.i62.i:                                       ; preds = %bb7.i61.i
  %454 = load i32* @current_test, align 4         ; <i32> [#uses=1]
  %455 = load i32* @allocated_results, align 4    ; <i32> [#uses=1]
  %456 = icmp slt i32 %454, %455                  ; <i1> [#uses=1]
  br i1 %456, label %_Z27test_for_loop_unroll_factorILi10EiEvPKT0_iPKc.exit.i, label %bb1.i.i63.i

bb1.i.i63.i:                                      ; preds = %bb.i.i62.i, %bb7.i61.i
  %457 = load i32* @allocated_results, align 4    ; <i32> [#uses=1]
  %458 = add nsw i32 %457, 10                     ; <i32> [#uses=2]
  store i32 %458, i32* @allocated_results, align 4
  %459 = mul i32 %458, 12                         ; <i32> [#uses=1]
  %460 = bitcast %struct.one_result* %452 to i8*  ; <i8*> [#uses=1]
  %461 = tail call i8* @realloc(i8* %460, i32 %459) nounwind ; <i8*> [#uses=2]
  %462 = bitcast i8* %461 to %struct.one_result*  ; <%struct.one_result*> [#uses=2]
  store %struct.one_result* %462, %struct.one_result** @results, align 4
  %463 = icmp eq i8* %461, null                   ; <i1> [#uses=1]
  br i1 %463, label %bb2.i.i64.i, label %_Z27test_for_loop_unroll_factorILi10EiEvPKT0_iPKc.exit.i

bb2.i.i64.i:                                      ; preds = %bb1.i.i63.i
  %464 = load i32* @allocated_results, align 4    ; <i32> [#uses=1]
  %465 = tail call i32 (i8*, ...)* @printf(i8* noalias getelementptr inbounds ([31 x i8]* @.str11, i32 0, i32 0), i32 %464) nounwind ; <i32> [#uses=0]
  tail call void @exit(i32 -1) noreturn nounwind
  unreachable

_Z27test_for_loop_unroll_factorILi10EiEvPKT0_iPKc.exit.i: ; preds = %bb1.i.i63.i, %bb.i.i62.i
  %466 = phi %struct.one_result* [ %452, %bb.i.i62.i ], [ %462, %bb1.i.i63.i ] ; <%struct.one_result*> [#uses=2]
  %467 = load i32* @current_test, align 4         ; <i32> [#uses=3]
  %468 = getelementptr inbounds %struct.one_result* %466, i32 %467, i32 0 ; <double*> [#uses=1]
  store double %451, double* %468, align 4
  %469 = getelementptr inbounds %struct.one_result* %466, i32 %467, i32 1 ; <i8**> [#uses=1]
  store i8* getelementptr inbounds ([32 x [100 x i8]]* @temp_string, i32 0, i32 9, i32 0), i8** %469, align 4
  %470 = add nsw i32 %467, 1                      ; <i32> [#uses=1]
  store i32 %470, i32* @current_test, align 4
  %471 = tail call i32 @clock() nounwind          ; <i32> [#uses=1]
  store i32 %471, i32* @start_time, align 4
  %472 = load i32* @iterations, align 4           ; <i32> [#uses=1]
  %473 = icmp sgt i32 %472, 0                     ; <i1> [#uses=1]
  br i1 %473, label %bb2.preheader.i29.i, label %bb7.i30.i

bb1.i18.i:                                        ; preds = %bb2.preheader.i29.i, %bb1.i18.i
  %indvar.i13.i = phi i32 [ 0, %bb2.preheader.i29.i ], [ %indvar.next.i17.i, %bb1.i18.i ] ; <i32> [#uses=2]
  %result.112.i.i = phi i32 [ 0, %bb2.preheader.i29.i ], [ %486, %bb1.i18.i ] ; <i32> [#uses=1]
  %tmp23.i.i = mul i32 %indvar.i13.i, 11          ; <i32> [#uses=13]
  %scevgep.i14.i = getelementptr [8000 x i32]* @data32, i32 0, i32 %tmp23.i.i ; <i32*> [#uses=1]
  %tmp24.i.i = add i32 %tmp23.i.i, 1              ; <i32> [#uses=1]
  %scevgep25.i.i = getelementptr [8000 x i32]* @data32, i32 0, i32 %tmp24.i.i ; <i32*> [#uses=1]
  %tmp26.i.i = add i32 %tmp23.i.i, 2              ; <i32> [#uses=1]
  %scevgep27.i.i = getelementptr [8000 x i32]* @data32, i32 0, i32 %tmp26.i.i ; <i32*> [#uses=1]
  %tmp28.i.i = add i32 %tmp23.i.i, 3              ; <i32> [#uses=1]
  %scevgep29.i.i = getelementptr [8000 x i32]* @data32, i32 0, i32 %tmp28.i.i ; <i32*> [#uses=1]
  %tmp30.i.i = add i32 %tmp23.i.i, 4              ; <i32> [#uses=1]
  %scevgep31.i.i = getelementptr [8000 x i32]* @data32, i32 0, i32 %tmp30.i.i ; <i32*> [#uses=1]
  %tmp32.i.i = add i32 %tmp23.i.i, 5              ; <i32> [#uses=1]
  %scevgep33.i.i = getelementptr [8000 x i32]* @data32, i32 0, i32 %tmp32.i.i ; <i32*> [#uses=1]
  %tmp34.i.i = add i32 %tmp23.i.i, 6              ; <i32> [#uses=1]
  %scevgep35.i.i = getelementptr [8000 x i32]* @data32, i32 0, i32 %tmp34.i.i ; <i32*> [#uses=1]
  %tmp36.i.i = add i32 %tmp23.i.i, 7              ; <i32> [#uses=1]
  %scevgep37.i.i = getelementptr [8000 x i32]* @data32, i32 0, i32 %tmp36.i.i ; <i32*> [#uses=1]
  %tmp38.i.i = add i32 %tmp23.i.i, 8              ; <i32> [#uses=1]
  %scevgep39.i.i = getelementptr [8000 x i32]* @data32, i32 0, i32 %tmp38.i.i ; <i32*> [#uses=1]
  %tmp40.i.i = add i32 %tmp23.i.i, 9              ; <i32> [#uses=1]
  %scevgep41.i.i = getelementptr [8000 x i32]* @data32, i32 0, i32 %tmp40.i.i ; <i32*> [#uses=1]
  %tmp42.i.i = add i32 %tmp23.i.i, 10             ; <i32> [#uses=1]
  %scevgep43.i.i = getelementptr [8000 x i32]* @data32, i32 0, i32 %tmp42.i.i ; <i32*> [#uses=1]
  %tmp44.i.i = add i32 %tmp23.i.i, 11             ; <i32> [#uses=3]
  %474 = load i32* %scevgep.i14.i, align 4        ; <i32> [#uses=1]
  %475 = load i32* %scevgep25.i.i, align 4        ; <i32> [#uses=1]
  %476 = load i32* %scevgep27.i.i, align 4        ; <i32> [#uses=1]
  %477 = load i32* %scevgep29.i.i, align 4        ; <i32> [#uses=1]
  %478 = load i32* %scevgep31.i.i, align 4        ; <i32> [#uses=1]
  %479 = load i32* %scevgep33.i.i, align 4        ; <i32> [#uses=1]
  %480 = load i32* %scevgep35.i.i, align 4        ; <i32> [#uses=1]
  %481 = load i32* %scevgep37.i.i, align 4        ; <i32> [#uses=1]
  %482 = load i32* %scevgep39.i.i, align 4        ; <i32> [#uses=1]
  %483 = load i32* %scevgep41.i.i, align 4        ; <i32> [#uses=1]
  %484 = load i32* %scevgep43.i.i, align 4        ; <i32> [#uses=1]
  %tmp.i15.i = add i32 %475, %474                 ; <i32> [#uses=1]
  %tmp2.i.i = add i32 %tmp.i15.i, %476            ; <i32> [#uses=1]
  %tmp3.i.i = add i32 %tmp2.i.i, %477             ; <i32> [#uses=1]
  %tmp4.i.i = add i32 %tmp3.i.i, %478             ; <i32> [#uses=1]
  %tmp5.i.i = add i32 %tmp4.i.i, %479             ; <i32> [#uses=1]
  %tmp6.i.i = add i32 %tmp5.i.i, %480             ; <i32> [#uses=1]
  %tmp7.i.i = add i32 %tmp6.i.i, %481             ; <i32> [#uses=1]
  %tmp8.i16.i = add i32 %tmp7.i.i, %482           ; <i32> [#uses=1]
  %tmp9.i.i = add i32 %tmp8.i16.i, %483           ; <i32> [#uses=1]
  %tmp10.i.i = add i32 %tmp9.i.i, %484            ; <i32> [#uses=1]
  %tmp11.i.i = mul i32 %tmp10.i.i, 269850533      ; <i32> [#uses=1]
  %485 = add i32 %result.112.i.i, 363326184       ; <i32> [#uses=1]
  %486 = add nsw i32 %485, %tmp11.i.i             ; <i32> [#uses=3]
  %487 = icmp slt i32 %tmp44.i.i, 7990            ; <i1> [#uses=1]
  %indvar.next.i17.i = add i32 %indvar.i13.i, 1   ; <i32> [#uses=1]
  br i1 %487, label %bb1.i18.i, label %bb4.preheader.i21.i

bb4.preheader.i21.i:                              ; preds = %bb1.i18.i
  %488 = icmp slt i32 %tmp44.i.i, 8000            ; <i1> [#uses=1]
  br i1 %488, label %bb.nph18.i.i, label %bb5.i26.i

bb.nph18.i.i:                                     ; preds = %bb4.preheader.i21.i
  %tmp49.i.i = sub i32 7989, %tmp23.i.i           ; <i32> [#uses=1]
  br label %bb3.i24.i

bb3.i24.i:                                        ; preds = %bb3.i24.i, %bb.nph18.i.i
  %indvar46.i.i = phi i32 [ 0, %bb.nph18.i.i ], [ %indvar.next47.i.i, %bb3.i24.i ] ; <i32> [#uses=2]
  %result.016.i.i = phi i32 [ %486, %bb.nph18.i.i ], [ %491, %bb3.i24.i ] ; <i32> [#uses=1]
  %tmp50.i.i = add i32 %indvar46.i.i, %tmp44.i.i  ; <i32> [#uses=1]
  %scevgep51.i.i = getelementptr [8000 x i32]* @data32, i32 0, i32 %tmp50.i.i ; <i32*> [#uses=1]
  %489 = load i32* %scevgep51.i.i, align 4        ; <i32> [#uses=1]
  %tmp3.i.i22.i = mul i32 %489, 269850533         ; <i32> [#uses=1]
  %490 = add i32 %result.016.i.i, -1138325064     ; <i32> [#uses=1]
  %491 = add nsw i32 %490, %tmp3.i.i22.i          ; <i32> [#uses=2]
  %indvar.next47.i.i = add i32 %indvar46.i.i, 1   ; <i32> [#uses=2]
  %exitcond.i23.i = icmp eq i32 %indvar.next47.i.i, %tmp49.i.i ; <i1> [#uses=1]
  br i1 %exitcond.i23.i, label %bb5.i26.i, label %bb3.i24.i

bb5.i26.i:                                        ; preds = %bb3.i24.i, %bb4.preheader.i21.i
  %result.0.lcssa.i.i = phi i32 [ %486, %bb4.preheader.i21.i ], [ %491, %bb3.i24.i ] ; <i32> [#uses=1]
  %492 = load double* @init_value, align 8        ; <double> [#uses=1]
  %493 = fptosi double %492 to i32                ; <i32> [#uses=1]
  %tmp.i.i25.i = mul i32 %493, -1564285888        ; <i32> [#uses=1]
  %494 = add i32 %tmp.i.i25.i, -1269844480        ; <i32> [#uses=1]
  %495 = icmp eq i32 %494, %result.0.lcssa.i.i    ; <i1> [#uses=1]
  br i1 %495, label %_Z9check_sumIiEvT_.exit.i28.i, label %bb.i1.i27.i

bb.i1.i27.i:                                      ; preds = %bb5.i26.i
  %496 = load i32* @current_test, align 4         ; <i32> [#uses=1]
  %497 = tail call i32 (i8*, ...)* @printf(i8* noalias getelementptr inbounds ([16 x i8]* @.str, i32 0, i32 0), i32 %496) nounwind ; <i32> [#uses=0]
  br label %_Z9check_sumIiEvT_.exit.i28.i

_Z9check_sumIiEvT_.exit.i28.i:                    ; preds = %bb.i1.i27.i, %bb5.i26.i
  %498 = load i32* @iterations, align 4           ; <i32> [#uses=1]
  %499 = icmp slt i32 %tmp52.i.i, %498            ; <i1> [#uses=1]
  br i1 %499, label %bb2.preheader.i29.i, label %bb7.i30.i

bb2.preheader.i29.i:                              ; preds = %_Z9check_sumIiEvT_.exit.i28.i, %_Z27test_for_loop_unroll_factorILi10EiEvPKT0_iPKc.exit.i
  %i.020.i.i = phi i32 [ %tmp52.i.i, %_Z9check_sumIiEvT_.exit.i28.i ], [ 0, %_Z27test_for_loop_unroll_factorILi10EiEvPKT0_iPKc.exit.i ] ; <i32> [#uses=1]
  %tmp52.i.i = add i32 %i.020.i.i, 1              ; <i32> [#uses=2]
  br label %bb1.i18.i

bb7.i30.i:                                        ; preds = %_Z9check_sumIiEvT_.exit.i28.i, %_Z27test_for_loop_unroll_factorILi10EiEvPKT0_iPKc.exit.i
  %500 = tail call i32 @clock() nounwind          ; <i32> [#uses=1]
  %501 = load i32* @start_time, align 4           ; <i32> [#uses=1]
  %502 = sub i32 %500, %501                       ; <i32> [#uses=1]
  %503 = sitofp i32 %502 to double                ; <double> [#uses=1]
  %504 = fdiv double %503, 1.000000e+06           ; <double> [#uses=1]
  %505 = load %struct.one_result** @results, align 4 ; <%struct.one_result*> [#uses=3]
  %506 = icmp eq %struct.one_result* %505, null   ; <i1> [#uses=1]
  br i1 %506, label %bb1.i.i32.i, label %bb.i.i31.i

bb.i.i31.i:                                       ; preds = %bb7.i30.i
  %507 = load i32* @current_test, align 4         ; <i32> [#uses=1]
  %508 = load i32* @allocated_results, align 4    ; <i32> [#uses=1]
  %509 = icmp slt i32 %507, %508                  ; <i1> [#uses=1]
  br i1 %509, label %_Z27test_for_loop_unroll_factorILi11EiEvPKT0_iPKc.exit.i, label %bb1.i.i32.i

bb1.i.i32.i:                                      ; preds = %bb.i.i31.i, %bb7.i30.i
  %510 = load i32* @allocated_results, align 4    ; <i32> [#uses=1]
  %511 = add nsw i32 %510, 10                     ; <i32> [#uses=2]
  store i32 %511, i32* @allocated_results, align 4
  %512 = mul i32 %511, 12                         ; <i32> [#uses=1]
  %513 = bitcast %struct.one_result* %505 to i8*  ; <i8*> [#uses=1]
  %514 = tail call i8* @realloc(i8* %513, i32 %512) nounwind ; <i8*> [#uses=2]
  %515 = bitcast i8* %514 to %struct.one_result*  ; <%struct.one_result*> [#uses=2]
  store %struct.one_result* %515, %struct.one_result** @results, align 4
  %516 = icmp eq i8* %514, null                   ; <i1> [#uses=1]
  br i1 %516, label %bb2.i.i33.i, label %_Z27test_for_loop_unroll_factorILi11EiEvPKT0_iPKc.exit.i

bb2.i.i33.i:                                      ; preds = %bb1.i.i32.i
  %517 = load i32* @allocated_results, align 4    ; <i32> [#uses=1]
  %518 = tail call i32 (i8*, ...)* @printf(i8* noalias getelementptr inbounds ([31 x i8]* @.str11, i32 0, i32 0), i32 %517) nounwind ; <i32> [#uses=0]
  tail call void @exit(i32 -1) noreturn nounwind
  unreachable

_Z27test_for_loop_unroll_factorILi11EiEvPKT0_iPKc.exit.i: ; preds = %bb1.i.i32.i, %bb.i.i31.i
  %519 = phi %struct.one_result* [ %505, %bb.i.i31.i ], [ %515, %bb1.i.i32.i ] ; <%struct.one_result*> [#uses=2]
  %520 = load i32* @current_test, align 4         ; <i32> [#uses=3]
  %521 = getelementptr inbounds %struct.one_result* %519, i32 %520, i32 0 ; <double*> [#uses=1]
  store double %504, double* %521, align 4
  %522 = getelementptr inbounds %struct.one_result* %519, i32 %520, i32 1 ; <i8**> [#uses=1]
  store i8* getelementptr inbounds ([32 x [100 x i8]]* @temp_string, i32 0, i32 10, i32 0), i8** %522, align 4
  %523 = add nsw i32 %520, 1                      ; <i32> [#uses=1]
  store i32 %523, i32* @current_test, align 4
  %524 = call i32 @clock() nounwind               ; <i32> [#uses=1]
  store i32 %524, i32* @start_time, align 4
  %525 = load i32* @iterations, align 4           ; <i32> [#uses=1]
  %526 = icmp sgt i32 %525, 0                     ; <i1> [#uses=1]
  br i1 %526, label %bb.i.i, label %bb7.i9.i

bb.i.i:                                           ; preds = %_Z9check_sumIiEvT_.exit.i8.i, %_Z27test_for_loop_unroll_factorILi11EiEvPKT0_iPKc.exit.i
  %i.06.i.i = phi i32 [ %tmp16.i.i, %_Z9check_sumIiEvT_.exit.i8.i ], [ 0, %_Z27test_for_loop_unroll_factorILi11EiEvPKT0_iPKc.exit.i ] ; <i32> [#uses=1]
  %tmp16.i.i = add i32 %i.06.i.i, 1               ; <i32> [#uses=2]
  br label %bb1.i3.i

bb1.i3.i:                                         ; preds = %bb1.i3.i, %bb.i.i
  %result.i.i.0 = phi i32 [ 0, %bb.i.i ], [ %583, %bb1.i3.i ] ; <i32> [#uses=1]
  %indvar.i.i = phi i32 [ 0, %bb.i.i ], [ %indvar.next.i.i, %bb1.i3.i ] ; <i32> [#uses=2]
  %n.02.i.i = mul i32 %indvar.i.i, 12             ; <i32> [#uses=14]
  %tmp.i.i = add i32 %n.02.i.i, 12                ; <i32> [#uses=3]
  %tmp8.i.i = add i32 %n.02.i.i, 11               ; <i32> [#uses=1]
  %scevgep.i1.i = getelementptr [8000 x i32]* @data32, i32 0, i32 %tmp8.i.i ; <i32*> [#uses=1]
  %527 = getelementptr inbounds [8000 x i32]* @data32, i32 0, i32 %n.02.i.i ; <i32*> [#uses=1]
  %528 = load i32* %527, align 16                 ; <i32> [#uses=1]
  %tmp3.i.i.i.i.i.i.i.i.i.i.i.i.i.i = mul i32 %528, 269850533 ; <i32> [#uses=1]
  %529 = add i32 %result.i.i.0, -1138325064       ; <i32> [#uses=1]
  %530 = add nsw i32 %529, %tmp3.i.i.i.i.i.i.i.i.i.i.i.i.i.i ; <i32> [#uses=1]
  %531 = or i32 %n.02.i.i, 1                      ; <i32> [#uses=1]
  %532 = getelementptr inbounds [8000 x i32]* @data32, i32 0, i32 %531 ; <i32*> [#uses=1]
  %533 = load i32* %532, align 4                  ; <i32> [#uses=1]
  %tmp3.i.i.i.i.i.i.i.i.i.i.i.i.i = mul i32 %533, 269850533 ; <i32> [#uses=1]
  %534 = add i32 %tmp3.i.i.i.i.i.i.i.i.i.i.i.i.i, -1138325064 ; <i32> [#uses=1]
  %535 = add nsw i32 %534, %530                   ; <i32> [#uses=1]
  %536 = or i32 %n.02.i.i, 2                      ; <i32> [#uses=1]
  %537 = getelementptr inbounds [8000 x i32]* @data32, i32 0, i32 %536 ; <i32*> [#uses=1]
  %538 = load i32* %537, align 8                  ; <i32> [#uses=1]
  %tmp3.i.i.i.i.i.i.i.i.i.i.i.i = mul i32 %538, 269850533 ; <i32> [#uses=1]
  %539 = add i32 %tmp3.i.i.i.i.i.i.i.i.i.i.i.i, -1138325064 ; <i32> [#uses=1]
  %540 = add nsw i32 %539, %535                   ; <i32> [#uses=1]
  %541 = or i32 %n.02.i.i, 3                      ; <i32> [#uses=1]
  %542 = getelementptr inbounds [8000 x i32]* @data32, i32 0, i32 %541 ; <i32*> [#uses=1]
  %543 = load i32* %542, align 4                  ; <i32> [#uses=1]
  %tmp3.i.i.i.i.i.i.i.i.i.i.i = mul i32 %543, 269850533 ; <i32> [#uses=1]
  %544 = add i32 %tmp3.i.i.i.i.i.i.i.i.i.i.i, -1138325064 ; <i32> [#uses=1]
  %545 = add nsw i32 %544, %540                   ; <i32> [#uses=1]
  %546 = add nsw i32 %n.02.i.i, 4                 ; <i32> [#uses=1]
  %547 = getelementptr inbounds [8000 x i32]* @data32, i32 0, i32 %546 ; <i32*> [#uses=1]
  %548 = load i32* %547, align 16                 ; <i32> [#uses=1]
  %tmp3.i.i.i.i.i.i.i.i.i.i = mul i32 %548, 269850533 ; <i32> [#uses=1]
  %549 = add i32 %tmp3.i.i.i.i.i.i.i.i.i.i, -1138325064 ; <i32> [#uses=1]
  %550 = add nsw i32 %549, %545                   ; <i32> [#uses=1]
  %551 = add nsw i32 %n.02.i.i, 5                 ; <i32> [#uses=1]
  %552 = getelementptr inbounds [8000 x i32]* @data32, i32 0, i32 %551 ; <i32*> [#uses=1]
  %553 = load i32* %552, align 4                  ; <i32> [#uses=1]
  %tmp3.i.i.i.i.i.i.i.i.i = mul i32 %553, 269850533 ; <i32> [#uses=1]
  %554 = add i32 %tmp3.i.i.i.i.i.i.i.i.i, -1138325064 ; <i32> [#uses=1]
  %555 = add nsw i32 %554, %550                   ; <i32> [#uses=1]
  %556 = add nsw i32 %n.02.i.i, 6                 ; <i32> [#uses=1]
  %557 = getelementptr inbounds [8000 x i32]* @data32, i32 0, i32 %556 ; <i32*> [#uses=1]
  %558 = load i32* %557, align 8                  ; <i32> [#uses=1]
  %tmp3.i.i.i.i.i.i.i.i = mul i32 %558, 269850533 ; <i32> [#uses=1]
  %559 = add i32 %tmp3.i.i.i.i.i.i.i.i, -1138325064 ; <i32> [#uses=1]
  %560 = add nsw i32 %559, %555                   ; <i32> [#uses=1]
  %561 = add nsw i32 %n.02.i.i, 7                 ; <i32> [#uses=1]
  %562 = getelementptr inbounds [8000 x i32]* @data32, i32 0, i32 %561 ; <i32*> [#uses=1]
  %563 = load i32* %562, align 4                  ; <i32> [#uses=1]
  %tmp3.i.i.i.i.i.i.i = mul i32 %563, 269850533   ; <i32> [#uses=1]
  %564 = add i32 %tmp3.i.i.i.i.i.i.i, -1138325064 ; <i32> [#uses=1]
  %565 = add nsw i32 %564, %560                   ; <i32> [#uses=1]
  %566 = add nsw i32 %n.02.i.i, 8                 ; <i32> [#uses=1]
  %567 = getelementptr inbounds [8000 x i32]* @data32, i32 0, i32 %566 ; <i32*> [#uses=1]
  %568 = load i32* %567, align 16                 ; <i32> [#uses=1]
  %tmp3.i.i.i.i.i.i = mul i32 %568, 269850533     ; <i32> [#uses=1]
  %569 = add i32 %tmp3.i.i.i.i.i.i, -1138325064   ; <i32> [#uses=1]
  %570 = add nsw i32 %569, %565                   ; <i32> [#uses=1]
  %571 = add nsw i32 %n.02.i.i, 9                 ; <i32> [#uses=1]
  %572 = getelementptr inbounds [8000 x i32]* @data32, i32 0, i32 %571 ; <i32*> [#uses=1]
  %573 = load i32* %572, align 4                  ; <i32> [#uses=1]
  %tmp3.i.i.i.i.i = mul i32 %573, 269850533       ; <i32> [#uses=1]
  %574 = add i32 %tmp3.i.i.i.i.i, -1138325064     ; <i32> [#uses=1]
  %575 = add nsw i32 %574, %570                   ; <i32> [#uses=1]
  %576 = add nsw i32 %n.02.i.i, 10                ; <i32> [#uses=1]
  %577 = getelementptr inbounds [8000 x i32]* @data32, i32 0, i32 %576 ; <i32*> [#uses=1]
  %578 = load i32* %577, align 8                  ; <i32> [#uses=1]
  %tmp3.i.i1.i.i = mul i32 %578, 269850533        ; <i32> [#uses=1]
  %579 = add i32 %tmp3.i.i1.i.i, -1138325064      ; <i32> [#uses=1]
  %580 = add nsw i32 %579, %575                   ; <i32> [#uses=1]
  %581 = load i32* %scevgep.i1.i, align 4         ; <i32> [#uses=1]
  %tmp3.i.i.i2.i = mul i32 %581, 269850533        ; <i32> [#uses=1]
  %582 = add i32 %tmp3.i.i.i2.i, -1138325064      ; <i32> [#uses=1]
  %583 = add nsw i32 %582, %580                   ; <i32> [#uses=3]
  %584 = icmp slt i32 %tmp.i.i, 7989              ; <i1> [#uses=1]
  %indvar.next.i.i = add i32 %indvar.i.i, 1       ; <i32> [#uses=1]
  br i1 %584, label %bb1.i3.i, label %bb4.preheader.i4.i

bb4.preheader.i4.i:                               ; preds = %bb1.i3.i
  %585 = icmp slt i32 %tmp.i.i, 8000              ; <i1> [#uses=1]
  br i1 %585, label %bb.nph5.i.i, label %bb5.i.i

bb.nph5.i.i:                                      ; preds = %bb4.preheader.i4.i
  %tmp13.i.i = sub i32 7988, %n.02.i.i            ; <i32> [#uses=1]
  br label %bb3.i.i

bb3.i.i:                                          ; preds = %bb3.i.i, %bb.nph5.i.i
  %indvar10.i.i = phi i32 [ 0, %bb.nph5.i.i ], [ %indvar.next11.i.i, %bb3.i.i ] ; <i32> [#uses=2]
  %result.tmp.0.i.i = phi i32 [ %583, %bb.nph5.i.i ], [ %588, %bb3.i.i ] ; <i32> [#uses=1]
  %tmp14.i.i = add i32 %indvar10.i.i, %tmp.i.i    ; <i32> [#uses=1]
  %scevgep15.i.i = getelementptr [8000 x i32]* @data32, i32 0, i32 %tmp14.i.i ; <i32*> [#uses=1]
  %586 = load i32* %scevgep15.i.i, align 4        ; <i32> [#uses=1]
  %tmp3.i.i.i = mul i32 %586, 269850533           ; <i32> [#uses=1]
  %587 = add i32 %result.tmp.0.i.i, -1138325064   ; <i32> [#uses=1]
  %588 = add nsw i32 %587, %tmp3.i.i.i            ; <i32> [#uses=2]
  %indvar.next11.i.i = add i32 %indvar10.i.i, 1   ; <i32> [#uses=2]
  %exitcond.i5.i = icmp eq i32 %indvar.next11.i.i, %tmp13.i.i ; <i1> [#uses=1]
  br i1 %exitcond.i5.i, label %bb5.i.i, label %bb3.i.i

bb5.i.i:                                          ; preds = %bb3.i.i, %bb4.preheader.i4.i
  %589 = phi i32 [ %583, %bb4.preheader.i4.i ], [ %588, %bb3.i.i ] ; <i32> [#uses=1]
  %590 = load double* @init_value, align 8        ; <double> [#uses=1]
  %591 = fptosi double %590 to i32                ; <i32> [#uses=1]
  %tmp.i.i6.i = mul i32 %591, -1564285888         ; <i32> [#uses=1]
  %592 = add i32 %tmp.i.i6.i, -1269844480         ; <i32> [#uses=1]
  %593 = icmp eq i32 %592, %589                   ; <i1> [#uses=1]
  br i1 %593, label %_Z9check_sumIiEvT_.exit.i8.i, label %bb.i1.i7.i

bb.i1.i7.i:                                       ; preds = %bb5.i.i
  %594 = load i32* @current_test, align 4         ; <i32> [#uses=1]
  %595 = call i32 (i8*, ...)* @printf(i8* noalias getelementptr inbounds ([16 x i8]* @.str, i32 0, i32 0), i32 %594) nounwind ; <i32> [#uses=0]
  br label %_Z9check_sumIiEvT_.exit.i8.i

_Z9check_sumIiEvT_.exit.i8.i:                     ; preds = %bb.i1.i7.i, %bb5.i.i
  %596 = load i32* @iterations, align 4           ; <i32> [#uses=1]
  %597 = icmp slt i32 %tmp16.i.i, %596            ; <i1> [#uses=1]
  br i1 %597, label %bb.i.i, label %bb7.i9.i

bb7.i9.i:                                         ; preds = %_Z9check_sumIiEvT_.exit.i8.i, %_Z27test_for_loop_unroll_factorILi11EiEvPKT0_iPKc.exit.i
  %598 = call i32 @clock() nounwind               ; <i32> [#uses=1]
  %599 = load i32* @start_time, align 4           ; <i32> [#uses=1]
  %600 = sub i32 %598, %599                       ; <i32> [#uses=1]
  %601 = sitofp i32 %600 to double                ; <double> [#uses=1]
  %602 = fdiv double %601, 1.000000e+06           ; <double> [#uses=1]
  %603 = load %struct.one_result** @results, align 4 ; <%struct.one_result*> [#uses=3]
  %604 = icmp eq %struct.one_result* %603, null   ; <i1> [#uses=1]
  br i1 %604, label %bb1.i.i11.i, label %bb.i.i10.i

bb.i.i10.i:                                       ; preds = %bb7.i9.i
  %605 = load i32* @current_test, align 4         ; <i32> [#uses=1]
  %606 = load i32* @allocated_results, align 4    ; <i32> [#uses=1]
  %607 = icmp slt i32 %605, %606                  ; <i1> [#uses=1]
  br i1 %607, label %_ZN14for_loop_testsILi12EiE7do_testEPKiPKc.exit, label %bb1.i.i11.i

bb1.i.i11.i:                                      ; preds = %bb.i.i10.i, %bb7.i9.i
  %608 = load i32* @allocated_results, align 4    ; <i32> [#uses=1]
  %609 = add nsw i32 %608, 10                     ; <i32> [#uses=2]
  store i32 %609, i32* @allocated_results, align 4
  %610 = mul i32 %609, 12                         ; <i32> [#uses=1]
  %611 = bitcast %struct.one_result* %603 to i8*  ; <i8*> [#uses=1]
  %612 = call i8* @realloc(i8* %611, i32 %610) nounwind ; <i8*> [#uses=2]
  %613 = bitcast i8* %612 to %struct.one_result*  ; <%struct.one_result*> [#uses=2]
  store %struct.one_result* %613, %struct.one_result** @results, align 4
  %614 = icmp eq i8* %612, null                   ; <i1> [#uses=1]
  br i1 %614, label %bb2.i.i12.i, label %_ZN14for_loop_testsILi12EiE7do_testEPKiPKc.exit

bb2.i.i12.i:                                      ; preds = %bb1.i.i11.i
  %615 = load i32* @allocated_results, align 4    ; <i32> [#uses=1]
  %616 = call i32 (i8*, ...)* @printf(i8* noalias getelementptr inbounds ([31 x i8]* @.str11, i32 0, i32 0), i32 %615) nounwind ; <i32> [#uses=0]
  call void @exit(i32 -1) noreturn nounwind
  unreachable

_ZN14for_loop_testsILi12EiE7do_testEPKiPKc.exit:  ; preds = %bb1.i.i11.i, %bb.i.i10.i
  %617 = phi %struct.one_result* [ %603, %bb.i.i10.i ], [ %613, %bb1.i.i11.i ] ; <%struct.one_result*> [#uses=2]
  %618 = load i32* @current_test, align 4         ; <i32> [#uses=3]
  %619 = getelementptr inbounds %struct.one_result* %617, i32 %618, i32 0 ; <double*> [#uses=1]
  store double %602, double* %619, align 4
  %620 = getelementptr inbounds %struct.one_result* %617, i32 %618, i32 1 ; <i8**> [#uses=1]
  store i8* getelementptr inbounds ([32 x [100 x i8]]* @temp_string, i32 0, i32 11, i32 0), i8** %620, align 4
  %621 = add nsw i32 %618, 1                      ; <i32> [#uses=1]
  store i32 %621, i32* @current_test, align 4
  %622 = call i32 @clock() nounwind               ; <i32> [#uses=1]
  store i32 %622, i32* @start_time, align 4
  %623 = load i32* @iterations, align 4           ; <i32> [#uses=1]
  %624 = icmp sgt i32 %623, 0                     ; <i1> [#uses=1]
  br i1 %624, label %bb.i408, label %bb7.i447

bb.i408:                                          ; preds = %_Z9check_sumIiEvT_.exit.i446, %_ZN14for_loop_testsILi12EiE7do_testEPKiPKc.exit
  %i.06.i406 = phi i32 [ %tmp18.i407, %_Z9check_sumIiEvT_.exit.i446 ], [ 0, %_ZN14for_loop_testsILi12EiE7do_testEPKiPKc.exit ] ; <i32> [#uses=1]
  %tmp18.i407 = add i32 %i.06.i406, 1             ; <i32> [#uses=2]
  br label %bb1.i428

bb1.i428:                                         ; preds = %bb1.i428, %bb.i408
  %result.i404.0 = phi i32 [ 0, %bb.i408 ], [ %683, %bb1.i428 ] ; <i32> [#uses=1]
  %indvar.i409 = phi i32 [ 0, %bb.i408 ], [ %indvar.next.i427, %bb1.i428 ] ; <i32> [#uses=2]
  %n.02.i410 = mul i32 %indvar.i409, 13           ; <i32> [#uses=15]
  %tmp.i411 = add i32 %n.02.i410, 13              ; <i32> [#uses=3]
  %tmp8.i412 = add i32 %n.02.i410, 11             ; <i32> [#uses=1]
  %scevgep.i413 = getelementptr [8000 x i32]* @data32, i32 0, i32 %tmp8.i412 ; <i32*> [#uses=1]
  %tmp9.i414 = add i32 %n.02.i410, 12             ; <i32> [#uses=1]
  %scevgep10.i415 = getelementptr [8000 x i32]* @data32, i32 0, i32 %tmp9.i414 ; <i32*> [#uses=1]
  %625 = getelementptr inbounds [8000 x i32]* @data32, i32 0, i32 %n.02.i410 ; <i32*> [#uses=1]
  %626 = load i32* %625, align 4                  ; <i32> [#uses=1]
  %tmp3.i.i.i.i.i.i.i.i.i.i.i.i.i416 = mul i32 %626, 269850533 ; <i32> [#uses=1]
  %627 = add i32 %result.i404.0, -1138325064      ; <i32> [#uses=1]
  %628 = add nsw i32 %627, %tmp3.i.i.i.i.i.i.i.i.i.i.i.i.i416 ; <i32> [#uses=1]
  %629 = add nsw i32 %n.02.i410, 1                ; <i32> [#uses=1]
  %630 = getelementptr inbounds [8000 x i32]* @data32, i32 0, i32 %629 ; <i32*> [#uses=1]
  %631 = load i32* %630, align 4                  ; <i32> [#uses=1]
  %tmp3.i.i.i.i.i.i.i.i.i.i.i.i417 = mul i32 %631, 269850533 ; <i32> [#uses=1]
  %632 = add i32 %tmp3.i.i.i.i.i.i.i.i.i.i.i.i417, -1138325064 ; <i32> [#uses=1]
  %633 = add nsw i32 %632, %628                   ; <i32> [#uses=1]
  %634 = add nsw i32 %n.02.i410, 2                ; <i32> [#uses=1]
  %635 = getelementptr inbounds [8000 x i32]* @data32, i32 0, i32 %634 ; <i32*> [#uses=1]
  %636 = load i32* %635, align 4                  ; <i32> [#uses=1]
  %tmp3.i.i.i.i.i.i.i.i.i.i.i418 = mul i32 %636, 269850533 ; <i32> [#uses=1]
  %637 = add i32 %tmp3.i.i.i.i.i.i.i.i.i.i.i418, -1138325064 ; <i32> [#uses=1]
  %638 = add nsw i32 %637, %633                   ; <i32> [#uses=1]
  %639 = add nsw i32 %n.02.i410, 3                ; <i32> [#uses=1]
  %640 = getelementptr inbounds [8000 x i32]* @data32, i32 0, i32 %639 ; <i32*> [#uses=1]
  %641 = load i32* %640, align 4                  ; <i32> [#uses=1]
  %tmp3.i.i.i.i.i.i.i.i.i.i419 = mul i32 %641, 269850533 ; <i32> [#uses=1]
  %642 = add i32 %tmp3.i.i.i.i.i.i.i.i.i.i419, -1138325064 ; <i32> [#uses=1]
  %643 = add nsw i32 %642, %638                   ; <i32> [#uses=1]
  %644 = add nsw i32 %n.02.i410, 4                ; <i32> [#uses=1]
  %645 = getelementptr inbounds [8000 x i32]* @data32, i32 0, i32 %644 ; <i32*> [#uses=1]
  %646 = load i32* %645, align 4                  ; <i32> [#uses=1]
  %tmp3.i.i.i.i.i.i.i.i.i420 = mul i32 %646, 269850533 ; <i32> [#uses=1]
  %647 = add i32 %tmp3.i.i.i.i.i.i.i.i.i420, -1138325064 ; <i32> [#uses=1]
  %648 = add nsw i32 %647, %643                   ; <i32> [#uses=1]
  %649 = add nsw i32 %n.02.i410, 5                ; <i32> [#uses=1]
  %650 = getelementptr inbounds [8000 x i32]* @data32, i32 0, i32 %649 ; <i32*> [#uses=1]
  %651 = load i32* %650, align 4                  ; <i32> [#uses=1]
  %tmp3.i.i.i.i.i.i.i.i421 = mul i32 %651, 269850533 ; <i32> [#uses=1]
  %652 = add i32 %tmp3.i.i.i.i.i.i.i.i421, -1138325064 ; <i32> [#uses=1]
  %653 = add nsw i32 %652, %648                   ; <i32> [#uses=1]
  %654 = add nsw i32 %n.02.i410, 6                ; <i32> [#uses=1]
  %655 = getelementptr inbounds [8000 x i32]* @data32, i32 0, i32 %654 ; <i32*> [#uses=1]
  %656 = load i32* %655, align 4                  ; <i32> [#uses=1]
  %tmp3.i.i.i.i.i.i.i422 = mul i32 %656, 269850533 ; <i32> [#uses=1]
  %657 = add i32 %tmp3.i.i.i.i.i.i.i422, -1138325064 ; <i32> [#uses=1]
  %658 = add nsw i32 %657, %653                   ; <i32> [#uses=1]
  %659 = add nsw i32 %n.02.i410, 7                ; <i32> [#uses=1]
  %660 = getelementptr inbounds [8000 x i32]* @data32, i32 0, i32 %659 ; <i32*> [#uses=1]
  %661 = load i32* %660, align 4                  ; <i32> [#uses=1]
  %tmp3.i.i.i.i.i.i423 = mul i32 %661, 269850533  ; <i32> [#uses=1]
  %662 = add i32 %tmp3.i.i.i.i.i.i423, -1138325064 ; <i32> [#uses=1]
  %663 = add nsw i32 %662, %658                   ; <i32> [#uses=1]
  %664 = add nsw i32 %n.02.i410, 8                ; <i32> [#uses=1]
  %665 = getelementptr inbounds [8000 x i32]* @data32, i32 0, i32 %664 ; <i32*> [#uses=1]
  %666 = load i32* %665, align 4                  ; <i32> [#uses=1]
  %tmp3.i.i.i.i.i424 = mul i32 %666, 269850533    ; <i32> [#uses=1]
  %667 = add i32 %tmp3.i.i.i.i.i424, -1138325064  ; <i32> [#uses=1]
  %668 = add nsw i32 %667, %663                   ; <i32> [#uses=1]
  %669 = add nsw i32 %n.02.i410, 9                ; <i32> [#uses=1]
  %670 = getelementptr inbounds [8000 x i32]* @data32, i32 0, i32 %669 ; <i32*> [#uses=1]
  %671 = load i32* %670, align 4                  ; <i32> [#uses=1]
  %tmp3.i.i.i1.i = mul i32 %671, 269850533        ; <i32> [#uses=1]
  %672 = add i32 %tmp3.i.i.i1.i, -1138325064      ; <i32> [#uses=1]
  %673 = add nsw i32 %672, %668                   ; <i32> [#uses=1]
  %674 = add nsw i32 %n.02.i410, 10               ; <i32> [#uses=1]
  %675 = getelementptr inbounds [8000 x i32]* @data32, i32 0, i32 %674 ; <i32*> [#uses=1]
  %676 = load i32* %675, align 4                  ; <i32> [#uses=1]
  %tmp3.i.i2.i = mul i32 %676, 269850533          ; <i32> [#uses=1]
  %677 = load i32* %scevgep.i413, align 4         ; <i32> [#uses=1]
  %tmp3.i.i.i.i425 = mul i32 %677, 269850533      ; <i32> [#uses=1]
  %678 = add i32 %tmp3.i.i2.i, %673               ; <i32> [#uses=1]
  %679 = add nsw i32 %678, 2018317168             ; <i32> [#uses=1]
  %680 = add nsw i32 %679, %tmp3.i.i.i.i425       ; <i32> [#uses=1]
  %681 = load i32* %scevgep10.i415, align 4       ; <i32> [#uses=1]
  %tmp3.i.i.i426 = mul i32 %681, 269850533        ; <i32> [#uses=1]
  %682 = add i32 %tmp3.i.i.i426, -1138325064      ; <i32> [#uses=1]
  %683 = add nsw i32 %682, %680                   ; <i32> [#uses=3]
  %684 = icmp slt i32 %tmp.i411, 7988             ; <i1> [#uses=1]
  %indvar.next.i427 = add i32 %indvar.i409, 1     ; <i32> [#uses=1]
  br i1 %684, label %bb1.i428, label %bb4.preheader.i431

bb4.preheader.i431:                               ; preds = %bb1.i428
  %685 = icmp slt i32 %tmp.i411, 8000             ; <i1> [#uses=1]
  br i1 %685, label %bb.nph5.i433, label %bb5.i444

bb.nph5.i433:                                     ; preds = %bb4.preheader.i431
  %tmp15.i432 = sub i32 7987, %n.02.i410          ; <i32> [#uses=1]
  br label %bb3.i441

bb3.i441:                                         ; preds = %bb3.i441, %bb.nph5.i433
  %indvar12.i434 = phi i32 [ 0, %bb.nph5.i433 ], [ %indvar.next13.i439, %bb3.i441 ] ; <i32> [#uses=2]
  %result.tmp.0.i435 = phi i32 [ %683, %bb.nph5.i433 ], [ %688, %bb3.i441 ] ; <i32> [#uses=1]
  %tmp16.i436 = add i32 %indvar12.i434, %tmp.i411 ; <i32> [#uses=1]
  %scevgep17.i437 = getelementptr [8000 x i32]* @data32, i32 0, i32 %tmp16.i436 ; <i32*> [#uses=1]
  %686 = load i32* %scevgep17.i437, align 4       ; <i32> [#uses=1]
  %tmp3.i.i438 = mul i32 %686, 269850533          ; <i32> [#uses=1]
  %687 = add i32 %result.tmp.0.i435, -1138325064  ; <i32> [#uses=1]
  %688 = add nsw i32 %687, %tmp3.i.i438           ; <i32> [#uses=2]
  %indvar.next13.i439 = add i32 %indvar12.i434, 1 ; <i32> [#uses=2]
  %exitcond.i440 = icmp eq i32 %indvar.next13.i439, %tmp15.i432 ; <i1> [#uses=1]
  br i1 %exitcond.i440, label %bb5.i444, label %bb3.i441

bb5.i444:                                         ; preds = %bb3.i441, %bb4.preheader.i431
  %689 = phi i32 [ %683, %bb4.preheader.i431 ], [ %688, %bb3.i441 ] ; <i32> [#uses=1]
  %690 = load double* @init_value, align 8        ; <double> [#uses=1]
  %691 = fptosi double %690 to i32                ; <i32> [#uses=1]
  %tmp.i.i443 = mul i32 %691, -1564285888         ; <i32> [#uses=1]
  %692 = add i32 %tmp.i.i443, -1269844480         ; <i32> [#uses=1]
  %693 = icmp eq i32 %692, %689                   ; <i1> [#uses=1]
  br i1 %693, label %_Z9check_sumIiEvT_.exit.i446, label %bb.i1.i445

bb.i1.i445:                                       ; preds = %bb5.i444
  %694 = load i32* @current_test, align 4         ; <i32> [#uses=1]
  %695 = call i32 (i8*, ...)* @printf(i8* noalias getelementptr inbounds ([16 x i8]* @.str, i32 0, i32 0), i32 %694) nounwind ; <i32> [#uses=0]
  br label %_Z9check_sumIiEvT_.exit.i446

_Z9check_sumIiEvT_.exit.i446:                     ; preds = %bb.i1.i445, %bb5.i444
  %696 = load i32* @iterations, align 4           ; <i32> [#uses=1]
  %697 = icmp slt i32 %tmp18.i407, %696           ; <i1> [#uses=1]
  br i1 %697, label %bb.i408, label %bb7.i447

bb7.i447:                                         ; preds = %_Z9check_sumIiEvT_.exit.i446, %_ZN14for_loop_testsILi12EiE7do_testEPKiPKc.exit
  %698 = call i32 @clock() nounwind               ; <i32> [#uses=1]
  %699 = load i32* @start_time, align 4           ; <i32> [#uses=1]
  %700 = sub i32 %698, %699                       ; <i32> [#uses=1]
  %701 = sitofp i32 %700 to double                ; <double> [#uses=1]
  %702 = fdiv double %701, 1.000000e+06           ; <double> [#uses=1]
  %703 = load %struct.one_result** @results, align 4 ; <%struct.one_result*> [#uses=3]
  %704 = icmp eq %struct.one_result* %703, null   ; <i1> [#uses=1]
  br i1 %704, label %bb1.i.i449, label %bb.i.i448

bb.i.i448:                                        ; preds = %bb7.i447
  %705 = load i32* @current_test, align 4         ; <i32> [#uses=1]
  %706 = load i32* @allocated_results, align 4    ; <i32> [#uses=1]
  %707 = icmp slt i32 %705, %706                  ; <i1> [#uses=1]
  br i1 %707, label %_Z27test_for_loop_unroll_factorILi13EiEvPKT0_iPKc.exit, label %bb1.i.i449

bb1.i.i449:                                       ; preds = %bb.i.i448, %bb7.i447
  %708 = load i32* @allocated_results, align 4    ; <i32> [#uses=1]
  %709 = add nsw i32 %708, 10                     ; <i32> [#uses=2]
  store i32 %709, i32* @allocated_results, align 4
  %710 = mul i32 %709, 12                         ; <i32> [#uses=1]
  %711 = bitcast %struct.one_result* %703 to i8*  ; <i8*> [#uses=1]
  %712 = call i8* @realloc(i8* %711, i32 %710) nounwind ; <i8*> [#uses=2]
  %713 = bitcast i8* %712 to %struct.one_result*  ; <%struct.one_result*> [#uses=2]
  store %struct.one_result* %713, %struct.one_result** @results, align 4
  %714 = icmp eq i8* %712, null                   ; <i1> [#uses=1]
  br i1 %714, label %bb2.i.i450, label %_Z27test_for_loop_unroll_factorILi13EiEvPKT0_iPKc.exit

bb2.i.i450:                                       ; preds = %bb1.i.i449
  %715 = load i32* @allocated_results, align 4    ; <i32> [#uses=1]
  %716 = call i32 (i8*, ...)* @printf(i8* noalias getelementptr inbounds ([31 x i8]* @.str11, i32 0, i32 0), i32 %715) nounwind ; <i32> [#uses=0]
  call void @exit(i32 -1) noreturn nounwind
  unreachable

_Z27test_for_loop_unroll_factorILi13EiEvPKT0_iPKc.exit: ; preds = %bb1.i.i449, %bb.i.i448
  %717 = phi %struct.one_result* [ %703, %bb.i.i448 ], [ %713, %bb1.i.i449 ] ; <%struct.one_result*> [#uses=2]
  %718 = load i32* @current_test, align 4         ; <i32> [#uses=3]
  %719 = getelementptr inbounds %struct.one_result* %717, i32 %718, i32 0 ; <double*> [#uses=1]
  store double %702, double* %719, align 4
  %720 = getelementptr inbounds %struct.one_result* %717, i32 %718, i32 1 ; <i8**> [#uses=1]
  store i8* getelementptr inbounds ([32 x [100 x i8]]* @temp_string, i32 0, i32 12, i32 0), i8** %720, align 4
  %721 = add nsw i32 %718, 1                      ; <i32> [#uses=1]
  store i32 %721, i32* @current_test, align 4
  %722 = call i32 @clock() nounwind               ; <i32> [#uses=1]
  store i32 %722, i32* @start_time, align 4
  %723 = load i32* @iterations, align 4           ; <i32> [#uses=1]
  %724 = icmp sgt i32 %723, 0                     ; <i1> [#uses=1]
  br i1 %724, label %bb.i361, label %bb7.i400

bb.i361:                                          ; preds = %_Z9check_sumIiEvT_.exit.i399, %_Z27test_for_loop_unroll_factorILi13EiEvPKT0_iPKc.exit
  %i.06.i359 = phi i32 [ %tmp20.i360, %_Z9check_sumIiEvT_.exit.i399 ], [ 0, %_Z27test_for_loop_unroll_factorILi13EiEvPKT0_iPKc.exit ] ; <i32> [#uses=1]
  %tmp20.i360 = add i32 %i.06.i359, 1             ; <i32> [#uses=2]
  br label %bb1.i384

bb1.i384:                                         ; preds = %bb1.i384, %bb.i361
  %result.i357.0 = phi i32 [ 0, %bb.i361 ], [ %786, %bb1.i384 ] ; <i32> [#uses=1]
  %indvar.i362 = phi i32 [ 0, %bb.i361 ], [ %indvar.next.i383, %bb1.i384 ] ; <i32> [#uses=2]
  %n.02.i363 = mul i32 %indvar.i362, 14           ; <i32> [#uses=16]
  %tmp.i364 = add i32 %n.02.i363, 14              ; <i32> [#uses=3]
  %tmp8.i365 = add i32 %n.02.i363, 11             ; <i32> [#uses=1]
  %scevgep.i366 = getelementptr [8000 x i32]* @data32, i32 0, i32 %tmp8.i365 ; <i32*> [#uses=1]
  %tmp9.i367 = add i32 %n.02.i363, 12             ; <i32> [#uses=1]
  %scevgep10.i368 = getelementptr [8000 x i32]* @data32, i32 0, i32 %tmp9.i367 ; <i32*> [#uses=1]
  %tmp11.i369 = add i32 %n.02.i363, 13            ; <i32> [#uses=1]
  %scevgep12.i370 = getelementptr [8000 x i32]* @data32, i32 0, i32 %tmp11.i369 ; <i32*> [#uses=1]
  %725 = getelementptr inbounds [8000 x i32]* @data32, i32 0, i32 %n.02.i363 ; <i32*> [#uses=1]
  %726 = load i32* %725, align 8                  ; <i32> [#uses=1]
  %tmp3.i.i.i.i.i.i.i.i.i.i.i.i.i371 = mul i32 %726, 269850533 ; <i32> [#uses=1]
  %727 = add i32 %result.i357.0, -1138325064      ; <i32> [#uses=1]
  %728 = add nsw i32 %727, %tmp3.i.i.i.i.i.i.i.i.i.i.i.i.i371 ; <i32> [#uses=1]
  %729 = or i32 %n.02.i363, 1                     ; <i32> [#uses=1]
  %730 = getelementptr inbounds [8000 x i32]* @data32, i32 0, i32 %729 ; <i32*> [#uses=1]
  %731 = load i32* %730, align 4                  ; <i32> [#uses=1]
  %tmp3.i.i.i.i.i.i.i.i.i.i.i.i372 = mul i32 %731, 269850533 ; <i32> [#uses=1]
  %732 = add i32 %tmp3.i.i.i.i.i.i.i.i.i.i.i.i372, -1138325064 ; <i32> [#uses=1]
  %733 = add nsw i32 %732, %728                   ; <i32> [#uses=1]
  %734 = add nsw i32 %n.02.i363, 2                ; <i32> [#uses=1]
  %735 = getelementptr inbounds [8000 x i32]* @data32, i32 0, i32 %734 ; <i32*> [#uses=1]
  %736 = load i32* %735, align 8                  ; <i32> [#uses=1]
  %tmp3.i.i.i.i.i.i.i.i.i.i.i373 = mul i32 %736, 269850533 ; <i32> [#uses=1]
  %737 = add i32 %tmp3.i.i.i.i.i.i.i.i.i.i.i373, -1138325064 ; <i32> [#uses=1]
  %738 = add nsw i32 %737, %733                   ; <i32> [#uses=1]
  %739 = add nsw i32 %n.02.i363, 3                ; <i32> [#uses=1]
  %740 = getelementptr inbounds [8000 x i32]* @data32, i32 0, i32 %739 ; <i32*> [#uses=1]
  %741 = load i32* %740, align 4                  ; <i32> [#uses=1]
  %tmp3.i.i.i.i.i.i.i.i.i.i374 = mul i32 %741, 269850533 ; <i32> [#uses=1]
  %742 = add i32 %tmp3.i.i.i.i.i.i.i.i.i.i374, -1138325064 ; <i32> [#uses=1]
  %743 = add nsw i32 %742, %738                   ; <i32> [#uses=1]
  %744 = add nsw i32 %n.02.i363, 4                ; <i32> [#uses=1]
  %745 = getelementptr inbounds [8000 x i32]* @data32, i32 0, i32 %744 ; <i32*> [#uses=1]
  %746 = load i32* %745, align 8                  ; <i32> [#uses=1]
  %tmp3.i.i.i.i.i.i.i.i.i375 = mul i32 %746, 269850533 ; <i32> [#uses=1]
  %747 = add i32 %tmp3.i.i.i.i.i.i.i.i.i375, -1138325064 ; <i32> [#uses=1]
  %748 = add nsw i32 %747, %743                   ; <i32> [#uses=1]
  %749 = add nsw i32 %n.02.i363, 5                ; <i32> [#uses=1]
  %750 = getelementptr inbounds [8000 x i32]* @data32, i32 0, i32 %749 ; <i32*> [#uses=1]
  %751 = load i32* %750, align 4                  ; <i32> [#uses=1]
  %tmp3.i.i.i.i.i.i.i.i376 = mul i32 %751, 269850533 ; <i32> [#uses=1]
  %752 = add i32 %tmp3.i.i.i.i.i.i.i.i376, -1138325064 ; <i32> [#uses=1]
  %753 = add nsw i32 %752, %748                   ; <i32> [#uses=1]
  %754 = add nsw i32 %n.02.i363, 6                ; <i32> [#uses=1]
  %755 = getelementptr inbounds [8000 x i32]* @data32, i32 0, i32 %754 ; <i32*> [#uses=1]
  %756 = load i32* %755, align 8                  ; <i32> [#uses=1]
  %tmp3.i.i.i.i.i.i.i377 = mul i32 %756, 269850533 ; <i32> [#uses=1]
  %757 = add i32 %tmp3.i.i.i.i.i.i.i377, -1138325064 ; <i32> [#uses=1]
  %758 = add nsw i32 %757, %753                   ; <i32> [#uses=1]
  %759 = add nsw i32 %n.02.i363, 7                ; <i32> [#uses=1]
  %760 = getelementptr inbounds [8000 x i32]* @data32, i32 0, i32 %759 ; <i32*> [#uses=1]
  %761 = load i32* %760, align 4                  ; <i32> [#uses=1]
  %tmp3.i.i.i.i.i.i378 = mul i32 %761, 269850533  ; <i32> [#uses=1]
  %762 = add i32 %tmp3.i.i.i.i.i.i378, -1138325064 ; <i32> [#uses=1]
  %763 = add nsw i32 %762, %758                   ; <i32> [#uses=1]
  %764 = add nsw i32 %n.02.i363, 8                ; <i32> [#uses=1]
  %765 = getelementptr inbounds [8000 x i32]* @data32, i32 0, i32 %764 ; <i32*> [#uses=1]
  %766 = load i32* %765, align 8                  ; <i32> [#uses=1]
  %tmp3.i.i.i.i1.i = mul i32 %766, 269850533      ; <i32> [#uses=1]
  %767 = add i32 %tmp3.i.i.i.i1.i, -1138325064    ; <i32> [#uses=1]
  %768 = add nsw i32 %767, %763                   ; <i32> [#uses=1]
  %769 = add nsw i32 %n.02.i363, 9                ; <i32> [#uses=1]
  %770 = getelementptr inbounds [8000 x i32]* @data32, i32 0, i32 %769 ; <i32*> [#uses=1]
  %771 = load i32* %770, align 4                  ; <i32> [#uses=1]
  %tmp3.i.i.i2.i379 = mul i32 %771, 269850533     ; <i32> [#uses=1]
  %772 = add i32 %tmp3.i.i.i2.i379, -1138325064   ; <i32> [#uses=1]
  %773 = add nsw i32 %772, %768                   ; <i32> [#uses=1]
  %774 = add nsw i32 %n.02.i363, 10               ; <i32> [#uses=1]
  %775 = getelementptr inbounds [8000 x i32]* @data32, i32 0, i32 %774 ; <i32*> [#uses=1]
  %776 = load i32* %775, align 8                  ; <i32> [#uses=1]
  %tmp3.i.i3.i = mul i32 %776, 269850533          ; <i32> [#uses=1]
  %777 = add i32 %tmp3.i.i3.i, -1138325064        ; <i32> [#uses=1]
  %778 = add nsw i32 %777, %773                   ; <i32> [#uses=1]
  %779 = load i32* %scevgep.i366, align 4         ; <i32> [#uses=1]
  %tmp3.i.i.i.i.i380 = mul i32 %779, 269850533    ; <i32> [#uses=1]
  %780 = load i32* %scevgep10.i368, align 8       ; <i32> [#uses=1]
  %tmp3.i.i.i.i381 = mul i32 %780, 269850533      ; <i32> [#uses=1]
  %781 = add i32 %tmp3.i.i.i.i.i380, %778         ; <i32> [#uses=1]
  %782 = add nsw i32 %781, 2018317168             ; <i32> [#uses=1]
  %783 = add nsw i32 %782, %tmp3.i.i.i.i381       ; <i32> [#uses=1]
  %784 = load i32* %scevgep12.i370, align 4       ; <i32> [#uses=1]
  %tmp3.i.i.i382 = mul i32 %784, 269850533        ; <i32> [#uses=1]
  %785 = add i32 %tmp3.i.i.i382, -1138325064      ; <i32> [#uses=1]
  %786 = add nsw i32 %785, %783                   ; <i32> [#uses=3]
  %787 = icmp slt i32 %tmp.i364, 7987             ; <i1> [#uses=1]
  %indvar.next.i383 = add i32 %indvar.i362, 1     ; <i32> [#uses=1]
  br i1 %787, label %bb1.i384, label %bb4.preheader.i387

bb4.preheader.i387:                               ; preds = %bb1.i384
  %788 = icmp slt i32 %tmp.i364, 8000             ; <i1> [#uses=1]
  br i1 %788, label %bb.nph5.i389, label %bb5.i397

bb.nph5.i389:                                     ; preds = %bb4.preheader.i387
  %tmp17.i388 = sub i32 7986, %n.02.i363          ; <i32> [#uses=1]
  br label %bb3.i394

bb3.i394:                                         ; preds = %bb3.i394, %bb.nph5.i389
  %indvar14.i = phi i32 [ 0, %bb.nph5.i389 ], [ %indvar.next15.i, %bb3.i394 ] ; <i32> [#uses=2]
  %result.tmp.0.i390 = phi i32 [ %786, %bb.nph5.i389 ], [ %791, %bb3.i394 ] ; <i32> [#uses=1]
  %tmp18.i391 = add i32 %indvar14.i, %tmp.i364    ; <i32> [#uses=1]
  %scevgep19.i = getelementptr [8000 x i32]* @data32, i32 0, i32 %tmp18.i391 ; <i32*> [#uses=1]
  %789 = load i32* %scevgep19.i, align 4          ; <i32> [#uses=1]
  %tmp3.i.i392 = mul i32 %789, 269850533          ; <i32> [#uses=1]
  %790 = add i32 %result.tmp.0.i390, -1138325064  ; <i32> [#uses=1]
  %791 = add nsw i32 %790, %tmp3.i.i392           ; <i32> [#uses=2]
  %indvar.next15.i = add i32 %indvar14.i, 1       ; <i32> [#uses=2]
  %exitcond.i393 = icmp eq i32 %indvar.next15.i, %tmp17.i388 ; <i1> [#uses=1]
  br i1 %exitcond.i393, label %bb5.i397, label %bb3.i394

bb5.i397:                                         ; preds = %bb3.i394, %bb4.preheader.i387
  %792 = phi i32 [ %786, %bb4.preheader.i387 ], [ %791, %bb3.i394 ] ; <i32> [#uses=1]
  %793 = load double* @init_value, align 8        ; <double> [#uses=1]
  %794 = fptosi double %793 to i32                ; <i32> [#uses=1]
  %tmp.i.i396 = mul i32 %794, -1564285888         ; <i32> [#uses=1]
  %795 = add i32 %tmp.i.i396, -1269844480         ; <i32> [#uses=1]
  %796 = icmp eq i32 %795, %792                   ; <i1> [#uses=1]
  br i1 %796, label %_Z9check_sumIiEvT_.exit.i399, label %bb.i1.i398

bb.i1.i398:                                       ; preds = %bb5.i397
  %797 = load i32* @current_test, align 4         ; <i32> [#uses=1]
  %798 = call i32 (i8*, ...)* @printf(i8* noalias getelementptr inbounds ([16 x i8]* @.str, i32 0, i32 0), i32 %797) nounwind ; <i32> [#uses=0]
  br label %_Z9check_sumIiEvT_.exit.i399

_Z9check_sumIiEvT_.exit.i399:                     ; preds = %bb.i1.i398, %bb5.i397
  %799 = load i32* @iterations, align 4           ; <i32> [#uses=1]
  %800 = icmp slt i32 %tmp20.i360, %799           ; <i1> [#uses=1]
  br i1 %800, label %bb.i361, label %bb7.i400

bb7.i400:                                         ; preds = %_Z9check_sumIiEvT_.exit.i399, %_Z27test_for_loop_unroll_factorILi13EiEvPKT0_iPKc.exit
  %801 = call i32 @clock() nounwind               ; <i32> [#uses=1]
  %802 = load i32* @start_time, align 4           ; <i32> [#uses=1]
  %803 = sub i32 %801, %802                       ; <i32> [#uses=1]
  %804 = sitofp i32 %803 to double                ; <double> [#uses=1]
  %805 = fdiv double %804, 1.000000e+06           ; <double> [#uses=1]
  %806 = load %struct.one_result** @results, align 4 ; <%struct.one_result*> [#uses=3]
  %807 = icmp eq %struct.one_result* %806, null   ; <i1> [#uses=1]
  br i1 %807, label %bb1.i.i402, label %bb.i.i401

bb.i.i401:                                        ; preds = %bb7.i400
  %808 = load i32* @current_test, align 4         ; <i32> [#uses=1]
  %809 = load i32* @allocated_results, align 4    ; <i32> [#uses=1]
  %810 = icmp slt i32 %808, %809                  ; <i1> [#uses=1]
  br i1 %810, label %_Z27test_for_loop_unroll_factorILi14EiEvPKT0_iPKc.exit, label %bb1.i.i402

bb1.i.i402:                                       ; preds = %bb.i.i401, %bb7.i400
  %811 = load i32* @allocated_results, align 4    ; <i32> [#uses=1]
  %812 = add nsw i32 %811, 10                     ; <i32> [#uses=2]
  store i32 %812, i32* @allocated_results, align 4
  %813 = mul i32 %812, 12                         ; <i32> [#uses=1]
  %814 = bitcast %struct.one_result* %806 to i8*  ; <i8*> [#uses=1]
  %815 = call i8* @realloc(i8* %814, i32 %813) nounwind ; <i8*> [#uses=2]
  %816 = bitcast i8* %815 to %struct.one_result*  ; <%struct.one_result*> [#uses=2]
  store %struct.one_result* %816, %struct.one_result** @results, align 4
  %817 = icmp eq i8* %815, null                   ; <i1> [#uses=1]
  br i1 %817, label %bb2.i.i403, label %_Z27test_for_loop_unroll_factorILi14EiEvPKT0_iPKc.exit

bb2.i.i403:                                       ; preds = %bb1.i.i402
  %818 = load i32* @allocated_results, align 4    ; <i32> [#uses=1]
  %819 = call i32 (i8*, ...)* @printf(i8* noalias getelementptr inbounds ([31 x i8]* @.str11, i32 0, i32 0), i32 %818) nounwind ; <i32> [#uses=0]
  call void @exit(i32 -1) noreturn nounwind
  unreachable

_Z27test_for_loop_unroll_factorILi14EiEvPKT0_iPKc.exit: ; preds = %bb1.i.i402, %bb.i.i401
  %820 = phi %struct.one_result* [ %806, %bb.i.i401 ], [ %816, %bb1.i.i402 ] ; <%struct.one_result*> [#uses=2]
  %821 = load i32* @current_test, align 4         ; <i32> [#uses=3]
  %822 = getelementptr inbounds %struct.one_result* %820, i32 %821, i32 0 ; <double*> [#uses=1]
  store double %805, double* %822, align 4
  %823 = getelementptr inbounds %struct.one_result* %820, i32 %821, i32 1 ; <i8**> [#uses=1]
  store i8* getelementptr inbounds ([32 x [100 x i8]]* @temp_string, i32 0, i32 13, i32 0), i8** %823, align 4
  %824 = add nsw i32 %821, 1                      ; <i32> [#uses=1]
  store i32 %824, i32* @current_test, align 4
  %825 = call i32 @clock() nounwind               ; <i32> [#uses=1]
  store i32 %825, i32* @start_time, align 4
  %826 = load i32* @iterations, align 4           ; <i32> [#uses=1]
  %827 = icmp sgt i32 %826, 0                     ; <i1> [#uses=1]
  br i1 %827, label %bb.i314, label %bb7.i353

bb.i314:                                          ; preds = %_Z9check_sumIiEvT_.exit.i352, %_Z27test_for_loop_unroll_factorILi14EiEvPKT0_iPKc.exit
  %i.06.i312 = phi i32 [ %tmp22.i313, %_Z9check_sumIiEvT_.exit.i352 ], [ 0, %_Z27test_for_loop_unroll_factorILi14EiEvPKT0_iPKc.exit ] ; <i32> [#uses=1]
  %tmp22.i313 = add i32 %i.06.i312, 1             ; <i32> [#uses=2]
  br label %bb1.i338

bb1.i338:                                         ; preds = %bb1.i338, %bb.i314
  %result.i310.0 = phi i32 [ 0, %bb.i314 ], [ %892, %bb1.i338 ] ; <i32> [#uses=1]
  %indvar.i315 = phi i32 [ 0, %bb.i314 ], [ %indvar.next.i337, %bb1.i338 ] ; <i32> [#uses=2]
  %n.02.i316 = mul i32 %indvar.i315, 15           ; <i32> [#uses=17]
  %tmp.i317 = add i32 %n.02.i316, 15              ; <i32> [#uses=3]
  %tmp8.i318 = add i32 %n.02.i316, 11             ; <i32> [#uses=1]
  %scevgep.i319 = getelementptr [8000 x i32]* @data32, i32 0, i32 %tmp8.i318 ; <i32*> [#uses=1]
  %tmp9.i320 = add i32 %n.02.i316, 12             ; <i32> [#uses=1]
  %scevgep10.i321 = getelementptr [8000 x i32]* @data32, i32 0, i32 %tmp9.i320 ; <i32*> [#uses=1]
  %tmp11.i322 = add i32 %n.02.i316, 13            ; <i32> [#uses=1]
  %scevgep12.i323 = getelementptr [8000 x i32]* @data32, i32 0, i32 %tmp11.i322 ; <i32*> [#uses=1]
  %tmp13.i324 = add i32 %n.02.i316, 14            ; <i32> [#uses=1]
  %scevgep14.i325 = getelementptr [8000 x i32]* @data32, i32 0, i32 %tmp13.i324 ; <i32*> [#uses=1]
  %828 = getelementptr inbounds [8000 x i32]* @data32, i32 0, i32 %n.02.i316 ; <i32*> [#uses=1]
  %829 = load i32* %828, align 4                  ; <i32> [#uses=1]
  %tmp3.i.i.i.i.i.i.i.i.i.i.i.i.i326 = mul i32 %829, 269850533 ; <i32> [#uses=1]
  %830 = add i32 %result.i310.0, -1138325064      ; <i32> [#uses=1]
  %831 = add nsw i32 %830, %tmp3.i.i.i.i.i.i.i.i.i.i.i.i.i326 ; <i32> [#uses=1]
  %832 = add nsw i32 %n.02.i316, 1                ; <i32> [#uses=1]
  %833 = getelementptr inbounds [8000 x i32]* @data32, i32 0, i32 %832 ; <i32*> [#uses=1]
  %834 = load i32* %833, align 4                  ; <i32> [#uses=1]
  %tmp3.i.i.i.i.i.i.i.i.i.i.i.i327 = mul i32 %834, 269850533 ; <i32> [#uses=1]
  %835 = add i32 %tmp3.i.i.i.i.i.i.i.i.i.i.i.i327, -1138325064 ; <i32> [#uses=1]
  %836 = add nsw i32 %835, %831                   ; <i32> [#uses=1]
  %837 = add nsw i32 %n.02.i316, 2                ; <i32> [#uses=1]
  %838 = getelementptr inbounds [8000 x i32]* @data32, i32 0, i32 %837 ; <i32*> [#uses=1]
  %839 = load i32* %838, align 4                  ; <i32> [#uses=1]
  %tmp3.i.i.i.i.i.i.i.i.i.i.i328 = mul i32 %839, 269850533 ; <i32> [#uses=1]
  %840 = add i32 %tmp3.i.i.i.i.i.i.i.i.i.i.i328, -1138325064 ; <i32> [#uses=1]
  %841 = add nsw i32 %840, %836                   ; <i32> [#uses=1]
  %842 = add nsw i32 %n.02.i316, 3                ; <i32> [#uses=1]
  %843 = getelementptr inbounds [8000 x i32]* @data32, i32 0, i32 %842 ; <i32*> [#uses=1]
  %844 = load i32* %843, align 4                  ; <i32> [#uses=1]
  %tmp3.i.i.i.i.i.i.i.i.i.i329 = mul i32 %844, 269850533 ; <i32> [#uses=1]
  %845 = add i32 %tmp3.i.i.i.i.i.i.i.i.i.i329, -1138325064 ; <i32> [#uses=1]
  %846 = add nsw i32 %845, %841                   ; <i32> [#uses=1]
  %847 = add nsw i32 %n.02.i316, 4                ; <i32> [#uses=1]
  %848 = getelementptr inbounds [8000 x i32]* @data32, i32 0, i32 %847 ; <i32*> [#uses=1]
  %849 = load i32* %848, align 4                  ; <i32> [#uses=1]
  %tmp3.i.i.i.i.i.i.i.i.i330 = mul i32 %849, 269850533 ; <i32> [#uses=1]
  %850 = add i32 %tmp3.i.i.i.i.i.i.i.i.i330, -1138325064 ; <i32> [#uses=1]
  %851 = add nsw i32 %850, %846                   ; <i32> [#uses=1]
  %852 = add nsw i32 %n.02.i316, 5                ; <i32> [#uses=1]
  %853 = getelementptr inbounds [8000 x i32]* @data32, i32 0, i32 %852 ; <i32*> [#uses=1]
  %854 = load i32* %853, align 4                  ; <i32> [#uses=1]
  %tmp3.i.i.i.i.i.i.i.i331 = mul i32 %854, 269850533 ; <i32> [#uses=1]
  %855 = add i32 %tmp3.i.i.i.i.i.i.i.i331, -1138325064 ; <i32> [#uses=1]
  %856 = add nsw i32 %855, %851                   ; <i32> [#uses=1]
  %857 = add nsw i32 %n.02.i316, 6                ; <i32> [#uses=1]
  %858 = getelementptr inbounds [8000 x i32]* @data32, i32 0, i32 %857 ; <i32*> [#uses=1]
  %859 = load i32* %858, align 4                  ; <i32> [#uses=1]
  %tmp3.i.i.i.i.i.i.i332 = mul i32 %859, 269850533 ; <i32> [#uses=1]
  %860 = add i32 %tmp3.i.i.i.i.i.i.i332, -1138325064 ; <i32> [#uses=1]
  %861 = add nsw i32 %860, %856                   ; <i32> [#uses=1]
  %862 = add nsw i32 %n.02.i316, 7                ; <i32> [#uses=1]
  %863 = getelementptr inbounds [8000 x i32]* @data32, i32 0, i32 %862 ; <i32*> [#uses=1]
  %864 = load i32* %863, align 4                  ; <i32> [#uses=1]
  %tmp3.i.i.i.i.i1.i = mul i32 %864, 269850533    ; <i32> [#uses=1]
  %865 = add i32 %tmp3.i.i.i.i.i1.i, -1138325064  ; <i32> [#uses=1]
  %866 = add nsw i32 %865, %861                   ; <i32> [#uses=1]
  %867 = add nsw i32 %n.02.i316, 8                ; <i32> [#uses=1]
  %868 = getelementptr inbounds [8000 x i32]* @data32, i32 0, i32 %867 ; <i32*> [#uses=1]
  %869 = load i32* %868, align 4                  ; <i32> [#uses=1]
  %tmp3.i.i.i.i2.i = mul i32 %869, 269850533      ; <i32> [#uses=1]
  %870 = add i32 %tmp3.i.i.i.i2.i, -1138325064    ; <i32> [#uses=1]
  %871 = add nsw i32 %870, %866                   ; <i32> [#uses=1]
  %872 = add nsw i32 %n.02.i316, 9                ; <i32> [#uses=1]
  %873 = getelementptr inbounds [8000 x i32]* @data32, i32 0, i32 %872 ; <i32*> [#uses=1]
  %874 = load i32* %873, align 4                  ; <i32> [#uses=1]
  %tmp3.i.i.i3.i = mul i32 %874, 269850533        ; <i32> [#uses=1]
  %875 = add i32 %tmp3.i.i.i3.i, -1138325064      ; <i32> [#uses=1]
  %876 = add nsw i32 %875, %871                   ; <i32> [#uses=1]
  %877 = add nsw i32 %n.02.i316, 10               ; <i32> [#uses=1]
  %878 = getelementptr inbounds [8000 x i32]* @data32, i32 0, i32 %877 ; <i32*> [#uses=1]
  %879 = load i32* %878, align 4                  ; <i32> [#uses=1]
  %tmp3.i.i4.i = mul i32 %879, 269850533          ; <i32> [#uses=1]
  %880 = load i32* %scevgep.i319, align 4         ; <i32> [#uses=1]
  %tmp3.i.i.i.i.i.i333 = mul i32 %880, 269850533  ; <i32> [#uses=1]
  %881 = add i32 %tmp3.i.i4.i, %876               ; <i32> [#uses=1]
  %882 = add nsw i32 %881, 2018317168             ; <i32> [#uses=1]
  %883 = add nsw i32 %882, %tmp3.i.i.i.i.i.i333   ; <i32> [#uses=1]
  %884 = load i32* %scevgep10.i321, align 4       ; <i32> [#uses=1]
  %tmp3.i.i.i.i.i334 = mul i32 %884, 269850533    ; <i32> [#uses=1]
  %885 = add i32 %tmp3.i.i.i.i.i334, -1138325064  ; <i32> [#uses=1]
  %886 = add nsw i32 %885, %883                   ; <i32> [#uses=1]
  %887 = load i32* %scevgep12.i323, align 4       ; <i32> [#uses=1]
  %tmp3.i.i.i.i335 = mul i32 %887, 269850533      ; <i32> [#uses=1]
  %888 = add i32 %tmp3.i.i.i.i335, -1138325064    ; <i32> [#uses=1]
  %889 = add nsw i32 %888, %886                   ; <i32> [#uses=1]
  %890 = load i32* %scevgep14.i325, align 4       ; <i32> [#uses=1]
  %tmp3.i.i.i336 = mul i32 %890, 269850533        ; <i32> [#uses=1]
  %891 = add i32 %tmp3.i.i.i336, -1138325064      ; <i32> [#uses=1]
  %892 = add nsw i32 %891, %889                   ; <i32> [#uses=3]
  %893 = icmp slt i32 %tmp.i317, 7986             ; <i1> [#uses=1]
  %indvar.next.i337 = add i32 %indvar.i315, 1     ; <i32> [#uses=1]
  br i1 %893, label %bb1.i338, label %bb4.preheader.i341

bb4.preheader.i341:                               ; preds = %bb1.i338
  %894 = icmp slt i32 %tmp.i317, 8000             ; <i1> [#uses=1]
  br i1 %894, label %bb.nph5.i343, label %bb5.i350

bb.nph5.i343:                                     ; preds = %bb4.preheader.i341
  %tmp19.i342 = sub i32 7985, %n.02.i316          ; <i32> [#uses=1]
  br label %bb3.i347

bb3.i347:                                         ; preds = %bb3.i347, %bb.nph5.i343
  %indvar16.i = phi i32 [ 0, %bb.nph5.i343 ], [ %indvar.next17.i, %bb3.i347 ] ; <i32> [#uses=2]
  %result.tmp.0.i344 = phi i32 [ %892, %bb.nph5.i343 ], [ %897, %bb3.i347 ] ; <i32> [#uses=1]
  %tmp20.i = add i32 %indvar16.i, %tmp.i317       ; <i32> [#uses=1]
  %scevgep21.i = getelementptr [8000 x i32]* @data32, i32 0, i32 %tmp20.i ; <i32*> [#uses=1]
  %895 = load i32* %scevgep21.i, align 4          ; <i32> [#uses=1]
  %tmp3.i.i345 = mul i32 %895, 269850533          ; <i32> [#uses=1]
  %896 = add i32 %result.tmp.0.i344, -1138325064  ; <i32> [#uses=1]
  %897 = add nsw i32 %896, %tmp3.i.i345           ; <i32> [#uses=2]
  %indvar.next17.i = add i32 %indvar16.i, 1       ; <i32> [#uses=2]
  %exitcond.i346 = icmp eq i32 %indvar.next17.i, %tmp19.i342 ; <i1> [#uses=1]
  br i1 %exitcond.i346, label %bb5.i350, label %bb3.i347

bb5.i350:                                         ; preds = %bb3.i347, %bb4.preheader.i341
  %898 = phi i32 [ %892, %bb4.preheader.i341 ], [ %897, %bb3.i347 ] ; <i32> [#uses=1]
  %899 = load double* @init_value, align 8        ; <double> [#uses=1]
  %900 = fptosi double %899 to i32                ; <i32> [#uses=1]
  %tmp.i.i349 = mul i32 %900, -1564285888         ; <i32> [#uses=1]
  %901 = add i32 %tmp.i.i349, -1269844480         ; <i32> [#uses=1]
  %902 = icmp eq i32 %901, %898                   ; <i1> [#uses=1]
  br i1 %902, label %_Z9check_sumIiEvT_.exit.i352, label %bb.i1.i351

bb.i1.i351:                                       ; preds = %bb5.i350
  %903 = load i32* @current_test, align 4         ; <i32> [#uses=1]
  %904 = call i32 (i8*, ...)* @printf(i8* noalias getelementptr inbounds ([16 x i8]* @.str, i32 0, i32 0), i32 %903) nounwind ; <i32> [#uses=0]
  br label %_Z9check_sumIiEvT_.exit.i352

_Z9check_sumIiEvT_.exit.i352:                     ; preds = %bb.i1.i351, %bb5.i350
  %905 = load i32* @iterations, align 4           ; <i32> [#uses=1]
  %906 = icmp slt i32 %tmp22.i313, %905           ; <i1> [#uses=1]
  br i1 %906, label %bb.i314, label %bb7.i353

bb7.i353:                                         ; preds = %_Z9check_sumIiEvT_.exit.i352, %_Z27test_for_loop_unroll_factorILi14EiEvPKT0_iPKc.exit
  %907 = call i32 @clock() nounwind               ; <i32> [#uses=1]
  %908 = load i32* @start_time, align 4           ; <i32> [#uses=1]
  %909 = sub i32 %907, %908                       ; <i32> [#uses=1]
  %910 = sitofp i32 %909 to double                ; <double> [#uses=1]
  %911 = fdiv double %910, 1.000000e+06           ; <double> [#uses=1]
  %912 = load %struct.one_result** @results, align 4 ; <%struct.one_result*> [#uses=3]
  %913 = icmp eq %struct.one_result* %912, null   ; <i1> [#uses=1]
  br i1 %913, label %bb1.i.i355, label %bb.i.i354

bb.i.i354:                                        ; preds = %bb7.i353
  %914 = load i32* @current_test, align 4         ; <i32> [#uses=1]
  %915 = load i32* @allocated_results, align 4    ; <i32> [#uses=1]
  %916 = icmp slt i32 %914, %915                  ; <i1> [#uses=1]
  br i1 %916, label %_Z27test_for_loop_unroll_factorILi15EiEvPKT0_iPKc.exit, label %bb1.i.i355

bb1.i.i355:                                       ; preds = %bb.i.i354, %bb7.i353
  %917 = load i32* @allocated_results, align 4    ; <i32> [#uses=1]
  %918 = add nsw i32 %917, 10                     ; <i32> [#uses=2]
  store i32 %918, i32* @allocated_results, align 4
  %919 = mul i32 %918, 12                         ; <i32> [#uses=1]
  %920 = bitcast %struct.one_result* %912 to i8*  ; <i8*> [#uses=1]
  %921 = call i8* @realloc(i8* %920, i32 %919) nounwind ; <i8*> [#uses=2]
  %922 = bitcast i8* %921 to %struct.one_result*  ; <%struct.one_result*> [#uses=2]
  store %struct.one_result* %922, %struct.one_result** @results, align 4
  %923 = icmp eq i8* %921, null                   ; <i1> [#uses=1]
  br i1 %923, label %bb2.i.i356, label %_Z27test_for_loop_unroll_factorILi15EiEvPKT0_iPKc.exit

bb2.i.i356:                                       ; preds = %bb1.i.i355
  %924 = load i32* @allocated_results, align 4    ; <i32> [#uses=1]
  %925 = call i32 (i8*, ...)* @printf(i8* noalias getelementptr inbounds ([31 x i8]* @.str11, i32 0, i32 0), i32 %924) nounwind ; <i32> [#uses=0]
  call void @exit(i32 -1) noreturn nounwind
  unreachable

_Z27test_for_loop_unroll_factorILi15EiEvPKT0_iPKc.exit: ; preds = %bb1.i.i355, %bb.i.i354
  %926 = phi %struct.one_result* [ %912, %bb.i.i354 ], [ %922, %bb1.i.i355 ] ; <%struct.one_result*> [#uses=2]
  %927 = load i32* @current_test, align 4         ; <i32> [#uses=3]
  %928 = getelementptr inbounds %struct.one_result* %926, i32 %927, i32 0 ; <double*> [#uses=1]
  store double %911, double* %928, align 4
  %929 = getelementptr inbounds %struct.one_result* %926, i32 %927, i32 1 ; <i8**> [#uses=1]
  store i8* getelementptr inbounds ([32 x [100 x i8]]* @temp_string, i32 0, i32 14, i32 0), i8** %929, align 4
  %930 = add nsw i32 %927, 1                      ; <i32> [#uses=1]
  store i32 %930, i32* @current_test, align 4
  %931 = call i32 @clock() nounwind               ; <i32> [#uses=1]
  store i32 %931, i32* @start_time, align 4
  %932 = load i32* @iterations, align 4           ; <i32> [#uses=1]
  %933 = icmp sgt i32 %932, 0                     ; <i1> [#uses=1]
  br i1 %933, label %bb.i270, label %bb7.i306

bb.i270:                                          ; preds = %_Z9check_sumIiEvT_.exit.i305, %_Z27test_for_loop_unroll_factorILi15EiEvPKT0_iPKc.exit
  %i.06.i268 = phi i32 [ %tmp24.i269, %_Z9check_sumIiEvT_.exit.i305 ], [ 0, %_Z27test_for_loop_unroll_factorILi15EiEvPKT0_iPKc.exit ] ; <i32> [#uses=1]
  %tmp24.i269 = add i32 %i.06.i268, 1             ; <i32> [#uses=2]
  br label %bb1.i291

bb1.i291:                                         ; preds = %bb1.i291, %bb.i270
  %result.i266.0 = phi i32 [ 0, %bb.i270 ], [ %1001, %bb1.i291 ] ; <i32> [#uses=1]
  %indvar.i271 = phi i32 [ 0, %bb.i270 ], [ %indvar.next.i290, %bb1.i291 ] ; <i32> [#uses=2]
  %n.02.i272 = shl i32 %indvar.i271, 4            ; <i32> [#uses=18]
  %tmp.i273 = add i32 %n.02.i272, 16              ; <i32> [#uses=3]
  %tmp829.i = or i32 %n.02.i272, 11               ; <i32> [#uses=1]
  %scevgep.i274 = getelementptr [8000 x i32]* @data32, i32 0, i32 %tmp829.i ; <i32*> [#uses=1]
  %tmp928.i = or i32 %n.02.i272, 12               ; <i32> [#uses=1]
  %scevgep10.i275 = getelementptr [8000 x i32]* @data32, i32 0, i32 %tmp928.i ; <i32*> [#uses=1]
  %tmp1127.i = or i32 %n.02.i272, 13              ; <i32> [#uses=1]
  %scevgep12.i276 = getelementptr [8000 x i32]* @data32, i32 0, i32 %tmp1127.i ; <i32*> [#uses=1]
  %tmp1326.i = or i32 %n.02.i272, 14              ; <i32> [#uses=1]
  %scevgep14.i277 = getelementptr [8000 x i32]* @data32, i32 0, i32 %tmp1326.i ; <i32*> [#uses=1]
  %tmp1525.i = or i32 %n.02.i272, 15              ; <i32> [#uses=1]
  %scevgep16.i278 = getelementptr [8000 x i32]* @data32, i32 0, i32 %tmp1525.i ; <i32*> [#uses=1]
  %934 = getelementptr inbounds [8000 x i32]* @data32, i32 0, i32 %n.02.i272 ; <i32*> [#uses=1]
  %935 = load i32* %934, align 32                 ; <i32> [#uses=1]
  %tmp3.i.i.i.i.i.i.i.i.i.i.i.i.i279 = mul i32 %935, 269850533 ; <i32> [#uses=1]
  %936 = add i32 %result.i266.0, -1138325064      ; <i32> [#uses=1]
  %937 = add nsw i32 %936, %tmp3.i.i.i.i.i.i.i.i.i.i.i.i.i279 ; <i32> [#uses=1]
  %938 = or i32 %n.02.i272, 1                     ; <i32> [#uses=1]
  %939 = getelementptr inbounds [8000 x i32]* @data32, i32 0, i32 %938 ; <i32*> [#uses=1]
  %940 = load i32* %939, align 4                  ; <i32> [#uses=1]
  %tmp3.i.i.i.i.i.i.i.i.i.i.i.i280 = mul i32 %940, 269850533 ; <i32> [#uses=1]
  %941 = add i32 %tmp3.i.i.i.i.i.i.i.i.i.i.i.i280, -1138325064 ; <i32> [#uses=1]
  %942 = add nsw i32 %941, %937                   ; <i32> [#uses=1]
  %943 = or i32 %n.02.i272, 2                     ; <i32> [#uses=1]
  %944 = getelementptr inbounds [8000 x i32]* @data32, i32 0, i32 %943 ; <i32*> [#uses=1]
  %945 = load i32* %944, align 8                  ; <i32> [#uses=1]
  %tmp3.i.i.i.i.i.i.i.i.i.i.i281 = mul i32 %945, 269850533 ; <i32> [#uses=1]
  %946 = add i32 %tmp3.i.i.i.i.i.i.i.i.i.i.i281, -1138325064 ; <i32> [#uses=1]
  %947 = add nsw i32 %946, %942                   ; <i32> [#uses=1]
  %948 = or i32 %n.02.i272, 3                     ; <i32> [#uses=1]
  %949 = getelementptr inbounds [8000 x i32]* @data32, i32 0, i32 %948 ; <i32*> [#uses=1]
  %950 = load i32* %949, align 4                  ; <i32> [#uses=1]
  %tmp3.i.i.i.i.i.i.i.i.i.i282 = mul i32 %950, 269850533 ; <i32> [#uses=1]
  %951 = add i32 %tmp3.i.i.i.i.i.i.i.i.i.i282, -1138325064 ; <i32> [#uses=1]
  %952 = add nsw i32 %951, %947                   ; <i32> [#uses=1]
  %953 = or i32 %n.02.i272, 4                     ; <i32> [#uses=1]
  %954 = getelementptr inbounds [8000 x i32]* @data32, i32 0, i32 %953 ; <i32*> [#uses=1]
  %955 = load i32* %954, align 16                 ; <i32> [#uses=1]
  %tmp3.i.i.i.i.i.i.i.i.i283 = mul i32 %955, 269850533 ; <i32> [#uses=1]
  %956 = add i32 %tmp3.i.i.i.i.i.i.i.i.i283, -1138325064 ; <i32> [#uses=1]
  %957 = add nsw i32 %956, %952                   ; <i32> [#uses=1]
  %958 = or i32 %n.02.i272, 5                     ; <i32> [#uses=1]
  %959 = getelementptr inbounds [8000 x i32]* @data32, i32 0, i32 %958 ; <i32*> [#uses=1]
  %960 = load i32* %959, align 4                  ; <i32> [#uses=1]
  %tmp3.i.i.i.i.i.i.i.i284 = mul i32 %960, 269850533 ; <i32> [#uses=1]
  %961 = add i32 %tmp3.i.i.i.i.i.i.i.i284, -1138325064 ; <i32> [#uses=1]
  %962 = add nsw i32 %961, %957                   ; <i32> [#uses=1]
  %963 = or i32 %n.02.i272, 6                     ; <i32> [#uses=1]
  %964 = getelementptr inbounds [8000 x i32]* @data32, i32 0, i32 %963 ; <i32*> [#uses=1]
  %965 = load i32* %964, align 8                  ; <i32> [#uses=1]
  %tmp3.i.i.i.i.i.i1.i = mul i32 %965, 269850533  ; <i32> [#uses=1]
  %966 = add i32 %tmp3.i.i.i.i.i.i1.i, -1138325064 ; <i32> [#uses=1]
  %967 = add nsw i32 %966, %962                   ; <i32> [#uses=1]
  %968 = or i32 %n.02.i272, 7                     ; <i32> [#uses=1]
  %969 = getelementptr inbounds [8000 x i32]* @data32, i32 0, i32 %968 ; <i32*> [#uses=1]
  %970 = load i32* %969, align 4                  ; <i32> [#uses=1]
  %tmp3.i.i.i.i.i2.i = mul i32 %970, 269850533    ; <i32> [#uses=1]
  %971 = add i32 %tmp3.i.i.i.i.i2.i, -1138325064  ; <i32> [#uses=1]
  %972 = add nsw i32 %971, %967                   ; <i32> [#uses=1]
  %973 = or i32 %n.02.i272, 8                     ; <i32> [#uses=1]
  %974 = getelementptr inbounds [8000 x i32]* @data32, i32 0, i32 %973 ; <i32*> [#uses=1]
  %975 = load i32* %974, align 32                 ; <i32> [#uses=1]
  %tmp3.i.i.i.i3.i = mul i32 %975, 269850533      ; <i32> [#uses=1]
  %976 = add i32 %tmp3.i.i.i.i3.i, -1138325064    ; <i32> [#uses=1]
  %977 = add nsw i32 %976, %972                   ; <i32> [#uses=1]
  %978 = or i32 %n.02.i272, 9                     ; <i32> [#uses=1]
  %979 = getelementptr inbounds [8000 x i32]* @data32, i32 0, i32 %978 ; <i32*> [#uses=1]
  %980 = load i32* %979, align 4                  ; <i32> [#uses=1]
  %tmp3.i.i.i4.i = mul i32 %980, 269850533        ; <i32> [#uses=1]
  %981 = add i32 %tmp3.i.i.i4.i, -1138325064      ; <i32> [#uses=1]
  %982 = add nsw i32 %981, %977                   ; <i32> [#uses=1]
  %983 = or i32 %n.02.i272, 10                    ; <i32> [#uses=1]
  %984 = getelementptr inbounds [8000 x i32]* @data32, i32 0, i32 %983 ; <i32*> [#uses=1]
  %985 = load i32* %984, align 8                  ; <i32> [#uses=1]
  %tmp3.i.i5.i = mul i32 %985, 269850533          ; <i32> [#uses=1]
  %986 = add i32 %tmp3.i.i5.i, -1138325064        ; <i32> [#uses=1]
  %987 = add nsw i32 %986, %982                   ; <i32> [#uses=1]
  %988 = load i32* %scevgep.i274, align 4         ; <i32> [#uses=1]
  %tmp3.i.i.i.i.i.i.i285 = mul i32 %988, 269850533 ; <i32> [#uses=1]
  %989 = load i32* %scevgep10.i275, align 16      ; <i32> [#uses=1]
  %tmp3.i.i.i.i.i.i286 = mul i32 %989, 269850533  ; <i32> [#uses=1]
  %990 = add i32 %tmp3.i.i.i.i.i.i.i285, %987     ; <i32> [#uses=1]
  %991 = add nsw i32 %990, 2018317168             ; <i32> [#uses=1]
  %992 = add nsw i32 %991, %tmp3.i.i.i.i.i.i286   ; <i32> [#uses=1]
  %993 = load i32* %scevgep12.i276, align 4       ; <i32> [#uses=1]
  %tmp3.i.i.i.i.i287 = mul i32 %993, 269850533    ; <i32> [#uses=1]
  %994 = add i32 %tmp3.i.i.i.i.i287, -1138325064  ; <i32> [#uses=1]
  %995 = add nsw i32 %994, %992                   ; <i32> [#uses=1]
  %996 = load i32* %scevgep14.i277, align 8       ; <i32> [#uses=1]
  %tmp3.i.i.i.i288 = mul i32 %996, 269850533      ; <i32> [#uses=1]
  %997 = add i32 %tmp3.i.i.i.i288, -1138325064    ; <i32> [#uses=1]
  %998 = add nsw i32 %997, %995                   ; <i32> [#uses=1]
  %999 = load i32* %scevgep16.i278, align 4       ; <i32> [#uses=1]
  %tmp3.i.i.i289 = mul i32 %999, 269850533        ; <i32> [#uses=1]
  %1000 = add i32 %tmp3.i.i.i289, -1138325064     ; <i32> [#uses=1]
  %1001 = add nsw i32 %1000, %998                 ; <i32> [#uses=3]
  %1002 = icmp slt i32 %tmp.i273, 7985            ; <i1> [#uses=1]
  %indvar.next.i290 = add i32 %indvar.i271, 1     ; <i32> [#uses=1]
  br i1 %1002, label %bb1.i291, label %bb4.preheader.i294

bb4.preheader.i294:                               ; preds = %bb1.i291
  %1003 = icmp slt i32 %tmp.i273, 8000            ; <i1> [#uses=1]
  br i1 %1003, label %bb.nph5.i296, label %bb5.i303

bb.nph5.i296:                                     ; preds = %bb4.preheader.i294
  %tmp21.i295 = sub i32 7984, %n.02.i272          ; <i32> [#uses=1]
  br label %bb3.i300

bb3.i300:                                         ; preds = %bb3.i300, %bb.nph5.i296
  %indvar18.i = phi i32 [ 0, %bb.nph5.i296 ], [ %indvar.next19.i, %bb3.i300 ] ; <i32> [#uses=2]
  %result.tmp.0.i297 = phi i32 [ %1001, %bb.nph5.i296 ], [ %1006, %bb3.i300 ] ; <i32> [#uses=1]
  %tmp22.i = add i32 %indvar18.i, %tmp.i273       ; <i32> [#uses=1]
  %scevgep23.i = getelementptr [8000 x i32]* @data32, i32 0, i32 %tmp22.i ; <i32*> [#uses=1]
  %1004 = load i32* %scevgep23.i, align 4         ; <i32> [#uses=1]
  %tmp3.i.i298 = mul i32 %1004, 269850533         ; <i32> [#uses=1]
  %1005 = add i32 %result.tmp.0.i297, -1138325064 ; <i32> [#uses=1]
  %1006 = add nsw i32 %1005, %tmp3.i.i298         ; <i32> [#uses=2]
  %indvar.next19.i = add i32 %indvar18.i, 1       ; <i32> [#uses=2]
  %exitcond.i299 = icmp eq i32 %indvar.next19.i, %tmp21.i295 ; <i1> [#uses=1]
  br i1 %exitcond.i299, label %bb5.i303, label %bb3.i300

bb5.i303:                                         ; preds = %bb3.i300, %bb4.preheader.i294
  %1007 = phi i32 [ %1001, %bb4.preheader.i294 ], [ %1006, %bb3.i300 ] ; <i32> [#uses=1]
  %1008 = load double* @init_value, align 8       ; <double> [#uses=1]
  %1009 = fptosi double %1008 to i32              ; <i32> [#uses=1]
  %tmp.i.i302 = mul i32 %1009, -1564285888        ; <i32> [#uses=1]
  %1010 = add i32 %tmp.i.i302, -1269844480        ; <i32> [#uses=1]
  %1011 = icmp eq i32 %1010, %1007                ; <i1> [#uses=1]
  br i1 %1011, label %_Z9check_sumIiEvT_.exit.i305, label %bb.i1.i304

bb.i1.i304:                                       ; preds = %bb5.i303
  %1012 = load i32* @current_test, align 4        ; <i32> [#uses=1]
  %1013 = call i32 (i8*, ...)* @printf(i8* noalias getelementptr inbounds ([16 x i8]* @.str, i32 0, i32 0), i32 %1012) nounwind ; <i32> [#uses=0]
  br label %_Z9check_sumIiEvT_.exit.i305

_Z9check_sumIiEvT_.exit.i305:                     ; preds = %bb.i1.i304, %bb5.i303
  %1014 = load i32* @iterations, align 4          ; <i32> [#uses=1]
  %1015 = icmp slt i32 %tmp24.i269, %1014         ; <i1> [#uses=1]
  br i1 %1015, label %bb.i270, label %bb7.i306

bb7.i306:                                         ; preds = %_Z9check_sumIiEvT_.exit.i305, %_Z27test_for_loop_unroll_factorILi15EiEvPKT0_iPKc.exit
  %1016 = call i32 @clock() nounwind              ; <i32> [#uses=1]
  %1017 = load i32* @start_time, align 4          ; <i32> [#uses=1]
  %1018 = sub i32 %1016, %1017                    ; <i32> [#uses=1]
  %1019 = sitofp i32 %1018 to double              ; <double> [#uses=1]
  %1020 = fdiv double %1019, 1.000000e+06         ; <double> [#uses=1]
  %1021 = load %struct.one_result** @results, align 4 ; <%struct.one_result*> [#uses=3]
  %1022 = icmp eq %struct.one_result* %1021, null ; <i1> [#uses=1]
  br i1 %1022, label %bb1.i.i308, label %bb.i.i307

bb.i.i307:                                        ; preds = %bb7.i306
  %1023 = load i32* @current_test, align 4        ; <i32> [#uses=1]
  %1024 = load i32* @allocated_results, align 4   ; <i32> [#uses=1]
  %1025 = icmp slt i32 %1023, %1024               ; <i1> [#uses=1]
  br i1 %1025, label %_Z27test_for_loop_unroll_factorILi16EiEvPKT0_iPKc.exit, label %bb1.i.i308

bb1.i.i308:                                       ; preds = %bb.i.i307, %bb7.i306
  %1026 = load i32* @allocated_results, align 4   ; <i32> [#uses=1]
  %1027 = add nsw i32 %1026, 10                   ; <i32> [#uses=2]
  store i32 %1027, i32* @allocated_results, align 4
  %1028 = mul i32 %1027, 12                       ; <i32> [#uses=1]
  %1029 = bitcast %struct.one_result* %1021 to i8* ; <i8*> [#uses=1]
  %1030 = call i8* @realloc(i8* %1029, i32 %1028) nounwind ; <i8*> [#uses=2]
  %1031 = bitcast i8* %1030 to %struct.one_result* ; <%struct.one_result*> [#uses=2]
  store %struct.one_result* %1031, %struct.one_result** @results, align 4
  %1032 = icmp eq i8* %1030, null                 ; <i1> [#uses=1]
  br i1 %1032, label %bb2.i.i309, label %_Z27test_for_loop_unroll_factorILi16EiEvPKT0_iPKc.exit

bb2.i.i309:                                       ; preds = %bb1.i.i308
  %1033 = load i32* @allocated_results, align 4   ; <i32> [#uses=1]
  %1034 = call i32 (i8*, ...)* @printf(i8* noalias getelementptr inbounds ([31 x i8]* @.str11, i32 0, i32 0), i32 %1033) nounwind ; <i32> [#uses=0]
  call void @exit(i32 -1) noreturn nounwind
  unreachable

_Z27test_for_loop_unroll_factorILi16EiEvPKT0_iPKc.exit: ; preds = %bb1.i.i308, %bb.i.i307
  %1035 = phi %struct.one_result* [ %1021, %bb.i.i307 ], [ %1031, %bb1.i.i308 ] ; <%struct.one_result*> [#uses=2]
  %1036 = load i32* @current_test, align 4        ; <i32> [#uses=3]
  %1037 = getelementptr inbounds %struct.one_result* %1035, i32 %1036, i32 0 ; <double*> [#uses=1]
  store double %1020, double* %1037, align 4
  %1038 = getelementptr inbounds %struct.one_result* %1035, i32 %1036, i32 1 ; <i8**> [#uses=1]
  store i8* getelementptr inbounds ([32 x [100 x i8]]* @temp_string, i32 0, i32 15, i32 0), i8** %1038, align 4
  %1039 = add nsw i32 %1036, 1                    ; <i32> [#uses=1]
  store i32 %1039, i32* @current_test, align 4
  %1040 = call i32 @clock() nounwind              ; <i32> [#uses=1]
  store i32 %1040, i32* @start_time, align 4
  %1041 = load i32* @iterations, align 4          ; <i32> [#uses=1]
  %1042 = icmp sgt i32 %1041, 0                   ; <i1> [#uses=1]
  br i1 %1042, label %bb.i219, label %bb7.i262

bb.i219:                                          ; preds = %_Z9check_sumIiEvT_.exit.i261, %_Z27test_for_loop_unroll_factorILi16EiEvPKT0_iPKc.exit
  %i.06.i217 = phi i32 [ %tmp26.i218, %_Z9check_sumIiEvT_.exit.i261 ], [ 0, %_Z27test_for_loop_unroll_factorILi16EiEvPKT0_iPKc.exit ] ; <i32> [#uses=1]
  %tmp26.i218 = add i32 %i.06.i217, 1             ; <i32> [#uses=2]
  br label %bb1.i247

bb1.i247:                                         ; preds = %bb1.i247, %bb.i219
  %result.i215.0 = phi i32 [ 0, %bb.i219 ], [ %1113, %bb1.i247 ] ; <i32> [#uses=1]
  %indvar.i220 = phi i32 [ 0, %bb.i219 ], [ %indvar.next.i246, %bb1.i247 ] ; <i32> [#uses=2]
  %n.02.i221 = mul i32 %indvar.i220, 17           ; <i32> [#uses=19]
  %tmp.i222 = add i32 %n.02.i221, 17              ; <i32> [#uses=3]
  %tmp8.i223 = add i32 %n.02.i221, 11             ; <i32> [#uses=1]
  %scevgep.i224 = getelementptr [8000 x i32]* @data32, i32 0, i32 %tmp8.i223 ; <i32*> [#uses=1]
  %tmp9.i225 = add i32 %n.02.i221, 12             ; <i32> [#uses=1]
  %scevgep10.i226 = getelementptr [8000 x i32]* @data32, i32 0, i32 %tmp9.i225 ; <i32*> [#uses=1]
  %tmp11.i227 = add i32 %n.02.i221, 13            ; <i32> [#uses=1]
  %scevgep12.i228 = getelementptr [8000 x i32]* @data32, i32 0, i32 %tmp11.i227 ; <i32*> [#uses=1]
  %tmp13.i229 = add i32 %n.02.i221, 14            ; <i32> [#uses=1]
  %scevgep14.i230 = getelementptr [8000 x i32]* @data32, i32 0, i32 %tmp13.i229 ; <i32*> [#uses=1]
  %tmp15.i231 = add i32 %n.02.i221, 15            ; <i32> [#uses=1]
  %scevgep16.i232 = getelementptr [8000 x i32]* @data32, i32 0, i32 %tmp15.i231 ; <i32*> [#uses=1]
  %tmp17.i233 = add i32 %n.02.i221, 16            ; <i32> [#uses=1]
  %scevgep18.i234 = getelementptr [8000 x i32]* @data32, i32 0, i32 %tmp17.i233 ; <i32*> [#uses=1]
  %1043 = getelementptr inbounds [8000 x i32]* @data32, i32 0, i32 %n.02.i221 ; <i32*> [#uses=1]
  %1044 = load i32* %1043, align 4                ; <i32> [#uses=1]
  %tmp3.i.i.i.i.i.i.i.i.i.i.i.i.i235 = mul i32 %1044, 269850533 ; <i32> [#uses=1]
  %1045 = add i32 %result.i215.0, -1138325064     ; <i32> [#uses=1]
  %1046 = add nsw i32 %1045, %tmp3.i.i.i.i.i.i.i.i.i.i.i.i.i235 ; <i32> [#uses=1]
  %1047 = add nsw i32 %n.02.i221, 1               ; <i32> [#uses=1]
  %1048 = getelementptr inbounds [8000 x i32]* @data32, i32 0, i32 %1047 ; <i32*> [#uses=1]
  %1049 = load i32* %1048, align 4                ; <i32> [#uses=1]
  %tmp3.i.i.i.i.i.i.i.i.i.i.i.i236 = mul i32 %1049, 269850533 ; <i32> [#uses=1]
  %1050 = add i32 %tmp3.i.i.i.i.i.i.i.i.i.i.i.i236, -1138325064 ; <i32> [#uses=1]
  %1051 = add nsw i32 %1050, %1046                ; <i32> [#uses=1]
  %1052 = add nsw i32 %n.02.i221, 2               ; <i32> [#uses=1]
  %1053 = getelementptr inbounds [8000 x i32]* @data32, i32 0, i32 %1052 ; <i32*> [#uses=1]
  %1054 = load i32* %1053, align 4                ; <i32> [#uses=1]
  %tmp3.i.i.i.i.i.i.i.i.i.i.i237 = mul i32 %1054, 269850533 ; <i32> [#uses=1]
  %1055 = add i32 %tmp3.i.i.i.i.i.i.i.i.i.i.i237, -1138325064 ; <i32> [#uses=1]
  %1056 = add nsw i32 %1055, %1051                ; <i32> [#uses=1]
  %1057 = add nsw i32 %n.02.i221, 3               ; <i32> [#uses=1]
  %1058 = getelementptr inbounds [8000 x i32]* @data32, i32 0, i32 %1057 ; <i32*> [#uses=1]
  %1059 = load i32* %1058, align 4                ; <i32> [#uses=1]
  %tmp3.i.i.i.i.i.i.i.i.i.i238 = mul i32 %1059, 269850533 ; <i32> [#uses=1]
  %1060 = add i32 %tmp3.i.i.i.i.i.i.i.i.i.i238, -1138325064 ; <i32> [#uses=1]
  %1061 = add nsw i32 %1060, %1056                ; <i32> [#uses=1]
  %1062 = add nsw i32 %n.02.i221, 4               ; <i32> [#uses=1]
  %1063 = getelementptr inbounds [8000 x i32]* @data32, i32 0, i32 %1062 ; <i32*> [#uses=1]
  %1064 = load i32* %1063, align 4                ; <i32> [#uses=1]
  %tmp3.i.i.i.i.i.i.i.i.i239 = mul i32 %1064, 269850533 ; <i32> [#uses=1]
  %1065 = add i32 %tmp3.i.i.i.i.i.i.i.i.i239, -1138325064 ; <i32> [#uses=1]
  %1066 = add nsw i32 %1065, %1061                ; <i32> [#uses=1]
  %1067 = add nsw i32 %n.02.i221, 5               ; <i32> [#uses=1]
  %1068 = getelementptr inbounds [8000 x i32]* @data32, i32 0, i32 %1067 ; <i32*> [#uses=1]
  %1069 = load i32* %1068, align 4                ; <i32> [#uses=1]
  %tmp3.i.i.i.i.i.i.i1.i = mul i32 %1069, 269850533 ; <i32> [#uses=1]
  %1070 = add i32 %tmp3.i.i.i.i.i.i.i1.i, -1138325064 ; <i32> [#uses=1]
  %1071 = add nsw i32 %1070, %1066                ; <i32> [#uses=1]
  %1072 = add nsw i32 %n.02.i221, 6               ; <i32> [#uses=1]
  %1073 = getelementptr inbounds [8000 x i32]* @data32, i32 0, i32 %1072 ; <i32*> [#uses=1]
  %1074 = load i32* %1073, align 4                ; <i32> [#uses=1]
  %tmp3.i.i.i.i.i.i2.i = mul i32 %1074, 269850533 ; <i32> [#uses=1]
  %1075 = add i32 %tmp3.i.i.i.i.i.i2.i, -1138325064 ; <i32> [#uses=1]
  %1076 = add nsw i32 %1075, %1071                ; <i32> [#uses=1]
  %1077 = add nsw i32 %n.02.i221, 7               ; <i32> [#uses=1]
  %1078 = getelementptr inbounds [8000 x i32]* @data32, i32 0, i32 %1077 ; <i32*> [#uses=1]
  %1079 = load i32* %1078, align 4                ; <i32> [#uses=1]
  %tmp3.i.i.i.i.i3.i = mul i32 %1079, 269850533   ; <i32> [#uses=1]
  %1080 = add i32 %tmp3.i.i.i.i.i3.i, -1138325064 ; <i32> [#uses=1]
  %1081 = add nsw i32 %1080, %1076                ; <i32> [#uses=1]
  %1082 = add nsw i32 %n.02.i221, 8               ; <i32> [#uses=1]
  %1083 = getelementptr inbounds [8000 x i32]* @data32, i32 0, i32 %1082 ; <i32*> [#uses=1]
  %1084 = load i32* %1083, align 4                ; <i32> [#uses=1]
  %tmp3.i.i.i.i4.i = mul i32 %1084, 269850533     ; <i32> [#uses=1]
  %1085 = add i32 %tmp3.i.i.i.i4.i, -1138325064   ; <i32> [#uses=1]
  %1086 = add nsw i32 %1085, %1081                ; <i32> [#uses=1]
  %1087 = add nsw i32 %n.02.i221, 9               ; <i32> [#uses=1]
  %1088 = getelementptr inbounds [8000 x i32]* @data32, i32 0, i32 %1087 ; <i32*> [#uses=1]
  %1089 = load i32* %1088, align 4                ; <i32> [#uses=1]
  %tmp3.i.i.i5.i = mul i32 %1089, 269850533       ; <i32> [#uses=1]
  %1090 = add i32 %tmp3.i.i.i5.i, -1138325064     ; <i32> [#uses=1]
  %1091 = add nsw i32 %1090, %1086                ; <i32> [#uses=1]
  %1092 = add nsw i32 %n.02.i221, 10              ; <i32> [#uses=1]
  %1093 = getelementptr inbounds [8000 x i32]* @data32, i32 0, i32 %1092 ; <i32*> [#uses=1]
  %1094 = load i32* %1093, align 4                ; <i32> [#uses=1]
  %tmp3.i.i6.i = mul i32 %1094, 269850533         ; <i32> [#uses=1]
  %1095 = load i32* %scevgep.i224, align 4        ; <i32> [#uses=1]
  %tmp3.i.i.i.i.i.i.i.i240 = mul i32 %1095, 269850533 ; <i32> [#uses=1]
  %1096 = add i32 %tmp3.i.i6.i, %1091             ; <i32> [#uses=1]
  %1097 = add nsw i32 %1096, 2018317168           ; <i32> [#uses=1]
  %1098 = add nsw i32 %1097, %tmp3.i.i.i.i.i.i.i.i240 ; <i32> [#uses=1]
  %1099 = load i32* %scevgep10.i226, align 4      ; <i32> [#uses=1]
  %tmp3.i.i.i.i.i.i.i241 = mul i32 %1099, 269850533 ; <i32> [#uses=1]
  %1100 = add i32 %tmp3.i.i.i.i.i.i.i241, -1138325064 ; <i32> [#uses=1]
  %1101 = add nsw i32 %1100, %1098                ; <i32> [#uses=1]
  %1102 = load i32* %scevgep12.i228, align 4      ; <i32> [#uses=1]
  %tmp3.i.i.i.i.i.i242 = mul i32 %1102, 269850533 ; <i32> [#uses=1]
  %1103 = add i32 %tmp3.i.i.i.i.i.i242, -1138325064 ; <i32> [#uses=1]
  %1104 = add nsw i32 %1103, %1101                ; <i32> [#uses=1]
  %1105 = load i32* %scevgep14.i230, align 4      ; <i32> [#uses=1]
  %tmp3.i.i.i.i.i243 = mul i32 %1105, 269850533   ; <i32> [#uses=1]
  %1106 = add i32 %tmp3.i.i.i.i.i243, -1138325064 ; <i32> [#uses=1]
  %1107 = add nsw i32 %1106, %1104                ; <i32> [#uses=1]
  %1108 = load i32* %scevgep16.i232, align 4      ; <i32> [#uses=1]
  %tmp3.i.i.i.i244 = mul i32 %1108, 269850533     ; <i32> [#uses=1]
  %1109 = add i32 %tmp3.i.i.i.i244, -1138325064   ; <i32> [#uses=1]
  %1110 = add nsw i32 %1109, %1107                ; <i32> [#uses=1]
  %1111 = load i32* %scevgep18.i234, align 4      ; <i32> [#uses=1]
  %tmp3.i.i.i245 = mul i32 %1111, 269850533       ; <i32> [#uses=1]
  %1112 = add i32 %tmp3.i.i.i245, -1138325064     ; <i32> [#uses=1]
  %1113 = add nsw i32 %1112, %1110                ; <i32> [#uses=3]
  %1114 = icmp slt i32 %tmp.i222, 7984            ; <i1> [#uses=1]
  %indvar.next.i246 = add i32 %indvar.i220, 1     ; <i32> [#uses=1]
  br i1 %1114, label %bb1.i247, label %bb4.preheader.i250

bb4.preheader.i250:                               ; preds = %bb1.i247
  %1115 = icmp slt i32 %tmp.i222, 8000            ; <i1> [#uses=1]
  br i1 %1115, label %bb.nph5.i252, label %bb5.i259

bb.nph5.i252:                                     ; preds = %bb4.preheader.i250
  %tmp23.i251 = sub i32 7983, %n.02.i221          ; <i32> [#uses=1]
  br label %bb3.i256

bb3.i256:                                         ; preds = %bb3.i256, %bb.nph5.i252
  %indvar20.i = phi i32 [ 0, %bb.nph5.i252 ], [ %indvar.next21.i, %bb3.i256 ] ; <i32> [#uses=2]
  %result.tmp.0.i253 = phi i32 [ %1113, %bb.nph5.i252 ], [ %1118, %bb3.i256 ] ; <i32> [#uses=1]
  %tmp24.i = add i32 %indvar20.i, %tmp.i222       ; <i32> [#uses=1]
  %scevgep25.i = getelementptr [8000 x i32]* @data32, i32 0, i32 %tmp24.i ; <i32*> [#uses=1]
  %1116 = load i32* %scevgep25.i, align 4         ; <i32> [#uses=1]
  %tmp3.i.i254 = mul i32 %1116, 269850533         ; <i32> [#uses=1]
  %1117 = add i32 %result.tmp.0.i253, -1138325064 ; <i32> [#uses=1]
  %1118 = add nsw i32 %1117, %tmp3.i.i254         ; <i32> [#uses=2]
  %indvar.next21.i = add i32 %indvar20.i, 1       ; <i32> [#uses=2]
  %exitcond.i255 = icmp eq i32 %indvar.next21.i, %tmp23.i251 ; <i1> [#uses=1]
  br i1 %exitcond.i255, label %bb5.i259, label %bb3.i256

bb5.i259:                                         ; preds = %bb3.i256, %bb4.preheader.i250
  %1119 = phi i32 [ %1113, %bb4.preheader.i250 ], [ %1118, %bb3.i256 ] ; <i32> [#uses=1]
  %1120 = load double* @init_value, align 8       ; <double> [#uses=1]
  %1121 = fptosi double %1120 to i32              ; <i32> [#uses=1]
  %tmp.i.i258 = mul i32 %1121, -1564285888        ; <i32> [#uses=1]
  %1122 = add i32 %tmp.i.i258, -1269844480        ; <i32> [#uses=1]
  %1123 = icmp eq i32 %1122, %1119                ; <i1> [#uses=1]
  br i1 %1123, label %_Z9check_sumIiEvT_.exit.i261, label %bb.i1.i260

bb.i1.i260:                                       ; preds = %bb5.i259
  %1124 = load i32* @current_test, align 4        ; <i32> [#uses=1]
  %1125 = call i32 (i8*, ...)* @printf(i8* noalias getelementptr inbounds ([16 x i8]* @.str, i32 0, i32 0), i32 %1124) nounwind ; <i32> [#uses=0]
  br label %_Z9check_sumIiEvT_.exit.i261

_Z9check_sumIiEvT_.exit.i261:                     ; preds = %bb.i1.i260, %bb5.i259
  %1126 = load i32* @iterations, align 4          ; <i32> [#uses=1]
  %1127 = icmp slt i32 %tmp26.i218, %1126         ; <i1> [#uses=1]
  br i1 %1127, label %bb.i219, label %bb7.i262

bb7.i262:                                         ; preds = %_Z9check_sumIiEvT_.exit.i261, %_Z27test_for_loop_unroll_factorILi16EiEvPKT0_iPKc.exit
  %1128 = call i32 @clock() nounwind              ; <i32> [#uses=1]
  %1129 = load i32* @start_time, align 4          ; <i32> [#uses=1]
  %1130 = sub i32 %1128, %1129                    ; <i32> [#uses=1]
  %1131 = sitofp i32 %1130 to double              ; <double> [#uses=1]
  %1132 = fdiv double %1131, 1.000000e+06         ; <double> [#uses=1]
  %1133 = load %struct.one_result** @results, align 4 ; <%struct.one_result*> [#uses=3]
  %1134 = icmp eq %struct.one_result* %1133, null ; <i1> [#uses=1]
  br i1 %1134, label %bb1.i.i264, label %bb.i.i263

bb.i.i263:                                        ; preds = %bb7.i262
  %1135 = load i32* @current_test, align 4        ; <i32> [#uses=1]
  %1136 = load i32* @allocated_results, align 4   ; <i32> [#uses=1]
  %1137 = icmp slt i32 %1135, %1136               ; <i1> [#uses=1]
  br i1 %1137, label %_Z27test_for_loop_unroll_factorILi17EiEvPKT0_iPKc.exit, label %bb1.i.i264

bb1.i.i264:                                       ; preds = %bb.i.i263, %bb7.i262
  %1138 = load i32* @allocated_results, align 4   ; <i32> [#uses=1]
  %1139 = add nsw i32 %1138, 10                   ; <i32> [#uses=2]
  store i32 %1139, i32* @allocated_results, align 4
  %1140 = mul i32 %1139, 12                       ; <i32> [#uses=1]
  %1141 = bitcast %struct.one_result* %1133 to i8* ; <i8*> [#uses=1]
  %1142 = call i8* @realloc(i8* %1141, i32 %1140) nounwind ; <i8*> [#uses=2]
  %1143 = bitcast i8* %1142 to %struct.one_result* ; <%struct.one_result*> [#uses=2]
  store %struct.one_result* %1143, %struct.one_result** @results, align 4
  %1144 = icmp eq i8* %1142, null                 ; <i1> [#uses=1]
  br i1 %1144, label %bb2.i.i265, label %_Z27test_for_loop_unroll_factorILi17EiEvPKT0_iPKc.exit

bb2.i.i265:                                       ; preds = %bb1.i.i264
  %1145 = load i32* @allocated_results, align 4   ; <i32> [#uses=1]
  %1146 = call i32 (i8*, ...)* @printf(i8* noalias getelementptr inbounds ([31 x i8]* @.str11, i32 0, i32 0), i32 %1145) nounwind ; <i32> [#uses=0]
  call void @exit(i32 -1) noreturn nounwind
  unreachable

_Z27test_for_loop_unroll_factorILi17EiEvPKT0_iPKc.exit: ; preds = %bb1.i.i264, %bb.i.i263
  %1147 = phi %struct.one_result* [ %1133, %bb.i.i263 ], [ %1143, %bb1.i.i264 ] ; <%struct.one_result*> [#uses=2]
  %1148 = load i32* @current_test, align 4        ; <i32> [#uses=3]
  %1149 = getelementptr inbounds %struct.one_result* %1147, i32 %1148, i32 0 ; <double*> [#uses=1]
  store double %1132, double* %1149, align 4
  %1150 = getelementptr inbounds %struct.one_result* %1147, i32 %1148, i32 1 ; <i8**> [#uses=1]
  store i8* getelementptr inbounds ([32 x [100 x i8]]* @temp_string, i32 0, i32 16, i32 0), i8** %1150, align 4
  %1151 = add nsw i32 %1148, 1                    ; <i32> [#uses=1]
  store i32 %1151, i32* @current_test, align 4
  %1152 = call i32 @clock() nounwind              ; <i32> [#uses=1]
  store i32 %1152, i32* @start_time, align 4
  %1153 = load i32* @iterations, align 4          ; <i32> [#uses=1]
  %1154 = icmp sgt i32 %1153, 0                   ; <i1> [#uses=1]
  br i1 %1154, label %bb.i167, label %bb7.i211

bb.i167:                                          ; preds = %_Z9check_sumIiEvT_.exit.i210, %_Z27test_for_loop_unroll_factorILi17EiEvPKT0_iPKc.exit
  %i.06.i165 = phi i32 [ %tmp28.i166, %_Z9check_sumIiEvT_.exit.i210 ], [ 0, %_Z27test_for_loop_unroll_factorILi17EiEvPKT0_iPKc.exit ] ; <i32> [#uses=1]
  %tmp28.i166 = add i32 %i.06.i165, 1             ; <i32> [#uses=2]
  br label %bb1.i197

bb1.i197:                                         ; preds = %bb1.i197, %bb.i167
  %result.i163.0 = phi i32 [ 0, %bb.i167 ], [ %1228, %bb1.i197 ] ; <i32> [#uses=1]
  %indvar.i168 = phi i32 [ 0, %bb.i167 ], [ %indvar.next.i196, %bb1.i197 ] ; <i32> [#uses=2]
  %n.02.i169 = mul i32 %indvar.i168, 18           ; <i32> [#uses=20]
  %tmp.i170 = add i32 %n.02.i169, 18              ; <i32> [#uses=3]
  %tmp8.i171 = add i32 %n.02.i169, 11             ; <i32> [#uses=1]
  %scevgep.i172 = getelementptr [8000 x i32]* @data32, i32 0, i32 %tmp8.i171 ; <i32*> [#uses=1]
  %tmp9.i173 = add i32 %n.02.i169, 12             ; <i32> [#uses=1]
  %scevgep10.i174 = getelementptr [8000 x i32]* @data32, i32 0, i32 %tmp9.i173 ; <i32*> [#uses=1]
  %tmp11.i175 = add i32 %n.02.i169, 13            ; <i32> [#uses=1]
  %scevgep12.i176 = getelementptr [8000 x i32]* @data32, i32 0, i32 %tmp11.i175 ; <i32*> [#uses=1]
  %tmp13.i177 = add i32 %n.02.i169, 14            ; <i32> [#uses=1]
  %scevgep14.i178 = getelementptr [8000 x i32]* @data32, i32 0, i32 %tmp13.i177 ; <i32*> [#uses=1]
  %tmp15.i179 = add i32 %n.02.i169, 15            ; <i32> [#uses=1]
  %scevgep16.i180 = getelementptr [8000 x i32]* @data32, i32 0, i32 %tmp15.i179 ; <i32*> [#uses=1]
  %tmp17.i181 = add i32 %n.02.i169, 16            ; <i32> [#uses=1]
  %scevgep18.i182 = getelementptr [8000 x i32]* @data32, i32 0, i32 %tmp17.i181 ; <i32*> [#uses=1]
  %tmp19.i183 = add i32 %n.02.i169, 17            ; <i32> [#uses=1]
  %scevgep20.i184 = getelementptr [8000 x i32]* @data32, i32 0, i32 %tmp19.i183 ; <i32*> [#uses=1]
  %1155 = getelementptr inbounds [8000 x i32]* @data32, i32 0, i32 %n.02.i169 ; <i32*> [#uses=1]
  %1156 = load i32* %1155, align 8                ; <i32> [#uses=1]
  %tmp3.i.i.i.i.i.i.i.i.i.i.i.i.i185 = mul i32 %1156, 269850533 ; <i32> [#uses=1]
  %1157 = add i32 %result.i163.0, -1138325064     ; <i32> [#uses=1]
  %1158 = add nsw i32 %1157, %tmp3.i.i.i.i.i.i.i.i.i.i.i.i.i185 ; <i32> [#uses=1]
  %1159 = or i32 %n.02.i169, 1                    ; <i32> [#uses=1]
  %1160 = getelementptr inbounds [8000 x i32]* @data32, i32 0, i32 %1159 ; <i32*> [#uses=1]
  %1161 = load i32* %1160, align 4                ; <i32> [#uses=1]
  %tmp3.i.i.i.i.i.i.i.i.i.i.i.i186 = mul i32 %1161, 269850533 ; <i32> [#uses=1]
  %1162 = add i32 %tmp3.i.i.i.i.i.i.i.i.i.i.i.i186, -1138325064 ; <i32> [#uses=1]
  %1163 = add nsw i32 %1162, %1158                ; <i32> [#uses=1]
  %1164 = add nsw i32 %n.02.i169, 2               ; <i32> [#uses=1]
  %1165 = getelementptr inbounds [8000 x i32]* @data32, i32 0, i32 %1164 ; <i32*> [#uses=1]
  %1166 = load i32* %1165, align 8                ; <i32> [#uses=1]
  %tmp3.i.i.i.i.i.i.i.i.i.i.i187 = mul i32 %1166, 269850533 ; <i32> [#uses=1]
  %1167 = add i32 %tmp3.i.i.i.i.i.i.i.i.i.i.i187, -1138325064 ; <i32> [#uses=1]
  %1168 = add nsw i32 %1167, %1163                ; <i32> [#uses=1]
  %1169 = add nsw i32 %n.02.i169, 3               ; <i32> [#uses=1]
  %1170 = getelementptr inbounds [8000 x i32]* @data32, i32 0, i32 %1169 ; <i32*> [#uses=1]
  %1171 = load i32* %1170, align 4                ; <i32> [#uses=1]
  %tmp3.i.i.i.i.i.i.i.i.i.i188 = mul i32 %1171, 269850533 ; <i32> [#uses=1]
  %1172 = add i32 %tmp3.i.i.i.i.i.i.i.i.i.i188, -1138325064 ; <i32> [#uses=1]
  %1173 = add nsw i32 %1172, %1168                ; <i32> [#uses=1]
  %1174 = add nsw i32 %n.02.i169, 4               ; <i32> [#uses=1]
  %1175 = getelementptr inbounds [8000 x i32]* @data32, i32 0, i32 %1174 ; <i32*> [#uses=1]
  %1176 = load i32* %1175, align 8                ; <i32> [#uses=1]
  %tmp3.i.i.i.i.i.i.i.i1.i = mul i32 %1176, 269850533 ; <i32> [#uses=1]
  %1177 = add i32 %tmp3.i.i.i.i.i.i.i.i1.i, -1138325064 ; <i32> [#uses=1]
  %1178 = add nsw i32 %1177, %1173                ; <i32> [#uses=1]
  %1179 = add nsw i32 %n.02.i169, 5               ; <i32> [#uses=1]
  %1180 = getelementptr inbounds [8000 x i32]* @data32, i32 0, i32 %1179 ; <i32*> [#uses=1]
  %1181 = load i32* %1180, align 4                ; <i32> [#uses=1]
  %tmp3.i.i.i.i.i.i.i2.i = mul i32 %1181, 269850533 ; <i32> [#uses=1]
  %1182 = add i32 %tmp3.i.i.i.i.i.i.i2.i, -1138325064 ; <i32> [#uses=1]
  %1183 = add nsw i32 %1182, %1178                ; <i32> [#uses=1]
  %1184 = add nsw i32 %n.02.i169, 6               ; <i32> [#uses=1]
  %1185 = getelementptr inbounds [8000 x i32]* @data32, i32 0, i32 %1184 ; <i32*> [#uses=1]
  %1186 = load i32* %1185, align 8                ; <i32> [#uses=1]
  %tmp3.i.i.i.i.i.i3.i = mul i32 %1186, 269850533 ; <i32> [#uses=1]
  %1187 = add i32 %tmp3.i.i.i.i.i.i3.i, -1138325064 ; <i32> [#uses=1]
  %1188 = add nsw i32 %1187, %1183                ; <i32> [#uses=1]
  %1189 = add nsw i32 %n.02.i169, 7               ; <i32> [#uses=1]
  %1190 = getelementptr inbounds [8000 x i32]* @data32, i32 0, i32 %1189 ; <i32*> [#uses=1]
  %1191 = load i32* %1190, align 4                ; <i32> [#uses=1]
  %tmp3.i.i.i.i.i4.i = mul i32 %1191, 269850533   ; <i32> [#uses=1]
  %1192 = add i32 %tmp3.i.i.i.i.i4.i, -1138325064 ; <i32> [#uses=1]
  %1193 = add nsw i32 %1192, %1188                ; <i32> [#uses=1]
  %1194 = add nsw i32 %n.02.i169, 8               ; <i32> [#uses=1]
  %1195 = getelementptr inbounds [8000 x i32]* @data32, i32 0, i32 %1194 ; <i32*> [#uses=1]
  %1196 = load i32* %1195, align 8                ; <i32> [#uses=1]
  %tmp3.i.i.i.i5.i = mul i32 %1196, 269850533     ; <i32> [#uses=1]
  %1197 = add i32 %tmp3.i.i.i.i5.i, -1138325064   ; <i32> [#uses=1]
  %1198 = add nsw i32 %1197, %1193                ; <i32> [#uses=1]
  %1199 = add nsw i32 %n.02.i169, 9               ; <i32> [#uses=1]
  %1200 = getelementptr inbounds [8000 x i32]* @data32, i32 0, i32 %1199 ; <i32*> [#uses=1]
  %1201 = load i32* %1200, align 4                ; <i32> [#uses=1]
  %tmp3.i.i.i6.i = mul i32 %1201, 269850533       ; <i32> [#uses=1]
  %1202 = add i32 %tmp3.i.i.i6.i, -1138325064     ; <i32> [#uses=1]
  %1203 = add nsw i32 %1202, %1198                ; <i32> [#uses=1]
  %1204 = add nsw i32 %n.02.i169, 10              ; <i32> [#uses=1]
  %1205 = getelementptr inbounds [8000 x i32]* @data32, i32 0, i32 %1204 ; <i32*> [#uses=1]
  %1206 = load i32* %1205, align 8                ; <i32> [#uses=1]
  %tmp3.i.i7.i = mul i32 %1206, 269850533         ; <i32> [#uses=1]
  %1207 = add i32 %tmp3.i.i7.i, -1138325064       ; <i32> [#uses=1]
  %1208 = add nsw i32 %1207, %1203                ; <i32> [#uses=1]
  %1209 = load i32* %scevgep.i172, align 4        ; <i32> [#uses=1]
  %tmp3.i.i.i.i.i.i.i.i.i189 = mul i32 %1209, 269850533 ; <i32> [#uses=1]
  %1210 = load i32* %scevgep10.i174, align 8      ; <i32> [#uses=1]
  %tmp3.i.i.i.i.i.i.i.i190 = mul i32 %1210, 269850533 ; <i32> [#uses=1]
  %1211 = add i32 %tmp3.i.i.i.i.i.i.i.i.i189, %1208 ; <i32> [#uses=1]
  %1212 = add nsw i32 %1211, 2018317168           ; <i32> [#uses=1]
  %1213 = add nsw i32 %1212, %tmp3.i.i.i.i.i.i.i.i190 ; <i32> [#uses=1]
  %1214 = load i32* %scevgep12.i176, align 4      ; <i32> [#uses=1]
  %tmp3.i.i.i.i.i.i.i191 = mul i32 %1214, 269850533 ; <i32> [#uses=1]
  %1215 = add i32 %tmp3.i.i.i.i.i.i.i191, -1138325064 ; <i32> [#uses=1]
  %1216 = add nsw i32 %1215, %1213                ; <i32> [#uses=1]
  %1217 = load i32* %scevgep14.i178, align 8      ; <i32> [#uses=1]
  %tmp3.i.i.i.i.i.i192 = mul i32 %1217, 269850533 ; <i32> [#uses=1]
  %1218 = add i32 %tmp3.i.i.i.i.i.i192, -1138325064 ; <i32> [#uses=1]
  %1219 = add nsw i32 %1218, %1216                ; <i32> [#uses=1]
  %1220 = load i32* %scevgep16.i180, align 4      ; <i32> [#uses=1]
  %tmp3.i.i.i.i.i193 = mul i32 %1220, 269850533   ; <i32> [#uses=1]
  %1221 = add i32 %tmp3.i.i.i.i.i193, -1138325064 ; <i32> [#uses=1]
  %1222 = add nsw i32 %1221, %1219                ; <i32> [#uses=1]
  %1223 = load i32* %scevgep18.i182, align 8      ; <i32> [#uses=1]
  %tmp3.i.i.i.i194 = mul i32 %1223, 269850533     ; <i32> [#uses=1]
  %1224 = add i32 %tmp3.i.i.i.i194, -1138325064   ; <i32> [#uses=1]
  %1225 = add nsw i32 %1224, %1222                ; <i32> [#uses=1]
  %1226 = load i32* %scevgep20.i184, align 4      ; <i32> [#uses=1]
  %tmp3.i.i.i195 = mul i32 %1226, 269850533       ; <i32> [#uses=1]
  %1227 = add i32 %tmp3.i.i.i195, -1138325064     ; <i32> [#uses=1]
  %1228 = add nsw i32 %1227, %1225                ; <i32> [#uses=3]
  %1229 = icmp slt i32 %tmp.i170, 7983            ; <i1> [#uses=1]
  %indvar.next.i196 = add i32 %indvar.i168, 1     ; <i32> [#uses=1]
  br i1 %1229, label %bb1.i197, label %bb4.preheader.i200

bb4.preheader.i200:                               ; preds = %bb1.i197
  %1230 = icmp slt i32 %tmp.i170, 8000            ; <i1> [#uses=1]
  br i1 %1230, label %bb.nph5.i201, label %bb5.i208

bb.nph5.i201:                                     ; preds = %bb4.preheader.i200
  %tmp25.i = sub i32 7982, %n.02.i169             ; <i32> [#uses=1]
  br label %bb3.i205

bb3.i205:                                         ; preds = %bb3.i205, %bb.nph5.i201
  %indvar22.i = phi i32 [ 0, %bb.nph5.i201 ], [ %indvar.next23.i, %bb3.i205 ] ; <i32> [#uses=2]
  %result.tmp.0.i202 = phi i32 [ %1228, %bb.nph5.i201 ], [ %1233, %bb3.i205 ] ; <i32> [#uses=1]
  %tmp26.i = add i32 %indvar22.i, %tmp.i170       ; <i32> [#uses=1]
  %scevgep27.i = getelementptr [8000 x i32]* @data32, i32 0, i32 %tmp26.i ; <i32*> [#uses=1]
  %1231 = load i32* %scevgep27.i, align 4         ; <i32> [#uses=1]
  %tmp3.i.i203 = mul i32 %1231, 269850533         ; <i32> [#uses=1]
  %1232 = add i32 %result.tmp.0.i202, -1138325064 ; <i32> [#uses=1]
  %1233 = add nsw i32 %1232, %tmp3.i.i203         ; <i32> [#uses=2]
  %indvar.next23.i = add i32 %indvar22.i, 1       ; <i32> [#uses=2]
  %exitcond.i204 = icmp eq i32 %indvar.next23.i, %tmp25.i ; <i1> [#uses=1]
  br i1 %exitcond.i204, label %bb5.i208, label %bb3.i205

bb5.i208:                                         ; preds = %bb3.i205, %bb4.preheader.i200
  %1234 = phi i32 [ %1228, %bb4.preheader.i200 ], [ %1233, %bb3.i205 ] ; <i32> [#uses=1]
  %1235 = load double* @init_value, align 8       ; <double> [#uses=1]
  %1236 = fptosi double %1235 to i32              ; <i32> [#uses=1]
  %tmp.i.i207 = mul i32 %1236, -1564285888        ; <i32> [#uses=1]
  %1237 = add i32 %tmp.i.i207, -1269844480        ; <i32> [#uses=1]
  %1238 = icmp eq i32 %1237, %1234                ; <i1> [#uses=1]
  br i1 %1238, label %_Z9check_sumIiEvT_.exit.i210, label %bb.i1.i209

bb.i1.i209:                                       ; preds = %bb5.i208
  %1239 = load i32* @current_test, align 4        ; <i32> [#uses=1]
  %1240 = call i32 (i8*, ...)* @printf(i8* noalias getelementptr inbounds ([16 x i8]* @.str, i32 0, i32 0), i32 %1239) nounwind ; <i32> [#uses=0]
  br label %_Z9check_sumIiEvT_.exit.i210

_Z9check_sumIiEvT_.exit.i210:                     ; preds = %bb.i1.i209, %bb5.i208
  %1241 = load i32* @iterations, align 4          ; <i32> [#uses=1]
  %1242 = icmp slt i32 %tmp28.i166, %1241         ; <i1> [#uses=1]
  br i1 %1242, label %bb.i167, label %bb7.i211

bb7.i211:                                         ; preds = %_Z9check_sumIiEvT_.exit.i210, %_Z27test_for_loop_unroll_factorILi17EiEvPKT0_iPKc.exit
  %1243 = call i32 @clock() nounwind              ; <i32> [#uses=1]
  %1244 = load i32* @start_time, align 4          ; <i32> [#uses=1]
  %1245 = sub i32 %1243, %1244                    ; <i32> [#uses=1]
  %1246 = sitofp i32 %1245 to double              ; <double> [#uses=1]
  %1247 = fdiv double %1246, 1.000000e+06         ; <double> [#uses=1]
  %1248 = load %struct.one_result** @results, align 4 ; <%struct.one_result*> [#uses=3]
  %1249 = icmp eq %struct.one_result* %1248, null ; <i1> [#uses=1]
  br i1 %1249, label %bb1.i.i213, label %bb.i.i212

bb.i.i212:                                        ; preds = %bb7.i211
  %1250 = load i32* @current_test, align 4        ; <i32> [#uses=1]
  %1251 = load i32* @allocated_results, align 4   ; <i32> [#uses=1]
  %1252 = icmp slt i32 %1250, %1251               ; <i1> [#uses=1]
  br i1 %1252, label %_Z27test_for_loop_unroll_factorILi18EiEvPKT0_iPKc.exit, label %bb1.i.i213

bb1.i.i213:                                       ; preds = %bb.i.i212, %bb7.i211
  %1253 = load i32* @allocated_results, align 4   ; <i32> [#uses=1]
  %1254 = add nsw i32 %1253, 10                   ; <i32> [#uses=2]
  store i32 %1254, i32* @allocated_results, align 4
  %1255 = mul i32 %1254, 12                       ; <i32> [#uses=1]
  %1256 = bitcast %struct.one_result* %1248 to i8* ; <i8*> [#uses=1]
  %1257 = call i8* @realloc(i8* %1256, i32 %1255) nounwind ; <i8*> [#uses=2]
  %1258 = bitcast i8* %1257 to %struct.one_result* ; <%struct.one_result*> [#uses=2]
  store %struct.one_result* %1258, %struct.one_result** @results, align 4
  %1259 = icmp eq i8* %1257, null                 ; <i1> [#uses=1]
  br i1 %1259, label %bb2.i.i214, label %_Z27test_for_loop_unroll_factorILi18EiEvPKT0_iPKc.exit

bb2.i.i214:                                       ; preds = %bb1.i.i213
  %1260 = load i32* @allocated_results, align 4   ; <i32> [#uses=1]
  %1261 = call i32 (i8*, ...)* @printf(i8* noalias getelementptr inbounds ([31 x i8]* @.str11, i32 0, i32 0), i32 %1260) nounwind ; <i32> [#uses=0]
  call void @exit(i32 -1) noreturn nounwind
  unreachable

_Z27test_for_loop_unroll_factorILi18EiEvPKT0_iPKc.exit: ; preds = %bb1.i.i213, %bb.i.i212
  %1262 = phi %struct.one_result* [ %1248, %bb.i.i212 ], [ %1258, %bb1.i.i213 ] ; <%struct.one_result*> [#uses=2]
  %1263 = load i32* @current_test, align 4        ; <i32> [#uses=3]
  %1264 = getelementptr inbounds %struct.one_result* %1262, i32 %1263, i32 0 ; <double*> [#uses=1]
  store double %1247, double* %1264, align 4
  %1265 = getelementptr inbounds %struct.one_result* %1262, i32 %1263, i32 1 ; <i8**> [#uses=1]
  store i8* getelementptr inbounds ([32 x [100 x i8]]* @temp_string, i32 0, i32 17, i32 0), i8** %1265, align 4
  %1266 = add nsw i32 %1263, 1                    ; <i32> [#uses=1]
  store i32 %1266, i32* @current_test, align 4
  %1267 = call i32 @clock() nounwind              ; <i32> [#uses=1]
  store i32 %1267, i32* @start_time, align 4
  %1268 = load i32* @iterations, align 4          ; <i32> [#uses=1]
  %1269 = icmp sgt i32 %1268, 0                   ; <i1> [#uses=1]
  br i1 %1269, label %bb.i113, label %bb7.i159

bb.i113:                                          ; preds = %_Z9check_sumIiEvT_.exit.i158, %_Z27test_for_loop_unroll_factorILi18EiEvPKT0_iPKc.exit
  %i.06.i111 = phi i32 [ %tmp30.i112, %_Z9check_sumIiEvT_.exit.i158 ], [ 0, %_Z27test_for_loop_unroll_factorILi18EiEvPKT0_iPKc.exit ] ; <i32> [#uses=1]
  %tmp30.i112 = add i32 %i.06.i111, 1             ; <i32> [#uses=2]
  br label %bb1.i145

bb1.i145:                                         ; preds = %bb1.i145, %bb.i113
  %result.i109.0 = phi i32 [ 0, %bb.i113 ], [ %1346, %bb1.i145 ] ; <i32> [#uses=1]
  %indvar.i114 = phi i32 [ 0, %bb.i113 ], [ %indvar.next.i144, %bb1.i145 ] ; <i32> [#uses=2]
  %n.02.i115 = mul i32 %indvar.i114, 19           ; <i32> [#uses=21]
  %tmp.i116 = add i32 %n.02.i115, 19              ; <i32> [#uses=3]
  %tmp8.i117 = add i32 %n.02.i115, 11             ; <i32> [#uses=1]
  %scevgep.i118 = getelementptr [8000 x i32]* @data32, i32 0, i32 %tmp8.i117 ; <i32*> [#uses=1]
  %tmp9.i119 = add i32 %n.02.i115, 12             ; <i32> [#uses=1]
  %scevgep10.i120 = getelementptr [8000 x i32]* @data32, i32 0, i32 %tmp9.i119 ; <i32*> [#uses=1]
  %tmp11.i121 = add i32 %n.02.i115, 13            ; <i32> [#uses=1]
  %scevgep12.i122 = getelementptr [8000 x i32]* @data32, i32 0, i32 %tmp11.i121 ; <i32*> [#uses=1]
  %tmp13.i123 = add i32 %n.02.i115, 14            ; <i32> [#uses=1]
  %scevgep14.i124 = getelementptr [8000 x i32]* @data32, i32 0, i32 %tmp13.i123 ; <i32*> [#uses=1]
  %tmp15.i125 = add i32 %n.02.i115, 15            ; <i32> [#uses=1]
  %scevgep16.i126 = getelementptr [8000 x i32]* @data32, i32 0, i32 %tmp15.i125 ; <i32*> [#uses=1]
  %tmp17.i127 = add i32 %n.02.i115, 16            ; <i32> [#uses=1]
  %scevgep18.i128 = getelementptr [8000 x i32]* @data32, i32 0, i32 %tmp17.i127 ; <i32*> [#uses=1]
  %tmp19.i129 = add i32 %n.02.i115, 17            ; <i32> [#uses=1]
  %scevgep20.i130 = getelementptr [8000 x i32]* @data32, i32 0, i32 %tmp19.i129 ; <i32*> [#uses=1]
  %tmp21.i131 = add i32 %n.02.i115, 18            ; <i32> [#uses=1]
  %scevgep22.i132 = getelementptr [8000 x i32]* @data32, i32 0, i32 %tmp21.i131 ; <i32*> [#uses=1]
  %1270 = getelementptr inbounds [8000 x i32]* @data32, i32 0, i32 %n.02.i115 ; <i32*> [#uses=1]
  %1271 = load i32* %1270, align 4                ; <i32> [#uses=1]
  %tmp3.i.i.i.i.i.i.i.i.i.i.i.i.i133 = mul i32 %1271, 269850533 ; <i32> [#uses=1]
  %1272 = add i32 %result.i109.0, -1138325064     ; <i32> [#uses=1]
  %1273 = add nsw i32 %1272, %tmp3.i.i.i.i.i.i.i.i.i.i.i.i.i133 ; <i32> [#uses=1]
  %1274 = add nsw i32 %n.02.i115, 1               ; <i32> [#uses=1]
  %1275 = getelementptr inbounds [8000 x i32]* @data32, i32 0, i32 %1274 ; <i32*> [#uses=1]
  %1276 = load i32* %1275, align 4                ; <i32> [#uses=1]
  %tmp3.i.i.i.i.i.i.i.i.i.i.i.i134 = mul i32 %1276, 269850533 ; <i32> [#uses=1]
  %1277 = add i32 %tmp3.i.i.i.i.i.i.i.i.i.i.i.i134, -1138325064 ; <i32> [#uses=1]
  %1278 = add nsw i32 %1277, %1273                ; <i32> [#uses=1]
  %1279 = add nsw i32 %n.02.i115, 2               ; <i32> [#uses=1]
  %1280 = getelementptr inbounds [8000 x i32]* @data32, i32 0, i32 %1279 ; <i32*> [#uses=1]
  %1281 = load i32* %1280, align 4                ; <i32> [#uses=1]
  %tmp3.i.i.i.i.i.i.i.i.i.i.i135 = mul i32 %1281, 269850533 ; <i32> [#uses=1]
  %1282 = add i32 %tmp3.i.i.i.i.i.i.i.i.i.i.i135, -1138325064 ; <i32> [#uses=1]
  %1283 = add nsw i32 %1282, %1278                ; <i32> [#uses=1]
  %1284 = add nsw i32 %n.02.i115, 3               ; <i32> [#uses=1]
  %1285 = getelementptr inbounds [8000 x i32]* @data32, i32 0, i32 %1284 ; <i32*> [#uses=1]
  %1286 = load i32* %1285, align 4                ; <i32> [#uses=1]
  %tmp3.i.i.i.i.i.i.i.i.i1.i = mul i32 %1286, 269850533 ; <i32> [#uses=1]
  %1287 = add i32 %tmp3.i.i.i.i.i.i.i.i.i1.i, -1138325064 ; <i32> [#uses=1]
  %1288 = add nsw i32 %1287, %1283                ; <i32> [#uses=1]
  %1289 = add nsw i32 %n.02.i115, 4               ; <i32> [#uses=1]
  %1290 = getelementptr inbounds [8000 x i32]* @data32, i32 0, i32 %1289 ; <i32*> [#uses=1]
  %1291 = load i32* %1290, align 4                ; <i32> [#uses=1]
  %tmp3.i.i.i.i.i.i.i.i2.i = mul i32 %1291, 269850533 ; <i32> [#uses=1]
  %1292 = add i32 %tmp3.i.i.i.i.i.i.i.i2.i, -1138325064 ; <i32> [#uses=1]
  %1293 = add nsw i32 %1292, %1288                ; <i32> [#uses=1]
  %1294 = add nsw i32 %n.02.i115, 5               ; <i32> [#uses=1]
  %1295 = getelementptr inbounds [8000 x i32]* @data32, i32 0, i32 %1294 ; <i32*> [#uses=1]
  %1296 = load i32* %1295, align 4                ; <i32> [#uses=1]
  %tmp3.i.i.i.i.i.i.i3.i = mul i32 %1296, 269850533 ; <i32> [#uses=1]
  %1297 = add i32 %tmp3.i.i.i.i.i.i.i3.i, -1138325064 ; <i32> [#uses=1]
  %1298 = add nsw i32 %1297, %1293                ; <i32> [#uses=1]
  %1299 = add nsw i32 %n.02.i115, 6               ; <i32> [#uses=1]
  %1300 = getelementptr inbounds [8000 x i32]* @data32, i32 0, i32 %1299 ; <i32*> [#uses=1]
  %1301 = load i32* %1300, align 4                ; <i32> [#uses=1]
  %tmp3.i.i.i.i.i.i4.i = mul i32 %1301, 269850533 ; <i32> [#uses=1]
  %1302 = add i32 %tmp3.i.i.i.i.i.i4.i, -1138325064 ; <i32> [#uses=1]
  %1303 = add nsw i32 %1302, %1298                ; <i32> [#uses=1]
  %1304 = add nsw i32 %n.02.i115, 7               ; <i32> [#uses=1]
  %1305 = getelementptr inbounds [8000 x i32]* @data32, i32 0, i32 %1304 ; <i32*> [#uses=1]
  %1306 = load i32* %1305, align 4                ; <i32> [#uses=1]
  %tmp3.i.i.i.i.i5.i = mul i32 %1306, 269850533   ; <i32> [#uses=1]
  %1307 = add i32 %tmp3.i.i.i.i.i5.i, -1138325064 ; <i32> [#uses=1]
  %1308 = add nsw i32 %1307, %1303                ; <i32> [#uses=1]
  %1309 = add nsw i32 %n.02.i115, 8               ; <i32> [#uses=1]
  %1310 = getelementptr inbounds [8000 x i32]* @data32, i32 0, i32 %1309 ; <i32*> [#uses=1]
  %1311 = load i32* %1310, align 4                ; <i32> [#uses=1]
  %tmp3.i.i.i.i6.i = mul i32 %1311, 269850533     ; <i32> [#uses=1]
  %1312 = add i32 %tmp3.i.i.i.i6.i, -1138325064   ; <i32> [#uses=1]
  %1313 = add nsw i32 %1312, %1308                ; <i32> [#uses=1]
  %1314 = add nsw i32 %n.02.i115, 9               ; <i32> [#uses=1]
  %1315 = getelementptr inbounds [8000 x i32]* @data32, i32 0, i32 %1314 ; <i32*> [#uses=1]
  %1316 = load i32* %1315, align 4                ; <i32> [#uses=1]
  %tmp3.i.i.i7.i = mul i32 %1316, 269850533       ; <i32> [#uses=1]
  %1317 = add i32 %tmp3.i.i.i7.i, -1138325064     ; <i32> [#uses=1]
  %1318 = add nsw i32 %1317, %1313                ; <i32> [#uses=1]
  %1319 = add nsw i32 %n.02.i115, 10              ; <i32> [#uses=1]
  %1320 = getelementptr inbounds [8000 x i32]* @data32, i32 0, i32 %1319 ; <i32*> [#uses=1]
  %1321 = load i32* %1320, align 4                ; <i32> [#uses=1]
  %tmp3.i.i8.i = mul i32 %1321, 269850533         ; <i32> [#uses=1]
  %1322 = load i32* %scevgep.i118, align 4        ; <i32> [#uses=1]
  %tmp3.i.i.i.i.i.i.i.i.i.i136 = mul i32 %1322, 269850533 ; <i32> [#uses=1]
  %1323 = add i32 %tmp3.i.i8.i, %1318             ; <i32> [#uses=1]
  %1324 = add nsw i32 %1323, 2018317168           ; <i32> [#uses=1]
  %1325 = add nsw i32 %1324, %tmp3.i.i.i.i.i.i.i.i.i.i136 ; <i32> [#uses=1]
  %1326 = load i32* %scevgep10.i120, align 4      ; <i32> [#uses=1]
  %tmp3.i.i.i.i.i.i.i.i.i137 = mul i32 %1326, 269850533 ; <i32> [#uses=1]
  %1327 = add i32 %tmp3.i.i.i.i.i.i.i.i.i137, -1138325064 ; <i32> [#uses=1]
  %1328 = add nsw i32 %1327, %1325                ; <i32> [#uses=1]
  %1329 = load i32* %scevgep12.i122, align 4      ; <i32> [#uses=1]
  %tmp3.i.i.i.i.i.i.i.i138 = mul i32 %1329, 269850533 ; <i32> [#uses=1]
  %1330 = add i32 %tmp3.i.i.i.i.i.i.i.i138, -1138325064 ; <i32> [#uses=1]
  %1331 = add nsw i32 %1330, %1328                ; <i32> [#uses=1]
  %1332 = load i32* %scevgep14.i124, align 4      ; <i32> [#uses=1]
  %tmp3.i.i.i.i.i.i.i139 = mul i32 %1332, 269850533 ; <i32> [#uses=1]
  %1333 = add i32 %tmp3.i.i.i.i.i.i.i139, -1138325064 ; <i32> [#uses=1]
  %1334 = add nsw i32 %1333, %1331                ; <i32> [#uses=1]
  %1335 = load i32* %scevgep16.i126, align 4      ; <i32> [#uses=1]
  %tmp3.i.i.i.i.i.i140 = mul i32 %1335, 269850533 ; <i32> [#uses=1]
  %1336 = add i32 %tmp3.i.i.i.i.i.i140, -1138325064 ; <i32> [#uses=1]
  %1337 = add nsw i32 %1336, %1334                ; <i32> [#uses=1]
  %1338 = load i32* %scevgep18.i128, align 4      ; <i32> [#uses=1]
  %tmp3.i.i.i.i.i141 = mul i32 %1338, 269850533   ; <i32> [#uses=1]
  %1339 = add i32 %tmp3.i.i.i.i.i141, -1138325064 ; <i32> [#uses=1]
  %1340 = add nsw i32 %1339, %1337                ; <i32> [#uses=1]
  %1341 = load i32* %scevgep20.i130, align 4      ; <i32> [#uses=1]
  %tmp3.i.i.i.i142 = mul i32 %1341, 269850533     ; <i32> [#uses=1]
  %1342 = add i32 %tmp3.i.i.i.i142, -1138325064   ; <i32> [#uses=1]
  %1343 = add nsw i32 %1342, %1340                ; <i32> [#uses=1]
  %1344 = load i32* %scevgep22.i132, align 4      ; <i32> [#uses=1]
  %tmp3.i.i.i143 = mul i32 %1344, 269850533       ; <i32> [#uses=1]
  %1345 = add i32 %tmp3.i.i.i143, -1138325064     ; <i32> [#uses=1]
  %1346 = add nsw i32 %1345, %1343                ; <i32> [#uses=3]
  %1347 = icmp slt i32 %tmp.i116, 7982            ; <i1> [#uses=1]
  %indvar.next.i144 = add i32 %indvar.i114, 1     ; <i32> [#uses=1]
  br i1 %1347, label %bb1.i145, label %bb4.preheader.i148

bb4.preheader.i148:                               ; preds = %bb1.i145
  %1348 = icmp slt i32 %tmp.i116, 8000            ; <i1> [#uses=1]
  br i1 %1348, label %bb.nph5.i149, label %bb5.i156

bb.nph5.i149:                                     ; preds = %bb4.preheader.i148
  %tmp27.i = sub i32 7981, %n.02.i115             ; <i32> [#uses=1]
  br label %bb3.i153

bb3.i153:                                         ; preds = %bb3.i153, %bb.nph5.i149
  %indvar24.i = phi i32 [ 0, %bb.nph5.i149 ], [ %indvar.next25.i, %bb3.i153 ] ; <i32> [#uses=2]
  %result.tmp.0.i150 = phi i32 [ %1346, %bb.nph5.i149 ], [ %1351, %bb3.i153 ] ; <i32> [#uses=1]
  %tmp28.i = add i32 %indvar24.i, %tmp.i116       ; <i32> [#uses=1]
  %scevgep29.i = getelementptr [8000 x i32]* @data32, i32 0, i32 %tmp28.i ; <i32*> [#uses=1]
  %1349 = load i32* %scevgep29.i, align 4         ; <i32> [#uses=1]
  %tmp3.i.i151 = mul i32 %1349, 269850533         ; <i32> [#uses=1]
  %1350 = add i32 %result.tmp.0.i150, -1138325064 ; <i32> [#uses=1]
  %1351 = add nsw i32 %1350, %tmp3.i.i151         ; <i32> [#uses=2]
  %indvar.next25.i = add i32 %indvar24.i, 1       ; <i32> [#uses=2]
  %exitcond.i152 = icmp eq i32 %indvar.next25.i, %tmp27.i ; <i1> [#uses=1]
  br i1 %exitcond.i152, label %bb5.i156, label %bb3.i153

bb5.i156:                                         ; preds = %bb3.i153, %bb4.preheader.i148
  %1352 = phi i32 [ %1346, %bb4.preheader.i148 ], [ %1351, %bb3.i153 ] ; <i32> [#uses=1]
  %1353 = load double* @init_value, align 8       ; <double> [#uses=1]
  %1354 = fptosi double %1353 to i32              ; <i32> [#uses=1]
  %tmp.i.i155 = mul i32 %1354, -1564285888        ; <i32> [#uses=1]
  %1355 = add i32 %tmp.i.i155, -1269844480        ; <i32> [#uses=1]
  %1356 = icmp eq i32 %1355, %1352                ; <i1> [#uses=1]
  br i1 %1356, label %_Z9check_sumIiEvT_.exit.i158, label %bb.i1.i157

bb.i1.i157:                                       ; preds = %bb5.i156
  %1357 = load i32* @current_test, align 4        ; <i32> [#uses=1]
  %1358 = call i32 (i8*, ...)* @printf(i8* noalias getelementptr inbounds ([16 x i8]* @.str, i32 0, i32 0), i32 %1357) nounwind ; <i32> [#uses=0]
  br label %_Z9check_sumIiEvT_.exit.i158

_Z9check_sumIiEvT_.exit.i158:                     ; preds = %bb.i1.i157, %bb5.i156
  %1359 = load i32* @iterations, align 4          ; <i32> [#uses=1]
  %1360 = icmp slt i32 %tmp30.i112, %1359         ; <i1> [#uses=1]
  br i1 %1360, label %bb.i113, label %bb7.i159

bb7.i159:                                         ; preds = %_Z9check_sumIiEvT_.exit.i158, %_Z27test_for_loop_unroll_factorILi18EiEvPKT0_iPKc.exit
  %1361 = call i32 @clock() nounwind              ; <i32> [#uses=1]
  %1362 = load i32* @start_time, align 4          ; <i32> [#uses=1]
  %1363 = sub i32 %1361, %1362                    ; <i32> [#uses=1]
  %1364 = sitofp i32 %1363 to double              ; <double> [#uses=1]
  %1365 = fdiv double %1364, 1.000000e+06         ; <double> [#uses=1]
  %1366 = load %struct.one_result** @results, align 4 ; <%struct.one_result*> [#uses=3]
  %1367 = icmp eq %struct.one_result* %1366, null ; <i1> [#uses=1]
  br i1 %1367, label %bb1.i.i161, label %bb.i.i160

bb.i.i160:                                        ; preds = %bb7.i159
  %1368 = load i32* @current_test, align 4        ; <i32> [#uses=1]
  %1369 = load i32* @allocated_results, align 4   ; <i32> [#uses=1]
  %1370 = icmp slt i32 %1368, %1369               ; <i1> [#uses=1]
  br i1 %1370, label %_Z27test_for_loop_unroll_factorILi19EiEvPKT0_iPKc.exit, label %bb1.i.i161

bb1.i.i161:                                       ; preds = %bb.i.i160, %bb7.i159
  %1371 = load i32* @allocated_results, align 4   ; <i32> [#uses=1]
  %1372 = add nsw i32 %1371, 10                   ; <i32> [#uses=2]
  store i32 %1372, i32* @allocated_results, align 4
  %1373 = mul i32 %1372, 12                       ; <i32> [#uses=1]
  %1374 = bitcast %struct.one_result* %1366 to i8* ; <i8*> [#uses=1]
  %1375 = call i8* @realloc(i8* %1374, i32 %1373) nounwind ; <i8*> [#uses=2]
  %1376 = bitcast i8* %1375 to %struct.one_result* ; <%struct.one_result*> [#uses=2]
  store %struct.one_result* %1376, %struct.one_result** @results, align 4
  %1377 = icmp eq i8* %1375, null                 ; <i1> [#uses=1]
  br i1 %1377, label %bb2.i.i162, label %_Z27test_for_loop_unroll_factorILi19EiEvPKT0_iPKc.exit

bb2.i.i162:                                       ; preds = %bb1.i.i161
  %1378 = load i32* @allocated_results, align 4   ; <i32> [#uses=1]
  %1379 = call i32 (i8*, ...)* @printf(i8* noalias getelementptr inbounds ([31 x i8]* @.str11, i32 0, i32 0), i32 %1378) nounwind ; <i32> [#uses=0]
  call void @exit(i32 -1) noreturn nounwind
  unreachable

_Z27test_for_loop_unroll_factorILi19EiEvPKT0_iPKc.exit: ; preds = %bb1.i.i161, %bb.i.i160
  %1380 = phi %struct.one_result* [ %1366, %bb.i.i160 ], [ %1376, %bb1.i.i161 ] ; <%struct.one_result*> [#uses=2]
  %1381 = load i32* @current_test, align 4        ; <i32> [#uses=3]
  %1382 = getelementptr inbounds %struct.one_result* %1380, i32 %1381, i32 0 ; <double*> [#uses=1]
  store double %1365, double* %1382, align 4
  %1383 = getelementptr inbounds %struct.one_result* %1380, i32 %1381, i32 1 ; <i8**> [#uses=1]
  store i8* getelementptr inbounds ([32 x [100 x i8]]* @temp_string, i32 0, i32 18, i32 0), i8** %1383, align 4
  %1384 = add nsw i32 %1381, 1                    ; <i32> [#uses=1]
  store i32 %1384, i32* @current_test, align 4
  %1385 = call i32 @clock() nounwind              ; <i32> [#uses=1]
  store i32 %1385, i32* @start_time, align 4
  %1386 = load i32* @iterations, align 4          ; <i32> [#uses=1]
  %1387 = icmp sgt i32 %1386, 0                   ; <i1> [#uses=1]
  br i1 %1387, label %bb.i69, label %bb7.i105

bb.i69:                                           ; preds = %_Z9check_sumIiEvT_.exit.i104, %_Z27test_for_loop_unroll_factorILi19EiEvPKT0_iPKc.exit
  %i.06.i68 = phi i32 [ %tmp32.i, %_Z9check_sumIiEvT_.exit.i104 ], [ 0, %_Z27test_for_loop_unroll_factorILi19EiEvPKT0_iPKc.exit ] ; <i32> [#uses=1]
  %tmp32.i = add i32 %i.06.i68, 1                 ; <i32> [#uses=2]
  br label %bb1.i91

bb1.i91:                                          ; preds = %bb1.i91, %bb.i69
  %result.i66.0 = phi i32 [ 0, %bb.i69 ], [ %1467, %bb1.i91 ] ; <i32> [#uses=1]
  %indvar.i70 = phi i32 [ 0, %bb.i69 ], [ %indvar.next.i90, %bb1.i91 ] ; <i32> [#uses=2]
  %n.02.i71 = mul i32 %indvar.i70, 20             ; <i32> [#uses=22]
  %tmp.i72 = add i32 %n.02.i71, 20                ; <i32> [#uses=3]
  %tmp8.i73 = add i32 %n.02.i71, 11               ; <i32> [#uses=1]
  %scevgep.i74 = getelementptr [8000 x i32]* @data32, i32 0, i32 %tmp8.i73 ; <i32*> [#uses=1]
