; ModuleID = 'simple_types_constant_folding.llvm.bc'
target datalayout = "e-p:32:32:32-i1:8:8-i8:8:8-i16:16:16-i32:32:32-i64:32:64-f32:32:32-f64:32:64-v64:64:64-v128:128:128-a0:0:64-f80:32:32"
target triple = "i386-pc-linux-gnu"

%0 = type { i32, void ()* }
%struct.FILE = type { i32, i8*, i8*, i8*, i8*, i8*, i8*, i8*, i8*, i8*, i8*, i8*, %struct._IO_marker*, %struct.FILE*, i32, i32, i32, i16, i8, [1 x i8], i8*, i64, i8*, i8*, i8*, i8*, i32, i32, [40 x i8] }
%struct._IO_marker = type { %struct._IO_marker*, %struct.FILE*, i32 }
%struct.one_result = type { double, i8* }

@.str = private constant [16 x i8] c"test %i failed\0A\00", align 1 ; <[16 x i8]*> [#uses=1]
@.str11 = private constant [31 x i8] c"Could not allocate %d results\0A\00", align 1 ; <[31 x i8]*> [#uses=1]
@data8 = internal global [8000 x i8] zeroinitializer, align 32 ; <[8000 x i8]*> [#uses=20]
@.str12 = private constant [16 x i8] c"int8_t constant\00", align 1 ; <[16 x i8]*> [#uses=1]
@.str13 = private constant [21 x i8] c"int8_t add constants\00", align 1 ; <[21 x i8]*> [#uses=1]
@.str14 = private constant [26 x i8] c"int8_t subtract constants\00", align 1 ; <[26 x i8]*> [#uses=1]
@.str15 = private constant [26 x i8] c"int8_t multiply constants\00", align 1 ; <[26 x i8]*> [#uses=1]
@.str16 = private constant [24 x i8] c"int8_t divide constants\00", align 1 ; <[24 x i8]*> [#uses=1]
@.str17 = private constant [21 x i8] c"int8_t mod constants\00", align 1 ; <[21 x i8]*> [#uses=1]
@.str18 = private constant [23 x i8] c"int8_t equal constants\00", align 1 ; <[23 x i8]*> [#uses=1]
@.str19 = private constant [26 x i8] c"int8_t notequal constants\00", align 1 ; <[26 x i8]*> [#uses=1]
@.str20 = private constant [30 x i8] c"int8_t greater than constants\00", align 1 ; <[30 x i8]*> [#uses=1]
@.str21 = private constant [27 x i8] c"int8_t less than constants\00", align 1 ; <[27 x i8]*> [#uses=1]
@.str22 = private constant [36 x i8] c"int8_t greater than equal constants\00", align 1 ; <[36 x i8]*> [#uses=1]
@.str23 = private constant [33 x i8] c"int8_t less than equal constants\00", align 1 ; <[33 x i8]*> [#uses=1]
@.str24 = private constant [21 x i8] c"int8_t and constants\00", align 1 ; <[21 x i8]*> [#uses=1]
@.str25 = private constant [20 x i8] c"int8_t or constants\00", align 1 ; <[20 x i8]*> [#uses=1]
@.str26 = private constant [21 x i8] c"int8_t xor constants\00", align 1 ; <[21 x i8]*> [#uses=1]
@.str27 = private constant [20 x i8] c"int8_t constant add\00", align 1 ; <[20 x i8]*> [#uses=1]
@.str28 = private constant [30 x i8] c"int8_t multiple constant adds\00", align 1 ; <[30 x i8]*> [#uses=1]
@.str29 = private constant [25 x i8] c"int8_t constant subtract\00", align 1 ; <[25 x i8]*> [#uses=1]
@.str30 = private constant [35 x i8] c"int8_t multiple constant subtracts\00", align 1 ; <[35 x i8]*> [#uses=1]
@.str31 = private constant [25 x i8] c"int8_t constant multiply\00", align 1 ; <[25 x i8]*> [#uses=1]
@.str32 = private constant [36 x i8] c"int8_t multiple constant multiplies\00", align 1 ; <[36 x i8]*> [#uses=1]
@.str33 = private constant [35 x i8] c"int8_t multiple constant multiply2\00", align 1 ; <[35 x i8]*> [#uses=1]
@.str34 = private constant [23 x i8] c"int8_t constant divide\00", align 1 ; <[23 x i8]*> [#uses=1]
@.str35 = private constant [33 x i8] c"int8_t multiple constant divides\00", align 1 ; <[33 x i8]*> [#uses=1]
@.str36 = private constant [33 x i8] c"int8_t multiple constant divide2\00", align 1 ; <[33 x i8]*> [#uses=1]
@.str37 = private constant [31 x i8] c"int8_t multiple constant mixed\00", align 1 ; <[31 x i8]*> [#uses=1]
@.str38 = private constant [20 x i8] c"int8_t constant and\00", align 1 ; <[20 x i8]*> [#uses=1]
@.str39 = private constant [29 x i8] c"int8_t multiple constant and\00", align 1 ; <[29 x i8]*> [#uses=1]
@.str40 = private constant [19 x i8] c"int8_t constant or\00", align 1 ; <[19 x i8]*> [#uses=1]
@.str41 = private constant [28 x i8] c"int8_t multiple constant or\00", align 1 ; <[28 x i8]*> [#uses=1]
@.str42 = private constant [20 x i8] c"int8_t constant xor\00", align 1 ; <[20 x i8]*> [#uses=1]
@.str43 = private constant [29 x i8] c"int8_t multiple constant xor\00", align 1 ; <[29 x i8]*> [#uses=1]
@data8unsigned = internal global [8000 x i8] zeroinitializer, align 32 ; <[8000 x i8]*> [#uses=20]
@.str44 = private constant [17 x i8] c"uint8_t constant\00", align 1 ; <[17 x i8]*> [#uses=1]
@.str45 = private constant [22 x i8] c"uint8_t add constants\00", align 1 ; <[22 x i8]*> [#uses=1]
@.str46 = private constant [27 x i8] c"uint8_t subtract constants\00", align 1 ; <[27 x i8]*> [#uses=1]
@.str47 = private constant [27 x i8] c"uint8_t multiply constants\00", align 1 ; <[27 x i8]*> [#uses=1]
@.str48 = private constant [25 x i8] c"uint8_t divide constants\00", align 1 ; <[25 x i8]*> [#uses=1]
@.str49 = private constant [22 x i8] c"uint8_t mod constants\00", align 1 ; <[22 x i8]*> [#uses=1]
@.str50 = private constant [24 x i8] c"uint8_t equal constants\00", align 1 ; <[24 x i8]*> [#uses=1]
@.str51 = private constant [27 x i8] c"uint8_t notequal constants\00", align 1 ; <[27 x i8]*> [#uses=1]
@.str52 = private constant [31 x i8] c"uint8_t greater than constants\00", align 1 ; <[31 x i8]*> [#uses=1]
@.str53 = private constant [28 x i8] c"uint8_t less than constants\00", align 1 ; <[28 x i8]*> [#uses=1]
@.str54 = private constant [37 x i8] c"uint8_t greater than equal constants\00", align 1 ; <[37 x i8]*> [#uses=1]
@.str55 = private constant [34 x i8] c"uint8_t less than equal constants\00", align 1 ; <[34 x i8]*> [#uses=1]
@.str56 = private constant [22 x i8] c"uint8_t and constants\00", align 1 ; <[22 x i8]*> [#uses=1]
@.str57 = private constant [21 x i8] c"uint8_t or constants\00", align 1 ; <[21 x i8]*> [#uses=1]
@.str58 = private constant [22 x i8] c"uint8_t xor constants\00", align 1 ; <[22 x i8]*> [#uses=1]
@.str59 = private constant [21 x i8] c"uint8_t constant add\00", align 1 ; <[21 x i8]*> [#uses=1]
@.str60 = private constant [31 x i8] c"uint8_t multiple constant adds\00", align 1 ; <[31 x i8]*> [#uses=1]
@.str61 = private constant [26 x i8] c"uint8_t constant subtract\00", align 1 ; <[26 x i8]*> [#uses=1]
@.str62 = private constant [36 x i8] c"uint8_t multiple constant subtracts\00", align 1 ; <[36 x i8]*> [#uses=1]
@.str63 = private constant [26 x i8] c"uint8_t constant multiply\00", align 1 ; <[26 x i8]*> [#uses=1]
@.str64 = private constant [37 x i8] c"uint8_t multiple constant multiplies\00", align 1 ; <[37 x i8]*> [#uses=1]
@.str65 = private constant [36 x i8] c"uint8_t multiple constant multiply2\00", align 1 ; <[36 x i8]*> [#uses=1]
@.str66 = private constant [24 x i8] c"uint8_t constant divide\00", align 1 ; <[24 x i8]*> [#uses=1]
@.str67 = private constant [34 x i8] c"uint8_t multiple constant divides\00", align 1 ; <[34 x i8]*> [#uses=1]
@.str68 = private constant [34 x i8] c"uint8_t multiple constant divide2\00", align 1 ; <[34 x i8]*> [#uses=1]
@.str69 = private constant [32 x i8] c"uint8_t multiple constant mixed\00", align 1 ; <[32 x i8]*> [#uses=1]
@.str70 = private constant [21 x i8] c"uint8_t constant and\00", align 1 ; <[21 x i8]*> [#uses=1]
@.str71 = private constant [30 x i8] c"uint8_t multiple constant and\00", align 1 ; <[30 x i8]*> [#uses=1]
@.str72 = private constant [20 x i8] c"uint8_t constant or\00", align 1 ; <[20 x i8]*> [#uses=1]
@.str73 = private constant [29 x i8] c"uint8_t multiple constant or\00", align 1 ; <[29 x i8]*> [#uses=1]
@.str74 = private constant [21 x i8] c"uint8_t constant xor\00", align 1 ; <[21 x i8]*> [#uses=1]
@.str75 = private constant [30 x i8] c"uint8_t multiple constant xor\00", align 1 ; <[30 x i8]*> [#uses=1]
@data16 = internal global [8000 x i16] zeroinitializer, align 32 ; <[8000 x i16]*> [#uses=18]
@.str76 = private constant [17 x i8] c"int16_t constant\00", align 1 ; <[17 x i8]*> [#uses=1]
@.str77 = private constant [22 x i8] c"int16_t add constants\00", align 1 ; <[22 x i8]*> [#uses=1]
@.str78 = private constant [27 x i8] c"int16_t subtract constants\00", align 1 ; <[27 x i8]*> [#uses=1]
@.str79 = private constant [27 x i8] c"int16_t multiply constants\00", align 1 ; <[27 x i8]*> [#uses=1]
@.str80 = private constant [25 x i8] c"int16_t divide constants\00", align 1 ; <[25 x i8]*> [#uses=1]
@.str81 = private constant [22 x i8] c"int16_t mod constants\00", align 1 ; <[22 x i8]*> [#uses=1]
@.str82 = private constant [24 x i8] c"int16_t equal constants\00", align 1 ; <[24 x i8]*> [#uses=1]
@.str83 = private constant [27 x i8] c"int16_t notequal constants\00", align 1 ; <[27 x i8]*> [#uses=1]
@.str84 = private constant [31 x i8] c"int16_t greater than constants\00", align 1 ; <[31 x i8]*> [#uses=1]
@.str85 = private constant [28 x i8] c"int16_t less than constants\00", align 1 ; <[28 x i8]*> [#uses=1]
@.str86 = private constant [37 x i8] c"int16_t greater than equal constants\00", align 1 ; <[37 x i8]*> [#uses=1]
@.str87 = private constant [34 x i8] c"int16_t less than equal constants\00", align 1 ; <[34 x i8]*> [#uses=1]
@.str88 = private constant [22 x i8] c"int16_t and constants\00", align 1 ; <[22 x i8]*> [#uses=1]
@.str89 = private constant [21 x i8] c"int16_t or constants\00", align 1 ; <[21 x i8]*> [#uses=1]
@.str90 = private constant [22 x i8] c"int16_t xor constants\00", align 1 ; <[22 x i8]*> [#uses=1]
@.str91 = private constant [21 x i8] c"int16_t constant add\00", align 1 ; <[21 x i8]*> [#uses=1]
@.str92 = private constant [31 x i8] c"int16_t multiple constant adds\00", align 1 ; <[31 x i8]*> [#uses=1]
@.str93 = private constant [26 x i8] c"int16_t constant subtract\00", align 1 ; <[26 x i8]*> [#uses=1]
@.str94 = private constant [36 x i8] c"int16_t multiple constant subtracts\00", align 1 ; <[36 x i8]*> [#uses=1]
@.str95 = private constant [26 x i8] c"int16_t constant multiply\00", align 1 ; <[26 x i8]*> [#uses=1]
@.str96 = private constant [37 x i8] c"int16_t multiple constant multiplies\00", align 1 ; <[37 x i8]*> [#uses=1]
@.str97 = private constant [36 x i8] c"int16_t multiple constant multiply2\00", align 1 ; <[36 x i8]*> [#uses=1]
@.str98 = private constant [24 x i8] c"int16_t constant divide\00", align 1 ; <[24 x i8]*> [#uses=1]
@.str99 = private constant [34 x i8] c"int16_t multiple constant divides\00", align 1 ; <[34 x i8]*> [#uses=1]
@.str100 = private constant [34 x i8] c"int16_t multiple constant divide2\00", align 1 ; <[34 x i8]*> [#uses=1]
@.str101 = private constant [32 x i8] c"int16_t multiple constant mixed\00", align 1 ; <[32 x i8]*> [#uses=1]
@.str102 = private constant [21 x i8] c"int16_t constant and\00", align 1 ; <[21 x i8]*> [#uses=1]
@.str103 = private constant [30 x i8] c"int16_t multiple constant and\00", align 1 ; <[30 x i8]*> [#uses=1]
@.str104 = private constant [20 x i8] c"int16_t constant or\00", align 1 ; <[20 x i8]*> [#uses=1]
@.str105 = private constant [29 x i8] c"int16_t multiple constant or\00", align 1 ; <[29 x i8]*> [#uses=1]
@.str106 = private constant [21 x i8] c"int16_t constant xor\00", align 1 ; <[21 x i8]*> [#uses=1]
@.str107 = private constant [30 x i8] c"int16_t multiple constant xor\00", align 1 ; <[30 x i8]*> [#uses=1]
@data16unsigned = internal global [8000 x i16] zeroinitializer, align 32 ; <[8000 x i16]*> [#uses=18]
@.str108 = private constant [18 x i8] c"uint16_t constant\00", align 1 ; <[18 x i8]*> [#uses=1]
@.str109 = private constant [23 x i8] c"uint16_t add constants\00", align 1 ; <[23 x i8]*> [#uses=1]
@.str110 = private constant [28 x i8] c"uint16_t subtract constants\00", align 1 ; <[28 x i8]*> [#uses=1]
@.str111 = private constant [28 x i8] c"uint16_t multiply constants\00", align 1 ; <[28 x i8]*> [#uses=1]
@.str112 = private constant [26 x i8] c"uint16_t divide constants\00", align 1 ; <[26 x i8]*> [#uses=1]
@.str113 = private constant [23 x i8] c"uint16_t mod constants\00", align 1 ; <[23 x i8]*> [#uses=1]
@.str114 = private constant [25 x i8] c"uint16_t equal constants\00", align 1 ; <[25 x i8]*> [#uses=1]
@.str115 = private constant [28 x i8] c"uint16_t notequal constants\00", align 1 ; <[28 x i8]*> [#uses=1]
@.str116 = private constant [32 x i8] c"uint16_t greater than constants\00", align 1 ; <[32 x i8]*> [#uses=1]
@.str117 = private constant [29 x i8] c"uint16_t less than constants\00", align 1 ; <[29 x i8]*> [#uses=1]
@.str118 = private constant [38 x i8] c"uint16_t greater than equal constants\00", align 1 ; <[38 x i8]*> [#uses=1]
@.str119 = private constant [35 x i8] c"uint16_t less than equal constants\00", align 1 ; <[35 x i8]*> [#uses=1]
@.str120 = private constant [23 x i8] c"uint16_t and constants\00", align 1 ; <[23 x i8]*> [#uses=1]
@.str121 = private constant [22 x i8] c"uint16_t or constants\00", align 1 ; <[22 x i8]*> [#uses=1]
@.str122 = private constant [23 x i8] c"uint16_t xor constants\00", align 1 ; <[23 x i8]*> [#uses=1]
@.str123 = private constant [22 x i8] c"uint16_t constant add\00", align 1 ; <[22 x i8]*> [#uses=1]
@.str124 = private constant [32 x i8] c"uint16_t multiple constant adds\00", align 1 ; <[32 x i8]*> [#uses=1]
@.str125 = private constant [27 x i8] c"uint16_t constant subtract\00", align 1 ; <[27 x i8]*> [#uses=1]
@.str126 = private constant [37 x i8] c"uint16_t multiple constant subtracts\00", align 1 ; <[37 x i8]*> [#uses=1]
@.str127 = private constant [27 x i8] c"uint16_t constant multiply\00", align 1 ; <[27 x i8]*> [#uses=1]
@.str128 = private constant [38 x i8] c"uint16_t multiple constant multiplies\00", align 1 ; <[38 x i8]*> [#uses=1]
@.str129 = private constant [37 x i8] c"uint16_t multiple constant multiply2\00", align 1 ; <[37 x i8]*> [#uses=1]
@.str130 = private constant [25 x i8] c"uint16_t constant divide\00", align 1 ; <[25 x i8]*> [#uses=1]
@.str131 = private constant [35 x i8] c"uint16_t multiple constant divides\00", align 1 ; <[35 x i8]*> [#uses=1]
@.str132 = private constant [35 x i8] c"uint16_t multiple constant divide2\00", align 1 ; <[35 x i8]*> [#uses=1]
@.str133 = private constant [33 x i8] c"uint16_t multiple constant mixed\00", align 1 ; <[33 x i8]*> [#uses=1]
@.str134 = private constant [22 x i8] c"uint16_t constant and\00", align 1 ; <[22 x i8]*> [#uses=1]
@.str135 = private constant [31 x i8] c"uint16_t multiple constant and\00", align 1 ; <[31 x i8]*> [#uses=1]
@.str136 = private constant [21 x i8] c"uint16_t constant or\00", align 1 ; <[21 x i8]*> [#uses=1]
@.str137 = private constant [30 x i8] c"uint16_t multiple constant or\00", align 1 ; <[30 x i8]*> [#uses=1]
@.str138 = private constant [22 x i8] c"uint16_t constant xor\00", align 1 ; <[22 x i8]*> [#uses=1]
@.str139 = private constant [31 x i8] c"uint16_t multiple constant xor\00", align 1 ; <[31 x i8]*> [#uses=1]
@data32 = internal global [8000 x i32] zeroinitializer, align 32 ; <[8000 x i32]*> [#uses=18]
@.str140 = private constant [17 x i8] c"int32_t constant\00", align 1 ; <[17 x i8]*> [#uses=1]
@.str141 = private constant [22 x i8] c"int32_t add constants\00", align 1 ; <[22 x i8]*> [#uses=1]
@.str142 = private constant [27 x i8] c"int32_t subtract constants\00", align 1 ; <[27 x i8]*> [#uses=1]
@.str143 = private constant [27 x i8] c"int32_t multiply constants\00", align 1 ; <[27 x i8]*> [#uses=1]
@.str144 = private constant [25 x i8] c"int32_t divide constants\00", align 1 ; <[25 x i8]*> [#uses=1]
@.str145 = private constant [22 x i8] c"int32_t mod constants\00", align 1 ; <[22 x i8]*> [#uses=1]
@.str146 = private constant [24 x i8] c"int32_t equal constants\00", align 1 ; <[24 x i8]*> [#uses=1]
@.str147 = private constant [27 x i8] c"int32_t notequal constants\00", align 1 ; <[27 x i8]*> [#uses=1]
@.str148 = private constant [31 x i8] c"int32_t greater than constants\00", align 1 ; <[31 x i8]*> [#uses=1]
@.str149 = private constant [28 x i8] c"int32_t less than constants\00", align 1 ; <[28 x i8]*> [#uses=1]
@.str150 = private constant [37 x i8] c"int32_t greater than equal constants\00", align 1 ; <[37 x i8]*> [#uses=1]
@.str151 = private constant [34 x i8] c"int32_t less than equal constants\00", align 1 ; <[34 x i8]*> [#uses=1]
@.str152 = private constant [22 x i8] c"int32_t and constants\00", align 1 ; <[22 x i8]*> [#uses=1]
@.str153 = private constant [21 x i8] c"int32_t or constants\00", align 1 ; <[21 x i8]*> [#uses=1]
@.str154 = private constant [22 x i8] c"int32_t xor constants\00", align 1 ; <[22 x i8]*> [#uses=1]
@.str155 = private constant [21 x i8] c"int32_t constant add\00", align 1 ; <[21 x i8]*> [#uses=1]
@.str156 = private constant [31 x i8] c"int32_t multiple constant adds\00", align 1 ; <[31 x i8]*> [#uses=1]
@.str157 = private constant [26 x i8] c"int32_t constant subtract\00", align 1 ; <[26 x i8]*> [#uses=1]
@.str158 = private constant [36 x i8] c"int32_t multiple constant subtracts\00", align 1 ; <[36 x i8]*> [#uses=1]
@.str159 = private constant [26 x i8] c"int32_t constant multiply\00", align 1 ; <[26 x i8]*> [#uses=1]
@.str160 = private constant [37 x i8] c"int32_t multiple constant multiplies\00", align 1 ; <[37 x i8]*> [#uses=1]
@.str161 = private constant [36 x i8] c"int32_t multiple constant multiply2\00", align 1 ; <[36 x i8]*> [#uses=1]
@.str162 = private constant [24 x i8] c"int32_t constant divide\00", align 1 ; <[24 x i8]*> [#uses=1]
@.str163 = private constant [34 x i8] c"int32_t multiple constant divides\00", align 1 ; <[34 x i8]*> [#uses=1]
@.str164 = private constant [34 x i8] c"int32_t multiple constant divide2\00", align 1 ; <[34 x i8]*> [#uses=1]
@.str165 = private constant [32 x i8] c"int32_t multiple constant mixed\00", align 1 ; <[32 x i8]*> [#uses=1]
@.str166 = private constant [21 x i8] c"int32_t constant and\00", align 1 ; <[21 x i8]*> [#uses=1]
@.str167 = private constant [30 x i8] c"int32_t multiple constant and\00", align 1 ; <[30 x i8]*> [#uses=1]
@.str168 = private constant [20 x i8] c"int32_t constant or\00", align 1 ; <[20 x i8]*> [#uses=1]
@.str169 = private constant [29 x i8] c"int32_t multiple constant or\00", align 1 ; <[29 x i8]*> [#uses=1]
@.str170 = private constant [21 x i8] c"int32_t constant xor\00", align 1 ; <[21 x i8]*> [#uses=1]
@.str171 = private constant [30 x i8] c"int32_t multiple constant xor\00", align 1 ; <[30 x i8]*> [#uses=1]
@data32unsigned = internal global [8000 x i32] zeroinitializer, align 32 ; <[8000 x i32]*> [#uses=18]
@.str172 = private constant [18 x i8] c"uint32_t constant\00", align 1 ; <[18 x i8]*> [#uses=1]
@.str173 = private constant [23 x i8] c"uint32_t add constants\00", align 1 ; <[23 x i8]*> [#uses=1]
@.str174 = private constant [28 x i8] c"uint32_t subtract constants\00", align 1 ; <[28 x i8]*> [#uses=1]
@.str175 = private constant [28 x i8] c"uint32_t multiply constants\00", align 1 ; <[28 x i8]*> [#uses=1]
@.str176 = private constant [26 x i8] c"uint32_t divide constants\00", align 1 ; <[26 x i8]*> [#uses=1]
@.str177 = private constant [23 x i8] c"uint32_t mod constants\00", align 1 ; <[23 x i8]*> [#uses=1]
@.str178 = private constant [25 x i8] c"uint32_t equal constants\00", align 1 ; <[25 x i8]*> [#uses=1]
@.str179 = private constant [28 x i8] c"uint32_t notequal constants\00", align 1 ; <[28 x i8]*> [#uses=1]
@.str180 = private constant [32 x i8] c"uint32_t greater than constants\00", align 1 ; <[32 x i8]*> [#uses=1]
@.str181 = private constant [29 x i8] c"uint32_t less than constants\00", align 1 ; <[29 x i8]*> [#uses=1]
@.str182 = private constant [38 x i8] c"uint32_t greater than equal constants\00", align 1 ; <[38 x i8]*> [#uses=1]
@.str183 = private constant [35 x i8] c"uint32_t less than equal constants\00", align 1 ; <[35 x i8]*> [#uses=1]
@.str184 = private constant [23 x i8] c"uint32_t and constants\00", align 1 ; <[23 x i8]*> [#uses=1]
@.str185 = private constant [22 x i8] c"uint32_t or constants\00", align 1 ; <[22 x i8]*> [#uses=1]
@.str186 = private constant [23 x i8] c"uint32_t xor constants\00", align 1 ; <[23 x i8]*> [#uses=1]
@.str187 = private constant [22 x i8] c"uint32_t constant add\00", align 1 ; <[22 x i8]*> [#uses=1]
@.str188 = private constant [32 x i8] c"uint32_t multiple constant adds\00", align 1 ; <[32 x i8]*> [#uses=1]
@.str189 = private constant [27 x i8] c"uint32_t constant subtract\00", align 1 ; <[27 x i8]*> [#uses=1]
@.str190 = private constant [37 x i8] c"uint32_t multiple constant subtracts\00", align 1 ; <[37 x i8]*> [#uses=1]
@.str191 = private constant [27 x i8] c"uint32_t constant multiply\00", align 1 ; <[27 x i8]*> [#uses=1]
@.str192 = private constant [38 x i8] c"uint32_t multiple constant multiplies\00", align 1 ; <[38 x i8]*> [#uses=1]
@.str193 = private constant [37 x i8] c"uint32_t multiple constant multiply2\00", align 1 ; <[37 x i8]*> [#uses=1]
@.str194 = private constant [25 x i8] c"uint32_t constant divide\00", align 1 ; <[25 x i8]*> [#uses=1]
@.str195 = private constant [35 x i8] c"uint32_t multiple constant divides\00", align 1 ; <[35 x i8]*> [#uses=1]
@.str196 = private constant [35 x i8] c"uint32_t multiple constant divide2\00", align 1 ; <[35 x i8]*> [#uses=1]
@.str197 = private constant [33 x i8] c"uint32_t multiple constant mixed\00", align 1 ; <[33 x i8]*> [#uses=1]
@.str198 = private constant [22 x i8] c"uint32_t constant and\00", align 1 ; <[22 x i8]*> [#uses=1]
@.str199 = private constant [31 x i8] c"uint32_t multiple constant and\00", align 1 ; <[31 x i8]*> [#uses=1]
@.str200 = private constant [21 x i8] c"uint32_t constant or\00", align 1 ; <[21 x i8]*> [#uses=1]
@.str201 = private constant [30 x i8] c"uint32_t multiple constant or\00", align 1 ; <[30 x i8]*> [#uses=1]
@.str202 = private constant [22 x i8] c"uint32_t constant xor\00", align 1 ; <[22 x i8]*> [#uses=1]
@.str203 = private constant [31 x i8] c"uint32_t multiple constant xor\00", align 1 ; <[31 x i8]*> [#uses=1]
@data64 = internal global [8000 x i64] zeroinitializer, align 32 ; <[8000 x i64]*> [#uses=18]
@.str204 = private constant [17 x i8] c"int64_t constant\00", align 1 ; <[17 x i8]*> [#uses=1]
@.str205 = private constant [22 x i8] c"int64_t add constants\00", align 1 ; <[22 x i8]*> [#uses=1]
@.str206 = private constant [27 x i8] c"int64_t subtract constants\00", align 1 ; <[27 x i8]*> [#uses=1]
@.str207 = private constant [27 x i8] c"int64_t multiply constants\00", align 1 ; <[27 x i8]*> [#uses=1]
@.str208 = private constant [25 x i8] c"int64_t divide constants\00", align 1 ; <[25 x i8]*> [#uses=1]
@.str209 = private constant [22 x i8] c"int64_t mod constants\00", align 1 ; <[22 x i8]*> [#uses=1]
@.str210 = private constant [24 x i8] c"int64_t equal constants\00", align 1 ; <[24 x i8]*> [#uses=1]
@.str211 = private constant [27 x i8] c"int64_t notequal constants\00", align 1 ; <[27 x i8]*> [#uses=1]
@.str212 = private constant [31 x i8] c"int64_t greater than constants\00", align 1 ; <[31 x i8]*> [#uses=1]
@.str213 = private constant [28 x i8] c"int64_t less than constants\00", align 1 ; <[28 x i8]*> [#uses=1]
@.str214 = private constant [37 x i8] c"int64_t greater than equal constants\00", align 1 ; <[37 x i8]*> [#uses=1]
@.str215 = private constant [34 x i8] c"int64_t less than equal constants\00", align 1 ; <[34 x i8]*> [#uses=1]
@.str216 = private constant [22 x i8] c"int64_t and constants\00", align 1 ; <[22 x i8]*> [#uses=1]
@.str217 = private constant [21 x i8] c"int64_t or constants\00", align 1 ; <[21 x i8]*> [#uses=1]
@.str218 = private constant [22 x i8] c"int64_t xor constants\00", align 1 ; <[22 x i8]*> [#uses=1]
@.str219 = private constant [21 x i8] c"int64_t constant add\00", align 1 ; <[21 x i8]*> [#uses=1]
@.str220 = private constant [31 x i8] c"int64_t multiple constant adds\00", align 1 ; <[31 x i8]*> [#uses=1]
@.str221 = private constant [26 x i8] c"int64_t constant subtract\00", align 1 ; <[26 x i8]*> [#uses=1]
@.str222 = private constant [36 x i8] c"int64_t multiple constant subtracts\00", align 1 ; <[36 x i8]*> [#uses=1]
@.str223 = private constant [26 x i8] c"int64_t constant multiply\00", align 1 ; <[26 x i8]*> [#uses=1]
@.str224 = private constant [37 x i8] c"int64_t multiple constant multiplies\00", align 1 ; <[37 x i8]*> [#uses=1]
@.str225 = private constant [36 x i8] c"int64_t multiple constant multiply2\00", align 1 ; <[36 x i8]*> [#uses=1]
@.str226 = private constant [24 x i8] c"int64_t constant divide\00", align 1 ; <[24 x i8]*> [#uses=1]
@.str227 = private constant [34 x i8] c"int64_t multiple constant divides\00", align 1 ; <[34 x i8]*> [#uses=1]
@.str228 = private constant [34 x i8] c"int64_t multiple constant divide2\00", align 1 ; <[34 x i8]*> [#uses=1]
@.str229 = private constant [32 x i8] c"int64_t multiple constant mixed\00", align 1 ; <[32 x i8]*> [#uses=1]
@.str230 = private constant [21 x i8] c"int64_t constant and\00", align 1 ; <[21 x i8]*> [#uses=1]
@.str231 = private constant [30 x i8] c"int64_t multiple constant and\00", align 1 ; <[30 x i8]*> [#uses=1]
@.str232 = private constant [20 x i8] c"int64_t constant or\00", align 1 ; <[20 x i8]*> [#uses=1]
@.str233 = private constant [29 x i8] c"int64_t multiple constant or\00", align 1 ; <[29 x i8]*> [#uses=1]
@.str234 = private constant [21 x i8] c"int64_t constant xor\00", align 1 ; <[21 x i8]*> [#uses=1]
@.str235 = private constant [30 x i8] c"int64_t multiple constant xor\00", align 1 ; <[30 x i8]*> [#uses=1]
@data64unsigned = internal global [8000 x i64] zeroinitializer, align 32 ; <[8000 x i64]*> [#uses=18]
@.str236 = private constant [18 x i8] c"uint64_t constant\00", align 1 ; <[18 x i8]*> [#uses=1]
@.str237 = private constant [23 x i8] c"uint64_t add constants\00", align 1 ; <[23 x i8]*> [#uses=1]
@.str238 = private constant [28 x i8] c"uint64_t subtract constants\00", align 1 ; <[28 x i8]*> [#uses=1]
@.str239 = private constant [28 x i8] c"uint64_t multiply constants\00", align 1 ; <[28 x i8]*> [#uses=1]
@.str240 = private constant [26 x i8] c"uint64_t divide constants\00", align 1 ; <[26 x i8]*> [#uses=1]
@.str241 = private constant [23 x i8] c"uint64_t mod constants\00", align 1 ; <[23 x i8]*> [#uses=1]
@.str242 = private constant [25 x i8] c"uint64_t equal constants\00", align 1 ; <[25 x i8]*> [#uses=1]
@.str243 = private constant [28 x i8] c"uint64_t notequal constants\00", align 1 ; <[28 x i8]*> [#uses=1]
@.str244 = private constant [32 x i8] c"uint64_t greater than constants\00", align 1 ; <[32 x i8]*> [#uses=1]
@.str245 = private constant [29 x i8] c"uint64_t less than constants\00", align 1 ; <[29 x i8]*> [#uses=1]
@.str246 = private constant [38 x i8] c"uint64_t greater than equal constants\00", align 1 ; <[38 x i8]*> [#uses=1]
@.str247 = private constant [35 x i8] c"uint64_t less than equal constants\00", align 1 ; <[35 x i8]*> [#uses=1]
@.str248 = private constant [23 x i8] c"uint64_t and constants\00", align 1 ; <[23 x i8]*> [#uses=1]
@.str249 = private constant [22 x i8] c"uint64_t or constants\00", align 1 ; <[22 x i8]*> [#uses=1]
@.str250 = private constant [23 x i8] c"uint64_t xor constants\00", align 1 ; <[23 x i8]*> [#uses=1]
@.str251 = private constant [22 x i8] c"uint64_t constant add\00", align 1 ; <[22 x i8]*> [#uses=1]
@.str252 = private constant [32 x i8] c"uint64_t multiple constant adds\00", align 1 ; <[32 x i8]*> [#uses=1]
@.str253 = private constant [27 x i8] c"uint64_t constant subtract\00", align 1 ; <[27 x i8]*> [#uses=1]
@.str254 = private constant [37 x i8] c"uint64_t multiple constant subtracts\00", align 1 ; <[37 x i8]*> [#uses=1]
@.str255 = private constant [27 x i8] c"uint64_t constant multiply\00", align 1 ; <[27 x i8]*> [#uses=1]
@.str256 = private constant [38 x i8] c"uint64_t multiple constant multiplies\00", align 1 ; <[38 x i8]*> [#uses=1]
@.str257 = private constant [37 x i8] c"uint64_t multiple constant multiply2\00", align 1 ; <[37 x i8]*> [#uses=1]
@.str258 = private constant [25 x i8] c"uint64_t constant divide\00", align 1 ; <[25 x i8]*> [#uses=1]
@.str259 = private constant [35 x i8] c"uint64_t multiple constant divides\00", align 1 ; <[35 x i8]*> [#uses=1]
@.str260 = private constant [35 x i8] c"uint64_t multiple constant divide2\00", align 1 ; <[35 x i8]*> [#uses=1]
@.str261 = private constant [33 x i8] c"uint64_t multiple constant mixed\00", align 1 ; <[33 x i8]*> [#uses=1]
@.str262 = private constant [22 x i8] c"uint64_t constant and\00", align 1 ; <[22 x i8]*> [#uses=1]
@.str263 = private constant [31 x i8] c"uint64_t multiple constant and\00", align 1 ; <[31 x i8]*> [#uses=1]
@.str264 = private constant [21 x i8] c"uint64_t constant or\00", align 1 ; <[21 x i8]*> [#uses=1]
@.str265 = private constant [30 x i8] c"uint64_t multiple constant or\00", align 1 ; <[30 x i8]*> [#uses=1]
@.str266 = private constant [22 x i8] c"uint64_t constant xor\00", align 1 ; <[22 x i8]*> [#uses=1]
@.str267 = private constant [31 x i8] c"uint64_t multiple constant xor\00", align 1 ; <[31 x i8]*> [#uses=1]
@dataFloat = internal global [8000 x float] zeroinitializer, align 32 ; <[8000 x float]*> [#uses=12]
@.str268 = private constant [15 x i8] c"float constant\00", align 1 ; <[15 x i8]*> [#uses=1]
@.str269 = private constant [20 x i8] c"float add constants\00", align 1 ; <[20 x i8]*> [#uses=1]
@.str270 = private constant [25 x i8] c"float subtract constants\00", align 1 ; <[25 x i8]*> [#uses=1]
@.str271 = private constant [25 x i8] c"float multiply constants\00", align 1 ; <[25 x i8]*> [#uses=1]
@.str272 = private constant [23 x i8] c"float divide constants\00", align 1 ; <[23 x i8]*> [#uses=1]
@.str273 = private constant [19 x i8] c"float constant add\00", align 1 ; <[19 x i8]*> [#uses=1]
@.str274 = private constant [29 x i8] c"float multiple constant adds\00", align 1 ; <[29 x i8]*> [#uses=1]
@.str275 = private constant [24 x i8] c"float constant subtract\00", align 1 ; <[24 x i8]*> [#uses=1]
@.str276 = private constant [34 x i8] c"float multiple constant subtracts\00", align 1 ; <[34 x i8]*> [#uses=1]
@.str277 = private constant [24 x i8] c"float constant multiply\00", align 1 ; <[24 x i8]*> [#uses=1]
@.str278 = private constant [35 x i8] c"float multiple constant multiplies\00", align 1 ; <[35 x i8]*> [#uses=1]
@.str279 = private constant [34 x i8] c"float multiple constant multiply2\00", align 1 ; <[34 x i8]*> [#uses=1]
@.str280 = private constant [22 x i8] c"float constant divide\00", align 1 ; <[22 x i8]*> [#uses=1]
@.str281 = private constant [32 x i8] c"float multiple constant divides\00", align 1 ; <[32 x i8]*> [#uses=1]
@.str282 = private constant [32 x i8] c"float multiple constant divide2\00", align 1 ; <[32 x i8]*> [#uses=1]
@.str283 = private constant [30 x i8] c"float multiple constant mixed\00", align 1 ; <[30 x i8]*> [#uses=1]
@dataDouble = internal global [8000 x double] zeroinitializer, align 32 ; <[8000 x double]*> [#uses=12]
@.str284 = private constant [16 x i8] c"double constant\00", align 1 ; <[16 x i8]*> [#uses=1]
@.str285 = private constant [21 x i8] c"double add constants\00", align 1 ; <[21 x i8]*> [#uses=1]
@.str286 = private constant [26 x i8] c"double subtract constants\00", align 1 ; <[26 x i8]*> [#uses=1]
@.str287 = private constant [26 x i8] c"double multiply constants\00", align 1 ; <[26 x i8]*> [#uses=1]
@.str288 = private constant [24 x i8] c"double divide constants\00", align 1 ; <[24 x i8]*> [#uses=1]
@.str289 = private constant [20 x i8] c"double constant add\00", align 1 ; <[20 x i8]*> [#uses=1]
@.str290 = private constant [30 x i8] c"double multiple constant adds\00", align 1 ; <[30 x i8]*> [#uses=1]
@.str291 = private constant [25 x i8] c"double constant subtract\00", align 1 ; <[25 x i8]*> [#uses=1]
@.str292 = private constant [35 x i8] c"double multiple constant subtracts\00", align 1 ; <[35 x i8]*> [#uses=1]
@.str293 = private constant [25 x i8] c"double constant multiply\00", align 1 ; <[25 x i8]*> [#uses=1]
@.str294 = private constant [36 x i8] c"double multiple constant multiplies\00", align 1 ; <[36 x i8]*> [#uses=1]
@.str295 = private constant [35 x i8] c"double multiple constant multiply2\00", align 1 ; <[35 x i8]*> [#uses=1]
@.str296 = private constant [23 x i8] c"double constant divide\00", align 1 ; <[23 x i8]*> [#uses=1]
@.str297 = private constant [33 x i8] c"double multiple constant divides\00", align 1 ; <[33 x i8]*> [#uses=1]
@.str298 = private constant [33 x i8] c"double multiple constant divide2\00", align 1 ; <[33 x i8]*> [#uses=1]
@.str299 = private constant [31 x i8] c"double multiple constant mixed\00", align 1 ; <[31 x i8]*> [#uses=1]
@llvm.global_ctors = appending global [0 x %0] zeroinitializer ; <[0 x %0]*> [#uses=0]

declare double @fabs(double)

declare float @fabsf(float)

declare i32 @printf(i8* noalias nocapture, ...) nounwind

declare i32 @clock() nounwind

declare noalias i8* @realloc(i8* nocapture, i32) nounwind

declare void @exit(i32) noreturn nounwind

define i32 @main(i32 %argc, i8** nocapture %argv) nounwind {
entry:
  %0 = icmp sgt i32 %argc, 1                      ; <i1> [#uses=1]
  br i1 %0, label %bb, label %bb1

bb:                                               ; preds = %entry
  %1 = getelementptr inbounds i8** %argv, i32 1   ; <i8**> [#uses=1]
  %2 = load i8** %1, align 4                      ; <i8*> [#uses=1]
  %3 = tail call i32 @atoi(i8* %2) nounwind readonly ; <i32> [#uses=1]
  br label %bb1

bb1:                                              ; preds = %bb, %entry
  %base_iterations.0 = phi i32 [ %3, %bb ], [ 5000, %entry ] ; <i32> [#uses=109]
  %4 = icmp sgt i32 %argc, 2                      ; <i1> [#uses=1]
  br i1 %4, label %bb2, label %bb3

bb2:                                              ; preds = %bb1
  %5 = getelementptr inbounds i8** %argv, i32 2   ; <i8**> [#uses=1]
  %6 = load i8** %5, align 4                      ; <i8*> [#uses=1]
  %7 = tail call double @atof(i8* %6) nounwind readonly ; <double> [#uses=1]
  br label %bb3

bb3:                                              ; preds = %bb2, %bb1
  %init_value.0 = phi double [ %7, %bb2 ], [ 1.000000e+00, %bb1 ] ; <double> [#uses=21]
  %8 = fptosi double %init_value.0 to i8          ; <i8> [#uses=15]
  br label %bb.i

bb.i:                                             ; preds = %bb.i, %bb3
  %indvar.i = phi i32 [ 0, %bb3 ], [ %indvar.next.i, %bb.i ] ; <i32> [#uses=2]
  %first_addr.01.i = getelementptr [8000 x i8]* @data8, i32 0, i32 %indvar.i ; <i8*> [#uses=1]
  store i8 %8, i8* %first_addr.01.i, align 1
  %indvar.next.i = add i32 %indvar.i, 1           ; <i32> [#uses=2]
  %exitcond44 = icmp eq i32 %indvar.next.i, ptrtoint (i8* getelementptr ([8000 x i8]* @data8, i32 1, i32 sub (i32 0, i32 ptrtoint ([8000 x i8]* @data8 to i32))) to i32) ; <i1> [#uses=1]
  br i1 %exitcond44, label %_Z4fillIPaaEvT_S1_T0_.exit, label %bb.i

_Z4fillIPaaEvT_S1_T0_.exit:                       ; preds = %bb.i
  %9 = tail call i32 @clock() nounwind            ; <i32> [#uses=1]
  %10 = icmp sgt i32 %base_iterations.0, 0        ; <i1> [#uses=106]
  br i1 %10, label %bb2.preheader.us.i, label %bb1.i.i

bb2.preheader.us.i:                               ; preds = %bb2.preheader.us.i, %_Z4fillIPaaEvT_S1_T0_.exit
  %i.05.us.i = phi i32 [ %tmp10.i, %bb2.preheader.us.i ], [ 0, %_Z4fillIPaaEvT_S1_T0_.exit ] ; <i32> [#uses=1]
  %tmp10.i = add i32 %i.05.us.i, 1                ; <i32> [#uses=2]
  %11 = icmp slt i32 %tmp10.i, %base_iterations.0 ; <i1> [#uses=1]
  br i1 %11, label %bb2.preheader.us.i, label %bb1.i.i

bb1.i.i:                                          ; preds = %bb2.preheader.us.i, %_Z4fillIPaaEvT_S1_T0_.exit
  %12 = tail call i32 @clock() nounwind           ; <i32> [#uses=1]
  %13 = tail call i8* @realloc(i8* null, i32 120) nounwind ; <i8*> [#uses=6]
  %14 = bitcast i8* %13 to %struct.one_result*    ; <%struct.one_result*> [#uses=2]
  %15 = icmp eq i8* %13, null                     ; <i1> [#uses=1]
  br i1 %15, label %bb2.i.i, label %_Z13test_constantIa10custom_twoIaEEvPT_iPKc.exit

bb2.i.i:                                          ; preds = %bb1.i.i
  %16 = tail call i32 (i8*, ...)* @printf(i8* noalias getelementptr inbounds ([31 x i8]* @.str11, i32 0, i32 0), i32 10) nounwind ; <i32> [#uses=0]
  tail call void @exit(i32 -1) noreturn nounwind
  unreachable

_Z13test_constantIa10custom_twoIaEEvPT_iPKc.exit: ; preds = %bb1.i.i
  %17 = sub i32 %12, %9                           ; <i32> [#uses=1]
  %18 = sitofp i32 %17 to double                  ; <double> [#uses=1]
  %19 = fdiv double %18, 1.000000e+06             ; <double> [#uses=1]
  %20 = bitcast i8* %13 to double*                ; <double*> [#uses=1]
  store double %19, double* %20, align 4
  %21 = getelementptr inbounds i8* %13, i32 8     ; <i8*> [#uses=1]
  %22 = bitcast i8* %21 to i8**                   ; <i8**> [#uses=1]
  store i8* getelementptr inbounds ([16 x i8]* @.str12, i32 0, i32 0), i8** %22, align 4
  %23 = tail call i32 @clock() nounwind           ; <i32> [#uses=1]
  br i1 %10, label %bb2.preheader.us.i3625, label %bb5.i3626

bb2.preheader.us.i3625:                           ; preds = %bb2.preheader.us.i3625, %_Z13test_constantIa10custom_twoIaEEvPT_iPKc.exit
  %i.05.us.i3623 = phi i32 [ %tmp9.i3624, %bb2.preheader.us.i3625 ], [ 0, %_Z13test_constantIa10custom_twoIaEEvPT_iPKc.exit ] ; <i32> [#uses=1]
  %tmp9.i3624 = add i32 %i.05.us.i3623, 1         ; <i32> [#uses=2]
  %24 = icmp slt i32 %tmp9.i3624, %base_iterations.0 ; <i1> [#uses=1]
  br i1 %24, label %bb2.preheader.us.i3625, label %bb5.i3626

bb5.i3626:                                        ; preds = %bb2.preheader.us.i3625, %_Z13test_constantIa10custom_twoIaEEvPT_iPKc.exit
  %25 = tail call i32 @clock() nounwind           ; <i32> [#uses=1]
  %26 = sub i32 %25, %23                          ; <i32> [#uses=1]
  %27 = sitofp i32 %26 to double                  ; <double> [#uses=1]
  %28 = fdiv double %27, 1.000000e+06             ; <double> [#uses=1]
  %29 = icmp eq i8* %13, null                     ; <i1> [#uses=1]
  br i1 %29, label %bb1.i.i3628, label %_Z13test_constantIa20custom_add_constantsIaEEvPT_iPKc.exit

bb1.i.i3628:                                      ; preds = %bb5.i3626
  %30 = tail call i8* @realloc(i8* %13, i32 240) nounwind ; <i8*> [#uses=2]
  %31 = bitcast i8* %30 to %struct.one_result*    ; <%struct.one_result*> [#uses=2]
  %32 = icmp eq i8* %30, null                     ; <i1> [#uses=1]
  br i1 %32, label %bb2.i.i3629, label %_Z13test_constantIa20custom_add_constantsIaEEvPT_iPKc.exit

bb2.i.i3629:                                      ; preds = %bb1.i.i3628
  %33 = tail call i32 (i8*, ...)* @printf(i8* noalias getelementptr inbounds ([31 x i8]* @.str11, i32 0, i32 0), i32 20) nounwind ; <i32> [#uses=0]
  tail call void @exit(i32 -1) noreturn nounwind
  unreachable

_Z13test_constantIa20custom_add_constantsIaEEvPT_iPKc.exit: ; preds = %bb1.i.i3628, %bb5.i3626
  %results.0 = phi %struct.one_result* [ %31, %bb1.i.i3628 ], [ %14, %bb5.i3626 ] ; <%struct.one_result*> [#uses=4]
  %allocated_results.0 = phi i32 [ 20, %bb1.i.i3628 ], [ 10, %bb5.i3626 ] ; <i32> [#uses=3]
  %34 = phi %struct.one_result* [ %31, %bb1.i.i3628 ], [ %14, %bb5.i3626 ] ; <%struct.one_result*> [#uses=2]
  %35 = getelementptr inbounds %struct.one_result* %34, i32 1, i32 0 ; <double*> [#uses=1]
  store double %28, double* %35, align 4
  %36 = getelementptr inbounds %struct.one_result* %34, i32 1, i32 1 ; <i8**> [#uses=1]
  store i8* getelementptr inbounds ([21 x i8]* @.str13, i32 0, i32 0), i8** %36, align 4
  %37 = tail call i32 @clock() nounwind           ; <i32> [#uses=1]
  br i1 %10, label %bb2.preheader.us.i3617, label %bb5.i3618

bb2.preheader.us.i3617:                           ; preds = %bb2.preheader.us.i3617, %_Z13test_constantIa20custom_add_constantsIaEEvPT_iPKc.exit
  %i.05.us.i3615 = phi i32 [ %tmp8.i3616, %bb2.preheader.us.i3617 ], [ 0, %_Z13test_constantIa20custom_add_constantsIaEEvPT_iPKc.exit ] ; <i32> [#uses=1]
  %tmp8.i3616 = add i32 %i.05.us.i3615, 1         ; <i32> [#uses=2]
  %38 = icmp slt i32 %tmp8.i3616, %base_iterations.0 ; <i1> [#uses=1]
  br i1 %38, label %bb2.preheader.us.i3617, label %bb5.i3618

bb5.i3618:                                        ; preds = %bb2.preheader.us.i3617, %_Z13test_constantIa20custom_add_constantsIaEEvPT_iPKc.exit
  %39 = tail call i32 @clock() nounwind           ; <i32> [#uses=1]
  %40 = sub i32 %39, %37                          ; <i32> [#uses=1]
  %41 = sitofp i32 %40 to double                  ; <double> [#uses=1]
  %42 = fdiv double %41, 1.000000e+06             ; <double> [#uses=1]
  %.not3630 = icmp ne %struct.one_result* %results.0, null ; <i1> [#uses=1]
  %43 = icmp ugt i32 %allocated_results.0, 2      ; <i1> [#uses=1]
  %or.cond3631 = and i1 %43, %.not3630            ; <i1> [#uses=1]
  br i1 %or.cond3631, label %_Z13test_constantIa20custom_sub_constantsIaEEvPT_iPKc.exit, label %bb1.i.i3620

bb1.i.i3620:                                      ; preds = %bb5.i3618
  %44 = add nsw i32 %allocated_results.0, 10      ; <i32> [#uses=3]
  %45 = mul i32 %44, 12                           ; <i32> [#uses=1]
  %46 = bitcast %struct.one_result* %results.0 to i8* ; <i8*> [#uses=1]
  %47 = tail call i8* @realloc(i8* %46, i32 %45) nounwind ; <i8*> [#uses=2]
  %48 = bitcast i8* %47 to %struct.one_result*    ; <%struct.one_result*> [#uses=2]
  %49 = icmp eq i8* %47, null                     ; <i1> [#uses=1]
  br i1 %49, label %bb2.i.i3621, label %_Z13test_constantIa20custom_sub_constantsIaEEvPT_iPKc.exit

bb2.i.i3621:                                      ; preds = %bb1.i.i3620
  %50 = tail call i32 (i8*, ...)* @printf(i8* noalias getelementptr inbounds ([31 x i8]* @.str11, i32 0, i32 0), i32 %44) nounwind ; <i32> [#uses=0]
  tail call void @exit(i32 -1) noreturn nounwind
  unreachable

_Z13test_constantIa20custom_sub_constantsIaEEvPT_iPKc.exit: ; preds = %bb1.i.i3620, %bb5.i3618
  %results.1 = phi %struct.one_result* [ %48, %bb1.i.i3620 ], [ %results.0, %bb5.i3618 ] ; <%struct.one_result*> [#uses=4]
  %allocated_results.1 = phi i32 [ %44, %bb1.i.i3620 ], [ %allocated_results.0, %bb5.i3618 ] ; <i32> [#uses=3]
  %51 = phi %struct.one_result* [ %48, %bb1.i.i3620 ], [ %results.0, %bb5.i3618 ] ; <%struct.one_result*> [#uses=2]
  %52 = getelementptr inbounds %struct.one_result* %51, i32 2, i32 0 ; <double*> [#uses=1]
  store double %42, double* %52, align 4
  %53 = getelementptr inbounds %struct.one_result* %51, i32 2, i32 1 ; <i8**> [#uses=1]
  store i8* getelementptr inbounds ([26 x i8]* @.str14, i32 0, i32 0), i8** %53, align 4
  %54 = tail call i32 @clock() nounwind           ; <i32> [#uses=1]
  br i1 %10, label %bb2.preheader.us.i3609, label %bb5.i3610

bb2.preheader.us.i3609:                           ; preds = %bb2.preheader.us.i3609, %_Z13test_constantIa20custom_sub_constantsIaEEvPT_iPKc.exit
  %i.05.us.i3607 = phi i32 [ %tmp10.i3608, %bb2.preheader.us.i3609 ], [ 0, %_Z13test_constantIa20custom_sub_constantsIaEEvPT_iPKc.exit ] ; <i32> [#uses=1]
  %tmp10.i3608 = add i32 %i.05.us.i3607, 1        ; <i32> [#uses=2]
  %55 = icmp slt i32 %tmp10.i3608, %base_iterations.0 ; <i1> [#uses=1]
  br i1 %55, label %bb2.preheader.us.i3609, label %bb5.i3610

bb5.i3610:                                        ; preds = %bb2.preheader.us.i3609, %_Z13test_constantIa20custom_sub_constantsIaEEvPT_iPKc.exit
  %56 = tail call i32 @clock() nounwind           ; <i32> [#uses=1]
  %57 = sub i32 %56, %54                          ; <i32> [#uses=1]
  %58 = sitofp i32 %57 to double                  ; <double> [#uses=1]
  %59 = fdiv double %58, 1.000000e+06             ; <double> [#uses=1]
  %.not3632 = icmp ne %struct.one_result* %results.1, null ; <i1> [#uses=1]
  %60 = icmp sgt i32 %allocated_results.1, 3      ; <i1> [#uses=1]
  %or.cond3633 = and i1 %60, %.not3632            ; <i1> [#uses=1]
  br i1 %or.cond3633, label %_Z13test_constantIa25custom_multiply_constantsIaEEvPT_iPKc.exit, label %bb1.i.i3612

bb1.i.i3612:                                      ; preds = %bb5.i3610
  %61 = add nsw i32 %allocated_results.1, 10      ; <i32> [#uses=3]
  %62 = mul i32 %61, 12                           ; <i32> [#uses=1]
  %63 = bitcast %struct.one_result* %results.1 to i8* ; <i8*> [#uses=1]
  %64 = tail call i8* @realloc(i8* %63, i32 %62) nounwind ; <i8*> [#uses=2]
  %65 = bitcast i8* %64 to %struct.one_result*    ; <%struct.one_result*> [#uses=2]
  %66 = icmp eq i8* %64, null                     ; <i1> [#uses=1]
  br i1 %66, label %bb2.i.i3613, label %_Z13test_constantIa25custom_multiply_constantsIaEEvPT_iPKc.exit

bb2.i.i3613:                                      ; preds = %bb1.i.i3612
  %67 = tail call i32 (i8*, ...)* @printf(i8* noalias getelementptr inbounds ([31 x i8]* @.str11, i32 0, i32 0), i32 %61) nounwind ; <i32> [#uses=0]
  tail call void @exit(i32 -1) noreturn nounwind
  unreachable

_Z13test_constantIa25custom_multiply_constantsIaEEvPT_iPKc.exit: ; preds = %bb1.i.i3612, %bb5.i3610
  %results.2 = phi %struct.one_result* [ %65, %bb1.i.i3612 ], [ %results.1, %bb5.i3610 ] ; <%struct.one_result*> [#uses=4]
  %allocated_results.2 = phi i32 [ %61, %bb1.i.i3612 ], [ %allocated_results.1, %bb5.i3610 ] ; <i32> [#uses=3]
  %68 = phi %struct.one_result* [ %65, %bb1.i.i3612 ], [ %results.1, %bb5.i3610 ] ; <%struct.one_result*> [#uses=2]
  %69 = getelementptr inbounds %struct.one_result* %68, i32 3, i32 0 ; <double*> [#uses=1]
  store double %59, double* %69, align 4
  %70 = getelementptr inbounds %struct.one_result* %68, i32 3, i32 1 ; <i8**> [#uses=1]
  store i8* getelementptr inbounds ([26 x i8]* @.str15, i32 0, i32 0), i8** %70, align 4
  %71 = tail call i32 @clock() nounwind           ; <i32> [#uses=1]
  br i1 %10, label %bb2.preheader.us.i3601, label %bb5.i3602

bb2.preheader.us.i3601:                           ; preds = %bb2.preheader.us.i3601, %_Z13test_constantIa25custom_multiply_constantsIaEEvPT_iPKc.exit
  %i.05.us.i3599 = phi i32 [ %tmp10.i3600, %bb2.preheader.us.i3601 ], [ 0, %_Z13test_constantIa25custom_multiply_constantsIaEEvPT_iPKc.exit ] ; <i32> [#uses=1]
  %tmp10.i3600 = add i32 %i.05.us.i3599, 1        ; <i32> [#uses=2]
  %72 = icmp slt i32 %tmp10.i3600, %base_iterations.0 ; <i1> [#uses=1]
  br i1 %72, label %bb2.preheader.us.i3601, label %bb5.i3602

bb5.i3602:                                        ; preds = %bb2.preheader.us.i3601, %_Z13test_constantIa25custom_multiply_constantsIaEEvPT_iPKc.exit
  %73 = tail call i32 @clock() nounwind           ; <i32> [#uses=1]
  %74 = sub i32 %73, %71                          ; <i32> [#uses=1]
  %75 = sitofp i32 %74 to double                  ; <double> [#uses=1]
  %76 = fdiv double %75, 1.000000e+06             ; <double> [#uses=1]
  %.not3634 = icmp ne %struct.one_result* %results.2, null ; <i1> [#uses=1]
  %77 = icmp sgt i32 %allocated_results.2, 4      ; <i1> [#uses=1]
  %or.cond3635 = and i1 %77, %.not3634            ; <i1> [#uses=1]
  br i1 %or.cond3635, label %_Z13test_constantIa23custom_divide_constantsIaEEvPT_iPKc.exit, label %bb1.i.i3604

bb1.i.i3604:                                      ; preds = %bb5.i3602
  %78 = add nsw i32 %allocated_results.2, 10      ; <i32> [#uses=3]
  %79 = mul i32 %78, 12                           ; <i32> [#uses=1]
  %80 = bitcast %struct.one_result* %results.2 to i8* ; <i8*> [#uses=1]
  %81 = tail call i8* @realloc(i8* %80, i32 %79) nounwind ; <i8*> [#uses=2]
  %82 = bitcast i8* %81 to %struct.one_result*    ; <%struct.one_result*> [#uses=2]
  %83 = icmp eq i8* %81, null                     ; <i1> [#uses=1]
  br i1 %83, label %bb2.i.i3605, label %_Z13test_constantIa23custom_divide_constantsIaEEvPT_iPKc.exit

bb2.i.i3605:                                      ; preds = %bb1.i.i3604
  %84 = tail call i32 (i8*, ...)* @printf(i8* noalias getelementptr inbounds ([31 x i8]* @.str11, i32 0, i32 0), i32 %78) nounwind ; <i32> [#uses=0]
  tail call void @exit(i32 -1) noreturn nounwind
  unreachable

_Z13test_constantIa23custom_divide_constantsIaEEvPT_iPKc.exit: ; preds = %bb1.i.i3604, %bb5.i3602
  %results.3 = phi %struct.one_result* [ %82, %bb1.i.i3604 ], [ %results.2, %bb5.i3602 ] ; <%struct.one_result*> [#uses=4]
  %allocated_results.3 = phi i32 [ %78, %bb1.i.i3604 ], [ %allocated_results.2, %bb5.i3602 ] ; <i32> [#uses=3]
  %85 = phi %struct.one_result* [ %82, %bb1.i.i3604 ], [ %results.2, %bb5.i3602 ] ; <%struct.one_result*> [#uses=2]
  %86 = getelementptr inbounds %struct.one_result* %85, i32 4, i32 0 ; <double*> [#uses=1]
  store double %76, double* %86, align 4
  %87 = getelementptr inbounds %struct.one_result* %85, i32 4, i32 1 ; <i8**> [#uses=1]
  store i8* getelementptr inbounds ([24 x i8]* @.str16, i32 0, i32 0), i8** %87, align 4
  %88 = tail call i32 @clock() nounwind           ; <i32> [#uses=1]
  br i1 %10, label %bb2.preheader.us.i3593, label %bb5.i3594

bb2.preheader.us.i3593:                           ; preds = %bb2.preheader.us.i3593, %_Z13test_constantIa23custom_divide_constantsIaEEvPT_iPKc.exit
  %i.05.us.i3591 = phi i32 [ %tmp9.i3592, %bb2.preheader.us.i3593 ], [ 0, %_Z13test_constantIa23custom_divide_constantsIaEEvPT_iPKc.exit ] ; <i32> [#uses=1]
  %tmp9.i3592 = add i32 %i.05.us.i3591, 1         ; <i32> [#uses=2]
  %89 = icmp slt i32 %tmp9.i3592, %base_iterations.0 ; <i1> [#uses=1]
  br i1 %89, label %bb2.preheader.us.i3593, label %bb5.i3594

bb5.i3594:                                        ; preds = %bb2.preheader.us.i3593, %_Z13test_constantIa23custom_divide_constantsIaEEvPT_iPKc.exit
  %90 = tail call i32 @clock() nounwind           ; <i32> [#uses=1]
  %91 = sub i32 %90, %88                          ; <i32> [#uses=1]
  %92 = sitofp i32 %91 to double                  ; <double> [#uses=1]
  %93 = fdiv double %92, 1.000000e+06             ; <double> [#uses=1]
  %.not3636 = icmp ne %struct.one_result* %results.3, null ; <i1> [#uses=1]
  %94 = icmp sgt i32 %allocated_results.3, 5      ; <i1> [#uses=1]
  %or.cond3637 = and i1 %94, %.not3636            ; <i1> [#uses=1]
  br i1 %or.cond3637, label %_Z13test_constantIa20custom_mod_constantsIaEEvPT_iPKc.exit, label %bb1.i.i3596

bb1.i.i3596:                                      ; preds = %bb5.i3594
  %95 = add nsw i32 %allocated_results.3, 10      ; <i32> [#uses=3]
  %96 = mul i32 %95, 12                           ; <i32> [#uses=1]
  %97 = bitcast %struct.one_result* %results.3 to i8* ; <i8*> [#uses=1]
  %98 = tail call i8* @realloc(i8* %97, i32 %96) nounwind ; <i8*> [#uses=2]
  %99 = bitcast i8* %98 to %struct.one_result*    ; <%struct.one_result*> [#uses=2]
  %100 = icmp eq i8* %98, null                    ; <i1> [#uses=1]
  br i1 %100, label %bb2.i.i3597, label %_Z13test_constantIa20custom_mod_constantsIaEEvPT_iPKc.exit

bb2.i.i3597:                                      ; preds = %bb1.i.i3596
  %101 = tail call i32 (i8*, ...)* @printf(i8* noalias getelementptr inbounds ([31 x i8]* @.str11, i32 0, i32 0), i32 %95) nounwind ; <i32> [#uses=0]
  tail call void @exit(i32 -1) noreturn nounwind
  unreachable

_Z13test_constantIa20custom_mod_constantsIaEEvPT_iPKc.exit: ; preds = %bb1.i.i3596, %bb5.i3594
  %results.4 = phi %struct.one_result* [ %99, %bb1.i.i3596 ], [ %results.3, %bb5.i3594 ] ; <%struct.one_result*> [#uses=4]
  %allocated_results.4 = phi i32 [ %95, %bb1.i.i3596 ], [ %allocated_results.3, %bb5.i3594 ] ; <i32> [#uses=3]
  %102 = phi %struct.one_result* [ %99, %bb1.i.i3596 ], [ %results.3, %bb5.i3594 ] ; <%struct.one_result*> [#uses=2]
  %103 = getelementptr inbounds %struct.one_result* %102, i32 5, i32 0 ; <double*> [#uses=1]
  store double %93, double* %103, align 4
  %104 = getelementptr inbounds %struct.one_result* %102, i32 5, i32 1 ; <i8**> [#uses=1]
  store i8* getelementptr inbounds ([21 x i8]* @.str17, i32 0, i32 0), i8** %104, align 4
  %105 = tail call i32 @clock() nounwind          ; <i32> [#uses=1]
  %106 = tail call i32 @clock() nounwind          ; <i32> [#uses=1]
  %107 = sub i32 %106, %105                       ; <i32> [#uses=1]
  %108 = sitofp i32 %107 to double                ; <double> [#uses=1]
  %109 = fdiv double %108, 1.000000e+06           ; <double> [#uses=1]
  %.not3638 = icmp ne %struct.one_result* %results.4, null ; <i1> [#uses=1]
  %110 = icmp sgt i32 %allocated_results.4, 6     ; <i1> [#uses=1]
  %or.cond3639 = and i1 %110, %.not3638           ; <i1> [#uses=1]
  br i1 %or.cond3639, label %_Z13test_constantIa22custom_equal_constantsIaEEvPT_iPKc.exit, label %bb1.i.i3588

bb1.i.i3588:                                      ; preds = %_Z13test_constantIa20custom_mod_constantsIaEEvPT_iPKc.exit
  %111 = add nsw i32 %allocated_results.4, 10     ; <i32> [#uses=3]
  %112 = mul i32 %111, 12                         ; <i32> [#uses=1]
  %113 = bitcast %struct.one_result* %results.4 to i8* ; <i8*> [#uses=1]
  %114 = tail call i8* @realloc(i8* %113, i32 %112) nounwind ; <i8*> [#uses=2]
  %115 = bitcast i8* %114 to %struct.one_result*  ; <%struct.one_result*> [#uses=2]
  %116 = icmp eq i8* %114, null                   ; <i1> [#uses=1]
  br i1 %116, label %bb2.i.i3589, label %_Z13test_constantIa22custom_equal_constantsIaEEvPT_iPKc.exit

bb2.i.i3589:                                      ; preds = %bb1.i.i3588
  %117 = tail call i32 (i8*, ...)* @printf(i8* noalias getelementptr inbounds ([31 x i8]* @.str11, i32 0, i32 0), i32 %111) nounwind ; <i32> [#uses=0]
  tail call void @exit(i32 -1) noreturn nounwind
  unreachable

_Z13test_constantIa22custom_equal_constantsIaEEvPT_iPKc.exit: ; preds = %bb1.i.i3588, %_Z13test_constantIa20custom_mod_constantsIaEEvPT_iPKc.exit
  %results.5 = phi %struct.one_result* [ %115, %bb1.i.i3588 ], [ %results.4, %_Z13test_constantIa20custom_mod_constantsIaEEvPT_iPKc.exit ] ; <%struct.one_result*> [#uses=4]
  %allocated_results.5 = phi i32 [ %111, %bb1.i.i3588 ], [ %allocated_results.4, %_Z13test_constantIa20custom_mod_constantsIaEEvPT_iPKc.exit ] ; <i32> [#uses=3]
  %118 = phi %struct.one_result* [ %115, %bb1.i.i3588 ], [ %results.4, %_Z13test_constantIa20custom_mod_constantsIaEEvPT_iPKc.exit ] ; <%struct.one_result*> [#uses=2]
  %119 = getelementptr inbounds %struct.one_result* %118, i32 6, i32 0 ; <double*> [#uses=1]
  store double %109, double* %119, align 4
  %120 = getelementptr inbounds %struct.one_result* %118, i32 6, i32 1 ; <i8**> [#uses=1]
  store i8* getelementptr inbounds ([23 x i8]* @.str18, i32 0, i32 0), i8** %120, align 4
  %121 = tail call i32 @clock() nounwind          ; <i32> [#uses=1]
  br i1 %10, label %bb2.preheader.us.i3581, label %bb5.i3582

bb2.preheader.us.i3581:                           ; preds = %bb2.preheader.us.i3581, %_Z13test_constantIa22custom_equal_constantsIaEEvPT_iPKc.exit
  %i.05.us.i3579 = phi i32 [ %tmp8.i3580, %bb2.preheader.us.i3581 ], [ 0, %_Z13test_constantIa22custom_equal_constantsIaEEvPT_iPKc.exit ] ; <i32> [#uses=1]
  %tmp8.i3580 = add i32 %i.05.us.i3579, 1         ; <i32> [#uses=2]
  %122 = icmp slt i32 %tmp8.i3580, %base_iterations.0 ; <i1> [#uses=1]
  br i1 %122, label %bb2.preheader.us.i3581, label %bb5.i3582

bb5.i3582:                                        ; preds = %bb2.preheader.us.i3581, %_Z13test_constantIa22custom_equal_constantsIaEEvPT_iPKc.exit
  %123 = tail call i32 @clock() nounwind          ; <i32> [#uses=1]
  %124 = sub i32 %123, %121                       ; <i32> [#uses=1]
  %125 = sitofp i32 %124 to double                ; <double> [#uses=1]
  %126 = fdiv double %125, 1.000000e+06           ; <double> [#uses=1]
  %.not3640 = icmp ne %struct.one_result* %results.5, null ; <i1> [#uses=1]
  %127 = icmp sgt i32 %allocated_results.5, 7     ; <i1> [#uses=1]
  %or.cond3641 = and i1 %127, %.not3640           ; <i1> [#uses=1]
  br i1 %or.cond3641, label %_Z13test_constantIa25custom_notequal_constantsIaEEvPT_iPKc.exit, label %bb1.i.i3584

bb1.i.i3584:                                      ; preds = %bb5.i3582
  %128 = add nsw i32 %allocated_results.5, 10     ; <i32> [#uses=3]
  %129 = mul i32 %128, 12                         ; <i32> [#uses=1]
  %130 = bitcast %struct.one_result* %results.5 to i8* ; <i8*> [#uses=1]
  %131 = tail call i8* @realloc(i8* %130, i32 %129) nounwind ; <i8*> [#uses=2]
  %132 = bitcast i8* %131 to %struct.one_result*  ; <%struct.one_result*> [#uses=2]
  %133 = icmp eq i8* %131, null                   ; <i1> [#uses=1]
  br i1 %133, label %bb2.i.i3585, label %_Z13test_constantIa25custom_notequal_constantsIaEEvPT_iPKc.exit

bb2.i.i3585:                                      ; preds = %bb1.i.i3584
  %134 = tail call i32 (i8*, ...)* @printf(i8* noalias getelementptr inbounds ([31 x i8]* @.str11, i32 0, i32 0), i32 %128) nounwind ; <i32> [#uses=0]
  tail call void @exit(i32 -1) noreturn nounwind
  unreachable

_Z13test_constantIa25custom_notequal_constantsIaEEvPT_iPKc.exit: ; preds = %bb1.i.i3584, %bb5.i3582
  %results.6 = phi %struct.one_result* [ %132, %bb1.i.i3584 ], [ %results.5, %bb5.i3582 ] ; <%struct.one_result*> [#uses=4]
  %allocated_results.6 = phi i32 [ %128, %bb1.i.i3584 ], [ %allocated_results.5, %bb5.i3582 ] ; <i32> [#uses=3]
  %135 = phi %struct.one_result* [ %132, %bb1.i.i3584 ], [ %results.5, %bb5.i3582 ] ; <%struct.one_result*> [#uses=2]
  %136 = getelementptr inbounds %struct.one_result* %135, i32 7, i32 0 ; <double*> [#uses=1]
  store double %126, double* %136, align 4
  %137 = getelementptr inbounds %struct.one_result* %135, i32 7, i32 1 ; <i8**> [#uses=1]
  store i8* getelementptr inbounds ([26 x i8]* @.str19, i32 0, i32 0), i8** %137, align 4
  %138 = tail call i32 @clock() nounwind          ; <i32> [#uses=1]
  br i1 %10, label %bb2.preheader.us.i3573, label %bb5.i3574

bb2.preheader.us.i3573:                           ; preds = %bb2.preheader.us.i3573, %_Z13test_constantIa25custom_notequal_constantsIaEEvPT_iPKc.exit
  %i.05.us.i3571 = phi i32 [ %tmp8.i3572, %bb2.preheader.us.i3573 ], [ 0, %_Z13test_constantIa25custom_notequal_constantsIaEEvPT_iPKc.exit ] ; <i32> [#uses=1]
  %tmp8.i3572 = add i32 %i.05.us.i3571, 1         ; <i32> [#uses=2]
  %139 = icmp slt i32 %tmp8.i3572, %base_iterations.0 ; <i1> [#uses=1]
  br i1 %139, label %bb2.preheader.us.i3573, label %bb5.i3574

bb5.i3574:                                        ; preds = %bb2.preheader.us.i3573, %_Z13test_constantIa25custom_notequal_constantsIaEEvPT_iPKc.exit
  %140 = tail call i32 @clock() nounwind          ; <i32> [#uses=1]
  %141 = sub i32 %140, %138                       ; <i32> [#uses=1]
  %142 = sitofp i32 %141 to double                ; <double> [#uses=1]
  %143 = fdiv double %142, 1.000000e+06           ; <double> [#uses=1]
  %.not3642 = icmp ne %struct.one_result* %results.6, null ; <i1> [#uses=1]
  %144 = icmp sgt i32 %allocated_results.6, 8     ; <i1> [#uses=1]
  %or.cond3643 = and i1 %144, %.not3642           ; <i1> [#uses=1]
  br i1 %or.cond3643, label %_Z13test_constantIa28custom_greaterthan_constantsIaEEvPT_iPKc.exit, label %bb1.i.i3576

bb1.i.i3576:                                      ; preds = %bb5.i3574
  %145 = add nsw i32 %allocated_results.6, 10     ; <i32> [#uses=3]
  %146 = mul i32 %145, 12                         ; <i32> [#uses=1]
  %147 = bitcast %struct.one_result* %results.6 to i8* ; <i8*> [#uses=1]
  %148 = tail call i8* @realloc(i8* %147, i32 %146) nounwind ; <i8*> [#uses=2]
  %149 = bitcast i8* %148 to %struct.one_result*  ; <%struct.one_result*> [#uses=2]
  %150 = icmp eq i8* %148, null                   ; <i1> [#uses=1]
  br i1 %150, label %bb2.i.i3577, label %_Z13test_constantIa28custom_greaterthan_constantsIaEEvPT_iPKc.exit

bb2.i.i3577:                                      ; preds = %bb1.i.i3576
  %151 = tail call i32 (i8*, ...)* @printf(i8* noalias getelementptr inbounds ([31 x i8]* @.str11, i32 0, i32 0), i32 %145) nounwind ; <i32> [#uses=0]
  tail call void @exit(i32 -1) noreturn nounwind
  unreachable

_Z13test_constantIa28custom_greaterthan_constantsIaEEvPT_iPKc.exit: ; preds = %bb1.i.i3576, %bb5.i3574
  %results.7 = phi %struct.one_result* [ %149, %bb1.i.i3576 ], [ %results.6, %bb5.i3574 ] ; <%struct.one_result*> [#uses=4]
  %allocated_results.7 = phi i32 [ %145, %bb1.i.i3576 ], [ %allocated_results.6, %bb5.i3574 ] ; <i32> [#uses=3]
  %152 = phi %struct.one_result* [ %149, %bb1.i.i3576 ], [ %results.6, %bb5.i3574 ] ; <%struct.one_result*> [#uses=2]
  %153 = getelementptr inbounds %struct.one_result* %152, i32 8, i32 0 ; <double*> [#uses=1]
  store double %143, double* %153, align 4
  %154 = getelementptr inbounds %struct.one_result* %152, i32 8, i32 1 ; <i8**> [#uses=1]
  store i8* getelementptr inbounds ([30 x i8]* @.str20, i32 0, i32 0), i8** %154, align 4
  %155 = tail call i32 @clock() nounwind          ; <i32> [#uses=1]
  %156 = tail call i32 @clock() nounwind          ; <i32> [#uses=1]
  %157 = sub i32 %156, %155                       ; <i32> [#uses=1]
  %158 = sitofp i32 %157 to double                ; <double> [#uses=1]
  %159 = fdiv double %158, 1.000000e+06           ; <double> [#uses=1]
  %.not3644 = icmp ne %struct.one_result* %results.7, null ; <i1> [#uses=1]
  %160 = icmp sgt i32 %allocated_results.7, 9     ; <i1> [#uses=1]
  %or.cond3645 = and i1 %160, %.not3644           ; <i1> [#uses=1]
  br i1 %or.cond3645, label %_Z13test_constantIa25custom_lessthan_constantsIaEEvPT_iPKc.exit, label %bb1.i.i3568

bb1.i.i3568:                                      ; preds = %_Z13test_constantIa28custom_greaterthan_constantsIaEEvPT_iPKc.exit
  %161 = add nsw i32 %allocated_results.7, 10     ; <i32> [#uses=3]
  %162 = mul i32 %161, 12                         ; <i32> [#uses=1]
  %163 = bitcast %struct.one_result* %results.7 to i8* ; <i8*> [#uses=1]
  %164 = tail call i8* @realloc(i8* %163, i32 %162) nounwind ; <i8*> [#uses=2]
  %165 = bitcast i8* %164 to %struct.one_result*  ; <%struct.one_result*> [#uses=2]
  %166 = icmp eq i8* %164, null                   ; <i1> [#uses=1]
  br i1 %166, label %bb2.i.i3569, label %_Z13test_constantIa25custom_lessthan_constantsIaEEvPT_iPKc.exit

bb2.i.i3569:                                      ; preds = %bb1.i.i3568
  %167 = tail call i32 (i8*, ...)* @printf(i8* noalias getelementptr inbounds ([31 x i8]* @.str11, i32 0, i32 0), i32 %161) nounwind ; <i32> [#uses=0]
  tail call void @exit(i32 -1) noreturn nounwind
  unreachable

_Z13test_constantIa25custom_lessthan_constantsIaEEvPT_iPKc.exit: ; preds = %bb1.i.i3568, %_Z13test_constantIa28custom_greaterthan_constantsIaEEvPT_iPKc.exit
  %results.8 = phi %struct.one_result* [ %165, %bb1.i.i3568 ], [ %results.7, %_Z13test_constantIa28custom_greaterthan_constantsIaEEvPT_iPKc.exit ] ; <%struct.one_result*> [#uses=4]
  %allocated_results.8 = phi i32 [ %161, %bb1.i.i3568 ], [ %allocated_results.7, %_Z13test_constantIa28custom_greaterthan_constantsIaEEvPT_iPKc.exit ] ; <i32> [#uses=3]
  %168 = phi %struct.one_result* [ %165, %bb1.i.i3568 ], [ %results.7, %_Z13test_constantIa28custom_greaterthan_constantsIaEEvPT_iPKc.exit ] ; <%struct.one_result*> [#uses=2]
  %169 = getelementptr inbounds %struct.one_result* %168, i32 9, i32 0 ; <double*> [#uses=1]
  store double %159, double* %169, align 4
  %170 = getelementptr inbounds %struct.one_result* %168, i32 9, i32 1 ; <i8**> [#uses=1]
  store i8* getelementptr inbounds ([27 x i8]* @.str21, i32 0, i32 0), i8** %170, align 4
  %171 = tail call i32 @clock() nounwind          ; <i32> [#uses=1]
  br i1 %10, label %bb2.preheader.us.i3561, label %bb5.i3562

bb2.preheader.us.i3561:                           ; preds = %bb2.preheader.us.i3561, %_Z13test_constantIa25custom_lessthan_constantsIaEEvPT_iPKc.exit
  %i.05.us.i3559 = phi i32 [ %tmp8.i3560, %bb2.preheader.us.i3561 ], [ 0, %_Z13test_constantIa25custom_lessthan_constantsIaEEvPT_iPKc.exit ] ; <i32> [#uses=1]
  %tmp8.i3560 = add i32 %i.05.us.i3559, 1         ; <i32> [#uses=2]
  %172 = icmp slt i32 %tmp8.i3560, %base_iterations.0 ; <i1> [#uses=1]
  br i1 %172, label %bb2.preheader.us.i3561, label %bb5.i3562

bb5.i3562:                                        ; preds = %bb2.preheader.us.i3561, %_Z13test_constantIa25custom_lessthan_constantsIaEEvPT_iPKc.exit
  %173 = tail call i32 @clock() nounwind          ; <i32> [#uses=1]
  %174 = sub i32 %173, %171                       ; <i32> [#uses=1]
  %175 = sitofp i32 %174 to double                ; <double> [#uses=1]
  %176 = fdiv double %175, 1.000000e+06           ; <double> [#uses=1]
  %.not3646 = icmp ne %struct.one_result* %results.8, null ; <i1> [#uses=1]
  %177 = icmp sgt i32 %allocated_results.8, 10    ; <i1> [#uses=1]
  %or.cond3647 = and i1 %177, %.not3646           ; <i1> [#uses=1]
  br i1 %or.cond3647, label %_Z13test_constantIa33custom_greaterthanequal_constantsIaEEvPT_iPKc.exit, label %bb1.i.i3564

bb1.i.i3564:                                      ; preds = %bb5.i3562
  %178 = add nsw i32 %allocated_results.8, 10     ; <i32> [#uses=3]
  %179 = mul i32 %178, 12                         ; <i32> [#uses=1]
  %180 = bitcast %struct.one_result* %results.8 to i8* ; <i8*> [#uses=1]
  %181 = tail call i8* @realloc(i8* %180, i32 %179) nounwind ; <i8*> [#uses=2]
  %182 = bitcast i8* %181 to %struct.one_result*  ; <%struct.one_result*> [#uses=2]
  %183 = icmp eq i8* %181, null                   ; <i1> [#uses=1]
  br i1 %183, label %bb2.i.i3565, label %_Z13test_constantIa33custom_greaterthanequal_constantsIaEEvPT_iPKc.exit

bb2.i.i3565:                                      ; preds = %bb1.i.i3564
  %184 = tail call i32 (i8*, ...)* @printf(i8* noalias getelementptr inbounds ([31 x i8]* @.str11, i32 0, i32 0), i32 %178) nounwind ; <i32> [#uses=0]
  tail call void @exit(i32 -1) noreturn nounwind
  unreachable

_Z13test_constantIa33custom_greaterthanequal_constantsIaEEvPT_iPKc.exit: ; preds = %bb1.i.i3564, %bb5.i3562
  %results.9 = phi %struct.one_result* [ %182, %bb1.i.i3564 ], [ %results.8, %bb5.i3562 ] ; <%struct.one_result*> [#uses=4]
  %allocated_results.9 = phi i32 [ %178, %bb1.i.i3564 ], [ %allocated_results.8, %bb5.i3562 ] ; <i32> [#uses=3]
  %185 = phi %struct.one_result* [ %182, %bb1.i.i3564 ], [ %results.8, %bb5.i3562 ] ; <%struct.one_result*> [#uses=2]
  %186 = getelementptr inbounds %struct.one_result* %185, i32 10, i32 0 ; <double*> [#uses=1]
  store double %176, double* %186, align 4
  %187 = getelementptr inbounds %struct.one_result* %185, i32 10, i32 1 ; <i8**> [#uses=1]
  store i8* getelementptr inbounds ([36 x i8]* @.str22, i32 0, i32 0), i8** %187, align 4
  %188 = tail call i32 @clock() nounwind          ; <i32> [#uses=1]
  %189 = tail call i32 @clock() nounwind          ; <i32> [#uses=1]
  %190 = sub i32 %189, %188                       ; <i32> [#uses=1]
  %191 = sitofp i32 %190 to double                ; <double> [#uses=1]
  %192 = fdiv double %191, 1.000000e+06           ; <double> [#uses=1]
  %.not3648 = icmp ne %struct.one_result* %results.9, null ; <i1> [#uses=1]
  %193 = icmp sgt i32 %allocated_results.9, 11    ; <i1> [#uses=1]
  %or.cond3649 = and i1 %193, %.not3648           ; <i1> [#uses=1]
  br i1 %or.cond3649, label %_Z13test_constantIa30custom_lessthanequal_constantsIaEEvPT_iPKc.exit, label %bb1.i.i3556

bb1.i.i3556:                                      ; preds = %_Z13test_constantIa33custom_greaterthanequal_constantsIaEEvPT_iPKc.exit
  %194 = add nsw i32 %allocated_results.9, 10     ; <i32> [#uses=3]
  %195 = mul i32 %194, 12                         ; <i32> [#uses=1]
  %196 = bitcast %struct.one_result* %results.9 to i8* ; <i8*> [#uses=1]
  %197 = tail call i8* @realloc(i8* %196, i32 %195) nounwind ; <i8*> [#uses=2]
  %198 = bitcast i8* %197 to %struct.one_result*  ; <%struct.one_result*> [#uses=2]
  %199 = icmp eq i8* %197, null                   ; <i1> [#uses=1]
  br i1 %199, label %bb2.i.i3557, label %_Z13test_constantIa30custom_lessthanequal_constantsIaEEvPT_iPKc.exit

bb2.i.i3557:                                      ; preds = %bb1.i.i3556
  %200 = tail call i32 (i8*, ...)* @printf(i8* noalias getelementptr inbounds ([31 x i8]* @.str11, i32 0, i32 0), i32 %194) nounwind ; <i32> [#uses=0]
  tail call void @exit(i32 -1) noreturn nounwind
  unreachable

_Z13test_constantIa30custom_lessthanequal_constantsIaEEvPT_iPKc.exit: ; preds = %bb1.i.i3556, %_Z13test_constantIa33custom_greaterthanequal_constantsIaEEvPT_iPKc.exit
  %results.10 = phi %struct.one_result* [ %198, %bb1.i.i3556 ], [ %results.9, %_Z13test_constantIa33custom_greaterthanequal_constantsIaEEvPT_iPKc.exit ] ; <%struct.one_result*> [#uses=4]
  %allocated_results.10 = phi i32 [ %194, %bb1.i.i3556 ], [ %allocated_results.9, %_Z13test_constantIa33custom_greaterthanequal_constantsIaEEvPT_iPKc.exit ] ; <i32> [#uses=3]
  %201 = phi %struct.one_result* [ %198, %bb1.i.i3556 ], [ %results.9, %_Z13test_constantIa33custom_greaterthanequal_constantsIaEEvPT_iPKc.exit ] ; <%struct.one_result*> [#uses=2]
  %202 = getelementptr inbounds %struct.one_result* %201, i32 11, i32 0 ; <double*> [#uses=1]
  store double %192, double* %202, align 4
  %203 = getelementptr inbounds %struct.one_result* %201, i32 11, i32 1 ; <i8**> [#uses=1]
  store i8* getelementptr inbounds ([33 x i8]* @.str23, i32 0, i32 0), i8** %203, align 4
  %204 = tail call i32 @clock() nounwind          ; <i32> [#uses=1]
  br i1 %10, label %bb2.preheader.us.i3549, label %bb5.i3550

bb2.preheader.us.i3549:                           ; preds = %bb2.preheader.us.i3549, %_Z13test_constantIa30custom_lessthanequal_constantsIaEEvPT_iPKc.exit
  %i.05.us.i3547 = phi i32 [ %tmp10.i3548, %bb2.preheader.us.i3549 ], [ 0, %_Z13test_constantIa30custom_lessthanequal_constantsIaEEvPT_iPKc.exit ] ; <i32> [#uses=1]
  %tmp10.i3548 = add i32 %i.05.us.i3547, 1        ; <i32> [#uses=2]
  %205 = icmp slt i32 %tmp10.i3548, %base_iterations.0 ; <i1> [#uses=1]
  br i1 %205, label %bb2.preheader.us.i3549, label %bb5.i3550

bb5.i3550:                                        ; preds = %bb2.preheader.us.i3549, %_Z13test_constantIa30custom_lessthanequal_constantsIaEEvPT_iPKc.exit
  %206 = tail call i32 @clock() nounwind          ; <i32> [#uses=1]
  %207 = sub i32 %206, %204                       ; <i32> [#uses=1]
  %208 = sitofp i32 %207 to double                ; <double> [#uses=1]
  %209 = fdiv double %208, 1.000000e+06           ; <double> [#uses=1]
  %.not3650 = icmp ne %struct.one_result* %results.10, null ; <i1> [#uses=1]
  %210 = icmp sgt i32 %allocated_results.10, 12   ; <i1> [#uses=1]
  %or.cond3651 = and i1 %210, %.not3650           ; <i1> [#uses=1]
  br i1 %or.cond3651, label %_Z13test_constantIa20custom_and_constantsIaEEvPT_iPKc.exit, label %bb1.i.i3552

bb1.i.i3552:                                      ; preds = %bb5.i3550
  %211 = add nsw i32 %allocated_results.10, 10    ; <i32> [#uses=3]
  %212 = mul i32 %211, 12                         ; <i32> [#uses=1]
  %213 = bitcast %struct.one_result* %results.10 to i8* ; <i8*> [#uses=1]
  %214 = tail call i8* @realloc(i8* %213, i32 %212) nounwind ; <i8*> [#uses=2]
  %215 = bitcast i8* %214 to %struct.one_result*  ; <%struct.one_result*> [#uses=2]
  %216 = icmp eq i8* %214, null                   ; <i1> [#uses=1]
  br i1 %216, label %bb2.i.i3553, label %_Z13test_constantIa20custom_and_constantsIaEEvPT_iPKc.exit

bb2.i.i3553:                                      ; preds = %bb1.i.i3552
  %217 = tail call i32 (i8*, ...)* @printf(i8* noalias getelementptr inbounds ([31 x i8]* @.str11, i32 0, i32 0), i32 %211) nounwind ; <i32> [#uses=0]
  tail call void @exit(i32 -1) noreturn nounwind
  unreachable

_Z13test_constantIa20custom_and_constantsIaEEvPT_iPKc.exit: ; preds = %bb1.i.i3552, %bb5.i3550
  %results.11 = phi %struct.one_result* [ %215, %bb1.i.i3552 ], [ %results.10, %bb5.i3550 ] ; <%struct.one_result*> [#uses=4]
  %allocated_results.11 = phi i32 [ %211, %bb1.i.i3552 ], [ %allocated_results.10, %bb5.i3550 ] ; <i32> [#uses=3]
  %218 = phi %struct.one_result* [ %215, %bb1.i.i3552 ], [ %results.10, %bb5.i3550 ] ; <%struct.one_result*> [#uses=2]
  %219 = getelementptr inbounds %struct.one_result* %218, i32 12, i32 0 ; <double*> [#uses=1]
  store double %209, double* %219, align 4
  %220 = getelementptr inbounds %struct.one_result* %218, i32 12, i32 1 ; <i8**> [#uses=1]
  store i8* getelementptr inbounds ([21 x i8]* @.str24, i32 0, i32 0), i8** %220, align 4
  %221 = tail call i32 @clock() nounwind          ; <i32> [#uses=1]
  br i1 %10, label %bb2.preheader.us.i3541, label %bb5.i3542

bb2.preheader.us.i3541:                           ; preds = %bb2.preheader.us.i3541, %_Z13test_constantIa20custom_and_constantsIaEEvPT_iPKc.exit
  %i.05.us.i3539 = phi i32 [ %tmp9.i3540, %bb2.preheader.us.i3541 ], [ 0, %_Z13test_constantIa20custom_and_constantsIaEEvPT_iPKc.exit ] ; <i32> [#uses=1]
  %tmp9.i3540 = add i32 %i.05.us.i3539, 1         ; <i32> [#uses=2]
  %222 = icmp slt i32 %tmp9.i3540, %base_iterations.0 ; <i1> [#uses=1]
  br i1 %222, label %bb2.preheader.us.i3541, label %bb5.i3542

bb5.i3542:                                        ; preds = %bb2.preheader.us.i3541, %_Z13test_constantIa20custom_and_constantsIaEEvPT_iPKc.exit
  %223 = tail call i32 @clock() nounwind          ; <i32> [#uses=1]
  %224 = sub i32 %223, %221                       ; <i32> [#uses=1]
  %225 = sitofp i32 %224 to double                ; <double> [#uses=1]
  %226 = fdiv double %225, 1.000000e+06           ; <double> [#uses=1]
  %.not3652 = icmp ne %struct.one_result* %results.11, null ; <i1> [#uses=1]
  %227 = icmp sgt i32 %allocated_results.11, 13   ; <i1> [#uses=1]
  %or.cond3653 = and i1 %227, %.not3652           ; <i1> [#uses=1]
  br i1 %or.cond3653, label %_Z13test_constantIa19custom_or_constantsIaEEvPT_iPKc.exit, label %bb1.i.i3544

bb1.i.i3544:                                      ; preds = %bb5.i3542
  %228 = add nsw i32 %allocated_results.11, 10    ; <i32> [#uses=3]
  %229 = mul i32 %228, 12                         ; <i32> [#uses=1]
  %230 = bitcast %struct.one_result* %results.11 to i8* ; <i8*> [#uses=1]
  %231 = tail call i8* @realloc(i8* %230, i32 %229) nounwind ; <i8*> [#uses=2]
  %232 = bitcast i8* %231 to %struct.one_result*  ; <%struct.one_result*> [#uses=2]
  %233 = icmp eq i8* %231, null                   ; <i1> [#uses=1]
  br i1 %233, label %bb2.i.i3545, label %_Z13test_constantIa19custom_or_constantsIaEEvPT_iPKc.exit

bb2.i.i3545:                                      ; preds = %bb1.i.i3544
  %234 = tail call i32 (i8*, ...)* @printf(i8* noalias getelementptr inbounds ([31 x i8]* @.str11, i32 0, i32 0), i32 %228) nounwind ; <i32> [#uses=0]
  tail call void @exit(i32 -1) noreturn nounwind
  unreachable

_Z13test_constantIa19custom_or_constantsIaEEvPT_iPKc.exit: ; preds = %bb1.i.i3544, %bb5.i3542
  %results.12 = phi %struct.one_result* [ %232, %bb1.i.i3544 ], [ %results.11, %bb5.i3542 ] ; <%struct.one_result*> [#uses=4]
  %allocated_results.12 = phi i32 [ %228, %bb1.i.i3544 ], [ %allocated_results.11, %bb5.i3542 ] ; <i32> [#uses=3]
  %235 = phi %struct.one_result* [ %232, %bb1.i.i3544 ], [ %results.11, %bb5.i3542 ] ; <%struct.one_result*> [#uses=2]
  %236 = getelementptr inbounds %struct.one_result* %235, i32 13, i32 0 ; <double*> [#uses=1]
  store double %226, double* %236, align 4
  %237 = getelementptr inbounds %struct.one_result* %235, i32 13, i32 1 ; <i8**> [#uses=1]
  store i8* getelementptr inbounds ([20 x i8]* @.str25, i32 0, i32 0), i8** %237, align 4
  %238 = tail call i32 @clock() nounwind          ; <i32> [#uses=1]
  br i1 %10, label %bb2.preheader.us.i3533, label %bb5.i3534

bb2.preheader.us.i3533:                           ; preds = %bb2.preheader.us.i3533, %_Z13test_constantIa19custom_or_constantsIaEEvPT_iPKc.exit
  %i.05.us.i3531 = phi i32 [ %tmp9.i3532, %bb2.preheader.us.i3533 ], [ 0, %_Z13test_constantIa19custom_or_constantsIaEEvPT_iPKc.exit ] ; <i32> [#uses=1]
  %tmp9.i3532 = add i32 %i.05.us.i3531, 1         ; <i32> [#uses=2]
  %239 = icmp slt i32 %tmp9.i3532, %base_iterations.0 ; <i1> [#uses=1]
  br i1 %239, label %bb2.preheader.us.i3533, label %bb5.i3534

bb5.i3534:                                        ; preds = %bb2.preheader.us.i3533, %_Z13test_constantIa19custom_or_constantsIaEEvPT_iPKc.exit
  %240 = tail call i32 @clock() nounwind          ; <i32> [#uses=1]
  %241 = sub i32 %240, %238                       ; <i32> [#uses=1]
  %242 = sitofp i32 %241 to double                ; <double> [#uses=1]
  %243 = fdiv double %242, 1.000000e+06           ; <double> [#uses=1]
  %.not3654 = icmp ne %struct.one_result* %results.12, null ; <i1> [#uses=1]
  %244 = icmp sgt i32 %allocated_results.12, 14   ; <i1> [#uses=1]
  %or.cond3655 = and i1 %244, %.not3654           ; <i1> [#uses=1]
  br i1 %or.cond3655, label %_Z13test_constantIa20custom_xor_constantsIaEEvPT_iPKc.exit, label %bb1.i.i3536

bb1.i.i3536:                                      ; preds = %bb5.i3534
  %245 = add nsw i32 %allocated_results.12, 10    ; <i32> [#uses=3]
  %246 = mul i32 %245, 12                         ; <i32> [#uses=1]
  %247 = bitcast %struct.one_result* %results.12 to i8* ; <i8*> [#uses=1]
  %248 = tail call i8* @realloc(i8* %247, i32 %246) nounwind ; <i8*> [#uses=2]
  %249 = bitcast i8* %248 to %struct.one_result*  ; <%struct.one_result*> [#uses=2]
  %250 = icmp eq i8* %248, null                   ; <i1> [#uses=1]
  br i1 %250, label %bb2.i.i3537, label %_Z13test_constantIa20custom_xor_constantsIaEEvPT_iPKc.exit

bb2.i.i3537:                                      ; preds = %bb1.i.i3536
  %251 = tail call i32 (i8*, ...)* @printf(i8* noalias getelementptr inbounds ([31 x i8]* @.str11, i32 0, i32 0), i32 %245) nounwind ; <i32> [#uses=0]
  tail call void @exit(i32 -1) noreturn nounwind
  unreachable

_Z13test_constantIa20custom_xor_constantsIaEEvPT_iPKc.exit: ; preds = %bb1.i.i3536, %bb5.i3534
  %results.13 = phi %struct.one_result* [ %249, %bb1.i.i3536 ], [ %results.12, %bb5.i3534 ] ; <%struct.one_result*> [#uses=4]
  %allocated_results.13 = phi i32 [ %245, %bb1.i.i3536 ], [ %allocated_results.12, %bb5.i3534 ] ; <i32> [#uses=3]
  %252 = phi %struct.one_result* [ %249, %bb1.i.i3536 ], [ %results.12, %bb5.i3534 ] ; <%struct.one_result*> [#uses=2]
  %253 = getelementptr inbounds %struct.one_result* %252, i32 14, i32 0 ; <double*> [#uses=1]
  store double %243, double* %253, align 4
  %254 = getelementptr inbounds %struct.one_result* %252, i32 14, i32 1 ; <i8**> [#uses=1]
  store i8* getelementptr inbounds ([21 x i8]* @.str26, i32 0, i32 0), i8** %254, align 4
  %255 = sdiv i32 %base_iterations.0, 10          ; <i32> [#uses=158]
  %256 = tail call i32 @clock() nounwind          ; <i32> [#uses=1]
  %257 = icmp sgt i32 %base_iterations.0, 9       ; <i1> [#uses=158]
  br i1 %257, label %bb.nph6.i3512, label %bb5.i3526

bb.nph6.i3512:                                    ; preds = %_Z13test_constantIa20custom_xor_constantsIaEEvPT_iPKc.exit
  %258 = shl i8 %8, 6                             ; <i8> [#uses=1]
  %259 = xor i8 %258, -128                        ; <i8> [#uses=1]
  br label %bb2.preheader.us.i3515

bb2.preheader.us.i3515:                           ; preds = %_Z17check_shifted_sumIa19custom_constant_addIaEEvT_.exit.us.i, %bb.nph6.i3512
  %i.05.us.i3513 = phi i32 [ 0, %bb.nph6.i3512 ], [ %tmp.i3514, %_Z17check_shifted_sumIa19custom_constant_addIaEEvT_.exit.us.i ] ; <i32> [#uses=1]
  %tmp.i3514 = add i32 %i.05.us.i3513, 1          ; <i32> [#uses=2]
  br label %bb1.us.i3521

_Z17check_shifted_sumIa19custom_constant_addIaEEvT_.exit.us.i: ; preds = %bb2.bb3_crit_edge.us.i3525, %bb.i1.us.i3516
  %260 = icmp slt i32 %tmp.i3514, %255            ; <i1> [#uses=1]
  br i1 %260, label %bb2.preheader.us.i3515, label %bb5.i3526

bb.i1.us.i3516:                                   ; preds = %bb2.bb3_crit_edge.us.i3525
  %261 = tail call i32 (i8*, ...)* @printf(i8* noalias getelementptr inbounds ([16 x i8]* @.str, i32 0, i32 0), i32 15) nounwind ; <i32> [#uses=0]
  br label %_Z17check_shifted_sumIa19custom_constant_addIaEEvT_.exit.us.i

bb1.us.i3521:                                     ; preds = %bb1.us.i3521, %bb2.preheader.us.i3515
  %result.03.us.i3517 = phi i8 [ 0, %bb2.preheader.us.i3515 ], [ %264, %bb1.us.i3521 ] ; <i8> [#uses=1]
  %n.02.us.i3518 = phi i32 [ 0, %bb2.preheader.us.i3515 ], [ %265, %bb1.us.i3521 ] ; <i32> [#uses=2]
  %scevgep.i3519 = getelementptr [8000 x i8]* @data8, i32 0, i32 %n.02.us.i3518 ; <i8*> [#uses=1]
  %262 = load i8* %scevgep.i3519, align 1         ; <i8> [#uses=1]
  %263 = add i8 %result.03.us.i3517, 10           ; <i8> [#uses=1]
  %264 = add i8 %263, %262                        ; <i8> [#uses=2]
  %265 = add nsw i32 %n.02.us.i3518, 1            ; <i32> [#uses=2]
  %exitcond.i3520 = icmp eq i32 %265, 8000        ; <i1> [#uses=1]
  br i1 %exitcond.i3520, label %bb2.bb3_crit_edge.us.i3525, label %bb1.us.i3521

bb2.bb3_crit_edge.us.i3525:                       ; preds = %bb1.us.i3521
  %266 = sub i8 %264, %259                        ; <i8> [#uses=2]
  %267 = sext i8 %266 to i32                      ; <i32> [#uses=2]
  %neg.i.i.us.i3522 = sub i32 0, %267             ; <i32> [#uses=1]
  %abscond.i.i.us.i3523 = icmp sgt i8 %266, -1    ; <i1> [#uses=1]
  %abs.i.i.us.i3524 = select i1 %abscond.i.i.us.i3523, i32 %267, i32 %neg.i.i.us.i3522 ; <i32> [#uses=1]
  %268 = icmp slt i32 %abs.i.i.us.i3524, 1        ; <i1> [#uses=1]
  br i1 %268, label %_Z17check_shifted_sumIa19custom_constant_addIaEEvT_.exit.us.i, label %bb.i1.us.i3516

bb5.i3526:                                        ; preds = %_Z17check_shifted_sumIa19custom_constant_addIaEEvT_.exit.us.i, %_Z13test_constantIa20custom_xor_constantsIaEEvPT_iPKc.exit
  %269 = tail call i32 @clock() nounwind          ; <i32> [#uses=1]
  %270 = sub i32 %269, %256                       ; <i32> [#uses=1]
  %271 = sitofp i32 %270 to double                ; <double> [#uses=1]
  %272 = fdiv double %271, 1.000000e+06           ; <double> [#uses=1]
  %.not3656 = icmp ne %struct.one_result* %results.13, null ; <i1> [#uses=1]
  %273 = icmp sgt i32 %allocated_results.13, 15   ; <i1> [#uses=1]
  %or.cond3657 = and i1 %273, %.not3656           ; <i1> [#uses=1]
  br i1 %or.cond3657, label %_Z13test_constantIa19custom_constant_addIaEEvPT_iPKc.exit, label %bb1.i.i3528

bb1.i.i3528:                                      ; preds = %bb5.i3526
  %274 = add nsw i32 %allocated_results.13, 10    ; <i32> [#uses=3]
  %275 = mul i32 %274, 12                         ; <i32> [#uses=1]
  %276 = bitcast %struct.one_result* %results.13 to i8* ; <i8*> [#uses=1]
  %277 = tail call i8* @realloc(i8* %276, i32 %275) nounwind ; <i8*> [#uses=2]
  %278 = bitcast i8* %277 to %struct.one_result*  ; <%struct.one_result*> [#uses=2]
  %279 = icmp eq i8* %277, null                   ; <i1> [#uses=1]
  br i1 %279, label %bb2.i.i3529, label %_Z13test_constantIa19custom_constant_addIaEEvPT_iPKc.exit

bb2.i.i3529:                                      ; preds = %bb1.i.i3528
  %280 = tail call i32 (i8*, ...)* @printf(i8* noalias getelementptr inbounds ([31 x i8]* @.str11, i32 0, i32 0), i32 %274) nounwind ; <i32> [#uses=0]
  tail call void @exit(i32 -1) noreturn nounwind
  unreachable

_Z13test_constantIa19custom_constant_addIaEEvPT_iPKc.exit: ; preds = %bb1.i.i3528, %bb5.i3526
  %results.14 = phi %struct.one_result* [ %278, %bb1.i.i3528 ], [ %results.13, %bb5.i3526 ] ; <%struct.one_result*> [#uses=4]
  %allocated_results.14 = phi i32 [ %274, %bb1.i.i3528 ], [ %allocated_results.13, %bb5.i3526 ] ; <i32> [#uses=3]
  %281 = phi %struct.one_result* [ %278, %bb1.i.i3528 ], [ %results.13, %bb5.i3526 ] ; <%struct.one_result*> [#uses=2]
  %282 = getelementptr inbounds %struct.one_result* %281, i32 15, i32 0 ; <double*> [#uses=1]
  store double %272, double* %282, align 4
  %283 = getelementptr inbounds %struct.one_result* %281, i32 15, i32 1 ; <i8**> [#uses=1]
  store i8* getelementptr inbounds ([20 x i8]* @.str27, i32 0, i32 0), i8** %283, align 4
  %284 = tail call i32 @clock() nounwind          ; <i32> [#uses=1]
  br i1 %257, label %bb.nph6.i3494, label %bb5.i3508

bb.nph6.i3494:                                    ; preds = %_Z13test_constantIa19custom_constant_addIaEEvPT_iPKc.exit
  %285 = shl i8 %8, 6                             ; <i8> [#uses=1]
  %286 = xor i8 %285, -128                        ; <i8> [#uses=1]
  br label %bb2.preheader.us.i3497

bb2.preheader.us.i3497:                           ; preds = %_Z17check_shifted_sumIa28custom_multiple_constant_addIaEEvT_.exit.us.i, %bb.nph6.i3494
  %i.05.us.i3495 = phi i32 [ 0, %bb.nph6.i3494 ], [ %tmp.i3496, %_Z17check_shifted_sumIa28custom_multiple_constant_addIaEEvT_.exit.us.i ] ; <i32> [#uses=1]
  %tmp.i3496 = add i32 %i.05.us.i3495, 1          ; <i32> [#uses=2]
  br label %bb1.us.i3503

_Z17check_shifted_sumIa28custom_multiple_constant_addIaEEvT_.exit.us.i: ; preds = %bb2.bb3_crit_edge.us.i3507, %bb.i1.us.i3498
  %287 = icmp slt i32 %tmp.i3496, %255            ; <i1> [#uses=1]
  br i1 %287, label %bb2.preheader.us.i3497, label %bb5.i3508

bb.i1.us.i3498:                                   ; preds = %bb2.bb3_crit_edge.us.i3507
  %288 = tail call i32 (i8*, ...)* @printf(i8* noalias getelementptr inbounds ([16 x i8]* @.str, i32 0, i32 0), i32 16) nounwind ; <i32> [#uses=0]
  br label %_Z17check_shifted_sumIa28custom_multiple_constant_addIaEEvT_.exit.us.i

bb1.us.i3503:                                     ; preds = %bb1.us.i3503, %bb2.preheader.us.i3497
  %result.03.us.i3499 = phi i8 [ 0, %bb2.preheader.us.i3497 ], [ %291, %bb1.us.i3503 ] ; <i8> [#uses=1]
  %n.02.us.i3500 = phi i32 [ 0, %bb2.preheader.us.i3497 ], [ %292, %bb1.us.i3503 ] ; <i32> [#uses=2]
  %scevgep.i3501 = getelementptr [8000 x i8]* @data8, i32 0, i32 %n.02.us.i3500 ; <i8*> [#uses=1]
  %289 = load i8* %scevgep.i3501, align 1         ; <i8> [#uses=1]
  %290 = add i8 %result.03.us.i3499, 10           ; <i8> [#uses=1]
  %291 = add i8 %290, %289                        ; <i8> [#uses=2]
  %292 = add nsw i32 %n.02.us.i3500, 1            ; <i32> [#uses=2]
  %exitcond.i3502 = icmp eq i32 %292, 8000        ; <i1> [#uses=1]
  br i1 %exitcond.i3502, label %bb2.bb3_crit_edge.us.i3507, label %bb1.us.i3503

bb2.bb3_crit_edge.us.i3507:                       ; preds = %bb1.us.i3503
  %293 = sub i8 %291, %286                        ; <i8> [#uses=2]
  %294 = sext i8 %293 to i32                      ; <i32> [#uses=2]
  %neg.i.i.us.i3504 = sub i32 0, %294             ; <i32> [#uses=1]
  %abscond.i.i.us.i3505 = icmp sgt i8 %293, -1    ; <i1> [#uses=1]
  %abs.i.i.us.i3506 = select i1 %abscond.i.i.us.i3505, i32 %294, i32 %neg.i.i.us.i3504 ; <i32> [#uses=1]
  %295 = icmp slt i32 %abs.i.i.us.i3506, 1        ; <i1> [#uses=1]
  br i1 %295, label %_Z17check_shifted_sumIa28custom_multiple_constant_addIaEEvT_.exit.us.i, label %bb.i1.us.i3498

bb5.i3508:                                        ; preds = %_Z17check_shifted_sumIa28custom_multiple_constant_addIaEEvT_.exit.us.i, %_Z13test_constantIa19custom_constant_addIaEEvPT_iPKc.exit
  %296 = tail call i32 @clock() nounwind          ; <i32> [#uses=1]
  %297 = sub i32 %296, %284                       ; <i32> [#uses=1]
  %298 = sitofp i32 %297 to double                ; <double> [#uses=1]
  %299 = fdiv double %298, 1.000000e+06           ; <double> [#uses=1]
  %.not3658 = icmp ne %struct.one_result* %results.14, null ; <i1> [#uses=1]
  %300 = icmp sgt i32 %allocated_results.14, 16   ; <i1> [#uses=1]
  %or.cond3659 = and i1 %300, %.not3658           ; <i1> [#uses=1]
  br i1 %or.cond3659, label %_Z13test_constantIa28custom_multiple_constant_addIaEEvPT_iPKc.exit, label %bb1.i.i3510

bb1.i.i3510:                                      ; preds = %bb5.i3508
  %301 = add nsw i32 %allocated_results.14, 10    ; <i32> [#uses=3]
  %302 = mul i32 %301, 12                         ; <i32> [#uses=1]
  %303 = bitcast %struct.one_result* %results.14 to i8* ; <i8*> [#uses=1]
  %304 = tail call i8* @realloc(i8* %303, i32 %302) nounwind ; <i8*> [#uses=2]
  %305 = bitcast i8* %304 to %struct.one_result*  ; <%struct.one_result*> [#uses=2]
  %306 = icmp eq i8* %304, null                   ; <i1> [#uses=1]
  br i1 %306, label %bb2.i.i3511, label %_Z13test_constantIa28custom_multiple_constant_addIaEEvPT_iPKc.exit

bb2.i.i3511:                                      ; preds = %bb1.i.i3510
  %307 = tail call i32 (i8*, ...)* @printf(i8* noalias getelementptr inbounds ([31 x i8]* @.str11, i32 0, i32 0), i32 %301) nounwind ; <i32> [#uses=0]
  tail call void @exit(i32 -1) noreturn nounwind
  unreachable

_Z13test_constantIa28custom_multiple_constant_addIaEEvPT_iPKc.exit: ; preds = %bb1.i.i3510, %bb5.i3508
  %results.15 = phi %struct.one_result* [ %305, %bb1.i.i3510 ], [ %results.14, %bb5.i3508 ] ; <%struct.one_result*> [#uses=4]
  %allocated_results.15 = phi i32 [ %301, %bb1.i.i3510 ], [ %allocated_results.14, %bb5.i3508 ] ; <i32> [#uses=3]
  %308 = phi %struct.one_result* [ %305, %bb1.i.i3510 ], [ %results.14, %bb5.i3508 ] ; <%struct.one_result*> [#uses=2]
  %309 = getelementptr inbounds %struct.one_result* %308, i32 16, i32 0 ; <double*> [#uses=1]
  store double %299, double* %309, align 4
  %310 = getelementptr inbounds %struct.one_result* %308, i32 16, i32 1 ; <i8**> [#uses=1]
  store i8* getelementptr inbounds ([30 x i8]* @.str28, i32 0, i32 0), i8** %310, align 4
  %311 = tail call i32 @clock() nounwind          ; <i32> [#uses=1]
  br i1 %257, label %bb.nph6.i3476, label %bb5.i3490

bb.nph6.i3476:                                    ; preds = %_Z13test_constantIa28custom_multiple_constant_addIaEEvPT_iPKc.exit
  %312 = shl i8 %8, 6                             ; <i8> [#uses=1]
  %313 = xor i8 %312, -128                        ; <i8> [#uses=1]
  br label %bb2.preheader.us.i3479

bb2.preheader.us.i3479:                           ; preds = %_Z17check_shifted_sumIa19custom_constant_subIaEEvT_.exit.us.i, %bb.nph6.i3476
  %i.05.us.i3477 = phi i32 [ 0, %bb.nph6.i3476 ], [ %tmp.i3478, %_Z17check_shifted_sumIa19custom_constant_subIaEEvT_.exit.us.i ] ; <i32> [#uses=1]
  %tmp.i3478 = add i32 %i.05.us.i3477, 1          ; <i32> [#uses=2]
  br label %bb1.us.i3485

_Z17check_shifted_sumIa19custom_constant_subIaEEvT_.exit.us.i: ; preds = %bb2.bb3_crit_edge.us.i3489, %bb.i1.us.i3480
  %314 = icmp slt i32 %tmp.i3478, %255            ; <i1> [#uses=1]
  br i1 %314, label %bb2.preheader.us.i3479, label %bb5.i3490

bb.i1.us.i3480:                                   ; preds = %bb2.bb3_crit_edge.us.i3489
  %315 = tail call i32 (i8*, ...)* @printf(i8* noalias getelementptr inbounds ([16 x i8]* @.str, i32 0, i32 0), i32 17) nounwind ; <i32> [#uses=0]
  br label %_Z17check_shifted_sumIa19custom_constant_subIaEEvT_.exit.us.i

bb1.us.i3485:                                     ; preds = %bb1.us.i3485, %bb2.preheader.us.i3479
  %result.03.us.i3481 = phi i8 [ 0, %bb2.preheader.us.i3479 ], [ %318, %bb1.us.i3485 ] ; <i8> [#uses=1]
  %n.02.us.i3482 = phi i32 [ 0, %bb2.preheader.us.i3479 ], [ %319, %bb1.us.i3485 ] ; <i32> [#uses=2]
  %scevgep.i3483 = getelementptr [8000 x i8]* @data8, i32 0, i32 %n.02.us.i3482 ; <i8*> [#uses=1]
  %316 = load i8* %scevgep.i3483, align 1         ; <i8> [#uses=1]
  %317 = add i8 %result.03.us.i3481, -10          ; <i8> [#uses=1]
  %318 = add i8 %317, %316                        ; <i8> [#uses=2]
  %319 = add nsw i32 %n.02.us.i3482, 1            ; <i32> [#uses=2]
  %exitcond.i3484 = icmp eq i32 %319, 8000        ; <i1> [#uses=1]
  br i1 %exitcond.i3484, label %bb2.bb3_crit_edge.us.i3489, label %bb1.us.i3485

bb2.bb3_crit_edge.us.i3489:                       ; preds = %bb1.us.i3485
  %320 = sub i8 %318, %313                        ; <i8> [#uses=2]
  %321 = sext i8 %320 to i32                      ; <i32> [#uses=2]
  %neg.i.i.us.i3486 = sub i32 0, %321             ; <i32> [#uses=1]
  %abscond.i.i.us.i3487 = icmp sgt i8 %320, -1    ; <i1> [#uses=1]
  %abs.i.i.us.i3488 = select i1 %abscond.i.i.us.i3487, i32 %321, i32 %neg.i.i.us.i3486 ; <i32> [#uses=1]
  %322 = icmp slt i32 %abs.i.i.us.i3488, 1        ; <i1> [#uses=1]
  br i1 %322, label %_Z17check_shifted_sumIa19custom_constant_subIaEEvT_.exit.us.i, label %bb.i1.us.i3480

bb5.i3490:                                        ; preds = %_Z17check_shifted_sumIa19custom_constant_subIaEEvT_.exit.us.i, %_Z13test_constantIa28custom_multiple_constant_addIaEEvPT_iPKc.exit
  %323 = tail call i32 @clock() nounwind          ; <i32> [#uses=1]
  %324 = sub i32 %323, %311                       ; <i32> [#uses=1]
  %325 = sitofp i32 %324 to double                ; <double> [#uses=1]
  %326 = fdiv double %325, 1.000000e+06           ; <double> [#uses=1]
  %.not3660 = icmp ne %struct.one_result* %results.15, null ; <i1> [#uses=1]
  %327 = icmp sgt i32 %allocated_results.15, 17   ; <i1> [#uses=1]
  %or.cond3661 = and i1 %327, %.not3660           ; <i1> [#uses=1]
  br i1 %or.cond3661, label %_Z13test_constantIa19custom_constant_subIaEEvPT_iPKc.exit, label %bb1.i.i3492

bb1.i.i3492:                                      ; preds = %bb5.i3490
  %328 = add nsw i32 %allocated_results.15, 10    ; <i32> [#uses=3]
  %329 = mul i32 %328, 12                         ; <i32> [#uses=1]
  %330 = bitcast %struct.one_result* %results.15 to i8* ; <i8*> [#uses=1]
  %331 = tail call i8* @realloc(i8* %330, i32 %329) nounwind ; <i8*> [#uses=2]
  %332 = bitcast i8* %331 to %struct.one_result*  ; <%struct.one_result*> [#uses=2]
  %333 = icmp eq i8* %331, null                   ; <i1> [#uses=1]
  br i1 %333, label %bb2.i.i3493, label %_Z13test_constantIa19custom_constant_subIaEEvPT_iPKc.exit

bb2.i.i3493:                                      ; preds = %bb1.i.i3492
  %334 = tail call i32 (i8*, ...)* @printf(i8* noalias getelementptr inbounds ([31 x i8]* @.str11, i32 0, i32 0), i32 %328) nounwind ; <i32> [#uses=0]
  tail call void @exit(i32 -1) noreturn nounwind
  unreachable

_Z13test_constantIa19custom_constant_subIaEEvPT_iPKc.exit: ; preds = %bb1.i.i3492, %bb5.i3490
  %results.16 = phi %struct.one_result* [ %332, %bb1.i.i3492 ], [ %results.15, %bb5.i3490 ] ; <%struct.one_result*> [#uses=4]
  %allocated_results.16 = phi i32 [ %328, %bb1.i.i3492 ], [ %allocated_results.15, %bb5.i3490 ] ; <i32> [#uses=3]
  %335 = phi %struct.one_result* [ %332, %bb1.i.i3492 ], [ %results.15, %bb5.i3490 ] ; <%struct.one_result*> [#uses=2]
  %336 = getelementptr inbounds %struct.one_result* %335, i32 17, i32 0 ; <double*> [#uses=1]
  store double %326, double* %336, align 4
  %337 = getelementptr inbounds %struct.one_result* %335, i32 17, i32 1 ; <i8**> [#uses=1]
  store i8* getelementptr inbounds ([25 x i8]* @.str29, i32 0, i32 0), i8** %337, align 4
  %338 = tail call i32 @clock() nounwind          ; <i32> [#uses=1]
  br i1 %257, label %bb.nph6.i3458, label %bb5.i3472

bb.nph6.i3458:                                    ; preds = %_Z13test_constantIa19custom_constant_subIaEEvPT_iPKc.exit
  %339 = shl i8 %8, 6                             ; <i8> [#uses=1]
  %340 = xor i8 %339, -128                        ; <i8> [#uses=1]
  br label %bb2.preheader.us.i3461

bb2.preheader.us.i3461:                           ; preds = %_Z17check_shifted_sumIa28custom_multiple_constant_subIaEEvT_.exit.us.i, %bb.nph6.i3458
  %i.05.us.i3459 = phi i32 [ 0, %bb.nph6.i3458 ], [ %tmp.i3460, %_Z17check_shifted_sumIa28custom_multiple_constant_subIaEEvT_.exit.us.i ] ; <i32> [#uses=1]
  %tmp.i3460 = add i32 %i.05.us.i3459, 1          ; <i32> [#uses=2]
  br label %bb1.us.i3467

_Z17check_shifted_sumIa28custom_multiple_constant_subIaEEvT_.exit.us.i: ; preds = %bb2.bb3_crit_edge.us.i3471, %bb.i1.us.i3462
  %341 = icmp slt i32 %tmp.i3460, %255            ; <i1> [#uses=1]
  br i1 %341, label %bb2.preheader.us.i3461, label %bb5.i3472

bb.i1.us.i3462:                                   ; preds = %bb2.bb3_crit_edge.us.i3471
  %342 = tail call i32 (i8*, ...)* @printf(i8* noalias getelementptr inbounds ([16 x i8]* @.str, i32 0, i32 0), i32 18) nounwind ; <i32> [#uses=0]
  br label %_Z17check_shifted_sumIa28custom_multiple_constant_subIaEEvT_.exit.us.i

bb1.us.i3467:                                     ; preds = %bb1.us.i3467, %bb2.preheader.us.i3461
  %result.03.us.i3463 = phi i8 [ 0, %bb2.preheader.us.i3461 ], [ %345, %bb1.us.i3467 ] ; <i8> [#uses=1]
  %n.02.us.i3464 = phi i32 [ 0, %bb2.preheader.us.i3461 ], [ %346, %bb1.us.i3467 ] ; <i32> [#uses=2]
  %scevgep.i3465 = getelementptr [8000 x i8]* @data8, i32 0, i32 %n.02.us.i3464 ; <i8*> [#uses=1]
  %343 = load i8* %scevgep.i3465, align 1         ; <i8> [#uses=1]
  %344 = add i8 %result.03.us.i3463, -10          ; <i8> [#uses=1]
  %345 = add i8 %344, %343                        ; <i8> [#uses=2]
  %346 = add nsw i32 %n.02.us.i3464, 1            ; <i32> [#uses=2]
  %exitcond.i3466 = icmp eq i32 %346, 8000        ; <i1> [#uses=1]
  br i1 %exitcond.i3466, label %bb2.bb3_crit_edge.us.i3471, label %bb1.us.i3467

bb2.bb3_crit_edge.us.i3471:                       ; preds = %bb1.us.i3467
  %347 = sub i8 %345, %340                        ; <i8> [#uses=2]
  %348 = sext i8 %347 to i32                      ; <i32> [#uses=2]
  %neg.i.i.us.i3468 = sub i32 0, %348             ; <i32> [#uses=1]
  %abscond.i.i.us.i3469 = icmp sgt i8 %347, -1    ; <i1> [#uses=1]
  %abs.i.i.us.i3470 = select i1 %abscond.i.i.us.i3469, i32 %348, i32 %neg.i.i.us.i3468 ; <i32> [#uses=1]
  %349 = icmp slt i32 %abs.i.i.us.i3470, 1        ; <i1> [#uses=1]
  br i1 %349, label %_Z17check_shifted_sumIa28custom_multiple_constant_subIaEEvT_.exit.us.i, label %bb.i1.us.i3462

bb5.i3472:                                        ; preds = %_Z17check_shifted_sumIa28custom_multiple_constant_subIaEEvT_.exit.us.i, %_Z13test_constantIa19custom_constant_subIaEEvPT_iPKc.exit
  %350 = tail call i32 @clock() nounwind          ; <i32> [#uses=1]
  %351 = sub i32 %350, %338                       ; <i32> [#uses=1]
  %352 = sitofp i32 %351 to double                ; <double> [#uses=1]
  %353 = fdiv double %352, 1.000000e+06           ; <double> [#uses=1]
  %.not3662 = icmp ne %struct.one_result* %results.16, null ; <i1> [#uses=1]
  %354 = icmp sgt i32 %allocated_results.16, 18   ; <i1> [#uses=1]
  %or.cond3663 = and i1 %354, %.not3662           ; <i1> [#uses=1]
  br i1 %or.cond3663, label %_Z13test_constantIa28custom_multiple_constant_subIaEEvPT_iPKc.exit, label %bb1.i.i3474

bb1.i.i3474:                                      ; preds = %bb5.i3472
  %355 = add nsw i32 %allocated_results.16, 10    ; <i32> [#uses=3]
  %356 = mul i32 %355, 12                         ; <i32> [#uses=1]
  %357 = bitcast %struct.one_result* %results.16 to i8* ; <i8*> [#uses=1]
  %358 = tail call i8* @realloc(i8* %357, i32 %356) nounwind ; <i8*> [#uses=2]
  %359 = bitcast i8* %358 to %struct.one_result*  ; <%struct.one_result*> [#uses=2]
  %360 = icmp eq i8* %358, null                   ; <i1> [#uses=1]
  br i1 %360, label %bb2.i.i3475, label %_Z13test_constantIa28custom_multiple_constant_subIaEEvPT_iPKc.exit

bb2.i.i3475:                                      ; preds = %bb1.i.i3474
  %361 = tail call i32 (i8*, ...)* @printf(i8* noalias getelementptr inbounds ([31 x i8]* @.str11, i32 0, i32 0), i32 %355) nounwind ; <i32> [#uses=0]
  tail call void @exit(i32 -1) noreturn nounwind
  unreachable

_Z13test_constantIa28custom_multiple_constant_subIaEEvPT_iPKc.exit: ; preds = %bb1.i.i3474, %bb5.i3472
  %results.17 = phi %struct.one_result* [ %359, %bb1.i.i3474 ], [ %results.16, %bb5.i3472 ] ; <%struct.one_result*> [#uses=4]
  %allocated_results.17 = phi i32 [ %355, %bb1.i.i3474 ], [ %allocated_results.16, %bb5.i3472 ] ; <i32> [#uses=3]
  %362 = phi %struct.one_result* [ %359, %bb1.i.i3474 ], [ %results.16, %bb5.i3472 ] ; <%struct.one_result*> [#uses=2]
  %363 = getelementptr inbounds %struct.one_result* %362, i32 18, i32 0 ; <double*> [#uses=1]
  store double %353, double* %363, align 4
  %364 = getelementptr inbounds %struct.one_result* %362, i32 18, i32 1 ; <i8**> [#uses=1]
  store i8* getelementptr inbounds ([35 x i8]* @.str30, i32 0, i32 0), i8** %364, align 4
  %365 = tail call i32 @clock() nounwind          ; <i32> [#uses=1]
  br i1 %257, label %bb2.preheader.us.i3443, label %bb5.i3454

bb2.preheader.us.i3443:                           ; preds = %_Z17check_shifted_sumIa24custom_constant_multiplyIaEEvT_.exit.us.i, %_Z13test_constantIa28custom_multiple_constant_subIaEEvPT_iPKc.exit
  %i.05.us.i3441 = phi i32 [ %tmp.i3442, %_Z17check_shifted_sumIa24custom_constant_multiplyIaEEvT_.exit.us.i ], [ 0, %_Z13test_constantIa28custom_multiple_constant_subIaEEvPT_iPKc.exit ] ; <i32> [#uses=1]
  %tmp.i3442 = add i32 %i.05.us.i3441, 1          ; <i32> [#uses=2]
  br label %bb1.us.i3449

_Z17check_shifted_sumIa24custom_constant_multiplyIaEEvT_.exit.us.i: ; preds = %bb2.bb3_crit_edge.us.i3453, %bb.i1.us.i3444
  %366 = icmp slt i32 %tmp.i3442, %255            ; <i1> [#uses=1]
  br i1 %366, label %bb2.preheader.us.i3443, label %bb5.i3454

bb.i1.us.i3444:                                   ; preds = %bb2.bb3_crit_edge.us.i3453
  %367 = tail call i32 (i8*, ...)* @printf(i8* noalias getelementptr inbounds ([16 x i8]* @.str, i32 0, i32 0), i32 19) nounwind ; <i32> [#uses=0]
  br label %_Z17check_shifted_sumIa24custom_constant_multiplyIaEEvT_.exit.us.i

bb1.us.i3449:                                     ; preds = %bb1.us.i3449, %bb2.preheader.us.i3443
  %result.03.us.i3445 = phi i8 [ 0, %bb2.preheader.us.i3443 ], [ %370, %bb1.us.i3449 ] ; <i8> [#uses=1]
  %n.02.us.i3446 = phi i32 [ 0, %bb2.preheader.us.i3443 ], [ %371, %bb1.us.i3449 ] ; <i32> [#uses=2]
  %scevgep.i3447 = getelementptr [8000 x i8]* @data8, i32 0, i32 %n.02.us.i3446 ; <i8*> [#uses=1]
  %368 = load i8* %scevgep.i3447, align 1         ; <i8> [#uses=1]
  %369 = mul i8 %368, 120                         ; <i8> [#uses=1]
  %370 = add i8 %369, %result.03.us.i3445         ; <i8> [#uses=3]
  %371 = add nsw i32 %n.02.us.i3446, 1            ; <i32> [#uses=2]
  %exitcond.i3448 = icmp eq i32 %371, 8000        ; <i1> [#uses=1]
  br i1 %exitcond.i3448, label %bb2.bb3_crit_edge.us.i3453, label %bb1.us.i3449

bb2.bb3_crit_edge.us.i3453:                       ; preds = %bb1.us.i3449
  %372 = sext i8 %370 to i32                      ; <i32> [#uses=2]
  %neg.i.i.us.i3450 = sub i32 0, %372             ; <i32> [#uses=1]
  %abscond.i.i.us.i3451 = icmp sgt i8 %370, -1    ; <i1> [#uses=1]
  %abs.i.i.us.i3452 = select i1 %abscond.i.i.us.i3451, i32 %372, i32 %neg.i.i.us.i3450 ; <i32> [#uses=1]
  %373 = icmp slt i32 %abs.i.i.us.i3452, 1        ; <i1> [#uses=1]
  br i1 %373, label %_Z17check_shifted_sumIa24custom_constant_multiplyIaEEvT_.exit.us.i, label %bb.i1.us.i3444

bb5.i3454:                                        ; preds = %_Z17check_shifted_sumIa24custom_constant_multiplyIaEEvT_.exit.us.i, %_Z13test_constantIa28custom_multiple_constant_subIaEEvPT_iPKc.exit
  %374 = tail call i32 @clock() nounwind          ; <i32> [#uses=1]
  %375 = sub i32 %374, %365                       ; <i32> [#uses=1]
  %376 = sitofp i32 %375 to double                ; <double> [#uses=1]
  %377 = fdiv double %376, 1.000000e+06           ; <double> [#uses=1]
  %.not3664 = icmp ne %struct.one_result* %results.17, null ; <i1> [#uses=1]
  %378 = icmp sgt i32 %allocated_results.17, 19   ; <i1> [#uses=1]
  %or.cond3665 = and i1 %378, %.not3664           ; <i1> [#uses=1]
  br i1 %or.cond3665, label %_Z13test_constantIa24custom_constant_multiplyIaEEvPT_iPKc.exit, label %bb1.i.i3456

bb1.i.i3456:                                      ; preds = %bb5.i3454
  %379 = add nsw i32 %allocated_results.17, 10    ; <i32> [#uses=3]
  %380 = mul i32 %379, 12                         ; <i32> [#uses=1]
  %381 = bitcast %struct.one_result* %results.17 to i8* ; <i8*> [#uses=1]
  %382 = tail call i8* @realloc(i8* %381, i32 %380) nounwind ; <i8*> [#uses=2]
  %383 = bitcast i8* %382 to %struct.one_result*  ; <%struct.one_result*> [#uses=2]
  %384 = icmp eq i8* %382, null                   ; <i1> [#uses=1]
  br i1 %384, label %bb2.i.i3457, label %_Z13test_constantIa24custom_constant_multiplyIaEEvPT_iPKc.exit

bb2.i.i3457:                                      ; preds = %bb1.i.i3456
  %385 = tail call i32 (i8*, ...)* @printf(i8* noalias getelementptr inbounds ([31 x i8]* @.str11, i32 0, i32 0), i32 %379) nounwind ; <i32> [#uses=0]
  tail call void @exit(i32 -1) noreturn nounwind
  unreachable

_Z13test_constantIa24custom_constant_multiplyIaEEvPT_iPKc.exit: ; preds = %bb1.i.i3456, %bb5.i3454
  %results.18 = phi %struct.one_result* [ %383, %bb1.i.i3456 ], [ %results.17, %bb5.i3454 ] ; <%struct.one_result*> [#uses=4]
  %allocated_results.18 = phi i32 [ %379, %bb1.i.i3456 ], [ %allocated_results.17, %bb5.i3454 ] ; <i32> [#uses=3]
  %386 = phi %struct.one_result* [ %383, %bb1.i.i3456 ], [ %results.17, %bb5.i3454 ] ; <%struct.one_result*> [#uses=2]
  %387 = getelementptr inbounds %struct.one_result* %386, i32 19, i32 0 ; <double*> [#uses=1]
  store double %377, double* %387, align 4
  %388 = getelementptr inbounds %struct.one_result* %386, i32 19, i32 1 ; <i8**> [#uses=1]
  store i8* getelementptr inbounds ([25 x i8]* @.str31, i32 0, i32 0), i8** %388, align 4
  %389 = tail call i32 @clock() nounwind          ; <i32> [#uses=1]
  br i1 %257, label %bb2.preheader.us.i3425, label %bb5.i3436

bb2.preheader.us.i3425:                           ; preds = %_Z17check_shifted_sumIa33custom_multiple_constant_multiplyIaEEvT_.exit.us.i, %_Z13test_constantIa24custom_constant_multiplyIaEEvPT_iPKc.exit
  %i.05.us.i3423 = phi i32 [ %tmp.i3424, %_Z17check_shifted_sumIa33custom_multiple_constant_multiplyIaEEvT_.exit.us.i ], [ 0, %_Z13test_constantIa24custom_constant_multiplyIaEEvPT_iPKc.exit ] ; <i32> [#uses=1]
  %tmp.i3424 = add i32 %i.05.us.i3423, 1          ; <i32> [#uses=2]
  br label %bb1.us.i3431

_Z17check_shifted_sumIa33custom_multiple_constant_multiplyIaEEvT_.exit.us.i: ; preds = %bb2.bb3_crit_edge.us.i3435, %bb.i1.us.i3426
  %390 = icmp slt i32 %tmp.i3424, %255            ; <i1> [#uses=1]
  br i1 %390, label %bb2.preheader.us.i3425, label %bb5.i3436

bb.i1.us.i3426:                                   ; preds = %bb2.bb3_crit_edge.us.i3435
  %391 = tail call i32 (i8*, ...)* @printf(i8* noalias getelementptr inbounds ([16 x i8]* @.str, i32 0, i32 0), i32 20) nounwind ; <i32> [#uses=0]
  br label %_Z17check_shifted_sumIa33custom_multiple_constant_multiplyIaEEvT_.exit.us.i

bb1.us.i3431:                                     ; preds = %bb1.us.i3431, %bb2.preheader.us.i3425
  %result.03.us.i3427 = phi i8 [ 0, %bb2.preheader.us.i3425 ], [ %394, %bb1.us.i3431 ] ; <i8> [#uses=1]
  %n.02.us.i3428 = phi i32 [ 0, %bb2.preheader.us.i3425 ], [ %395, %bb1.us.i3431 ] ; <i32> [#uses=2]
  %scevgep.i3429 = getelementptr [8000 x i8]* @data8, i32 0, i32 %n.02.us.i3428 ; <i8*> [#uses=1]
  %392 = load i8* %scevgep.i3429, align 1         ; <i8> [#uses=1]
  %393 = mul i8 %392, 120                         ; <i8> [#uses=1]
  %394 = add i8 %393, %result.03.us.i3427         ; <i8> [#uses=3]
  %395 = add nsw i32 %n.02.us.i3428, 1            ; <i32> [#uses=2]
  %exitcond.i3430 = icmp eq i32 %395, 8000        ; <i1> [#uses=1]
  br i1 %exitcond.i3430, label %bb2.bb3_crit_edge.us.i3435, label %bb1.us.i3431

bb2.bb3_crit_edge.us.i3435:                       ; preds = %bb1.us.i3431
  %396 = sext i8 %394 to i32                      ; <i32> [#uses=2]
  %neg.i.i.us.i3432 = sub i32 0, %396             ; <i32> [#uses=1]
  %abscond.i.i.us.i3433 = icmp sgt i8 %394, -1    ; <i1> [#uses=1]
  %abs.i.i.us.i3434 = select i1 %abscond.i.i.us.i3433, i32 %396, i32 %neg.i.i.us.i3432 ; <i32> [#uses=1]
  %397 = icmp slt i32 %abs.i.i.us.i3434, 1        ; <i1> [#uses=1]
  br i1 %397, label %_Z17check_shifted_sumIa33custom_multiple_constant_multiplyIaEEvT_.exit.us.i, label %bb.i1.us.i3426

bb5.i3436:                                        ; preds = %_Z17check_shifted_sumIa33custom_multiple_constant_multiplyIaEEvT_.exit.us.i, %_Z13test_constantIa24custom_constant_multiplyIaEEvPT_iPKc.exit
  %398 = tail call i32 @clock() nounwind          ; <i32> [#uses=1]
  %399 = sub i32 %398, %389                       ; <i32> [#uses=1]
  %400 = sitofp i32 %399 to double                ; <double> [#uses=1]
  %401 = fdiv double %400, 1.000000e+06           ; <double> [#uses=1]
  %.not3666 = icmp ne %struct.one_result* %results.18, null ; <i1> [#uses=1]
  %402 = icmp sgt i32 %allocated_results.18, 20   ; <i1> [#uses=1]
  %or.cond3667 = and i1 %402, %.not3666           ; <i1> [#uses=1]
  br i1 %or.cond3667, label %_Z13test_constantIa33custom_multiple_constant_multiplyIaEEvPT_iPKc.exit, label %bb1.i.i3438

bb1.i.i3438:                                      ; preds = %bb5.i3436
  %403 = add nsw i32 %allocated_results.18, 10    ; <i32> [#uses=3]
  %404 = mul i32 %403, 12                         ; <i32> [#uses=1]
  %405 = bitcast %struct.one_result* %results.18 to i8* ; <i8*> [#uses=1]
  %406 = tail call i8* @realloc(i8* %405, i32 %404) nounwind ; <i8*> [#uses=2]
  %407 = bitcast i8* %406 to %struct.one_result*  ; <%struct.one_result*> [#uses=2]
  %408 = icmp eq i8* %406, null                   ; <i1> [#uses=1]
  br i1 %408, label %bb2.i.i3439, label %_Z13test_constantIa33custom_multiple_constant_multiplyIaEEvPT_iPKc.exit

bb2.i.i3439:                                      ; preds = %bb1.i.i3438
  %409 = tail call i32 (i8*, ...)* @printf(i8* noalias getelementptr inbounds ([31 x i8]* @.str11, i32 0, i32 0), i32 %403) nounwind ; <i32> [#uses=0]
  tail call void @exit(i32 -1) noreturn nounwind
  unreachable

_Z13test_constantIa33custom_multiple_constant_multiplyIaEEvPT_iPKc.exit: ; preds = %bb1.i.i3438, %bb5.i3436
  %results.19 = phi %struct.one_result* [ %407, %bb1.i.i3438 ], [ %results.18, %bb5.i3436 ] ; <%struct.one_result*> [#uses=4]
  %allocated_results.19 = phi i32 [ %403, %bb1.i.i3438 ], [ %allocated_results.18, %bb5.i3436 ] ; <i32> [#uses=3]
  %410 = phi %struct.one_result* [ %407, %bb1.i.i3438 ], [ %results.18, %bb5.i3436 ] ; <%struct.one_result*> [#uses=2]
  %411 = getelementptr inbounds %struct.one_result* %410, i32 20, i32 0 ; <double*> [#uses=1]
  store double %401, double* %411, align 4
  %412 = getelementptr inbounds %struct.one_result* %410, i32 20, i32 1 ; <i8**> [#uses=1]
  store i8* getelementptr inbounds ([36 x i8]* @.str32, i32 0, i32 0), i8** %412, align 4
  %413 = tail call i32 @clock() nounwind          ; <i32> [#uses=1]
  br i1 %257, label %bb.nph6.i3404, label %bb5.i3418

bb.nph6.i3404:                                    ; preds = %_Z13test_constantIa33custom_multiple_constant_multiplyIaEEvPT_iPKc.exit
  %414 = shl i8 %8, 6                             ; <i8> [#uses=1]
  br label %bb2.preheader.us.i3407

bb2.preheader.us.i3407:                           ; preds = %_Z17check_shifted_sumIa34custom_multiple_constant_multiply2IaEEvT_.exit.us.i, %bb.nph6.i3404
  %i.05.us.i3405 = phi i32 [ 0, %bb.nph6.i3404 ], [ %tmp.i3406, %_Z17check_shifted_sumIa34custom_multiple_constant_multiply2IaEEvT_.exit.us.i ] ; <i32> [#uses=1]
  %tmp.i3406 = add i32 %i.05.us.i3405, 1          ; <i32> [#uses=2]
  br label %bb1.us.i3413

_Z17check_shifted_sumIa34custom_multiple_constant_multiply2IaEEvT_.exit.us.i: ; preds = %bb2.bb3_crit_edge.us.i3417, %bb.i1.us.i3408
  %415 = icmp slt i32 %tmp.i3406, %255            ; <i1> [#uses=1]
  br i1 %415, label %bb2.preheader.us.i3407, label %bb5.i3418

bb.i1.us.i3408:                                   ; preds = %bb2.bb3_crit_edge.us.i3417
  %416 = tail call i32 (i8*, ...)* @printf(i8* noalias getelementptr inbounds ([16 x i8]* @.str, i32 0, i32 0), i32 21) nounwind ; <i32> [#uses=0]
  br label %_Z17check_shifted_sumIa34custom_multiple_constant_multiply2IaEEvT_.exit.us.i

bb1.us.i3413:                                     ; preds = %bb1.us.i3413, %bb2.preheader.us.i3407
  %result.03.us.i3409 = phi i8 [ 0, %bb2.preheader.us.i3407 ], [ %419, %bb1.us.i3413 ] ; <i8> [#uses=1]
  %n.02.us.i3410 = phi i32 [ 0, %bb2.preheader.us.i3407 ], [ %420, %bb1.us.i3413 ] ; <i32> [#uses=2]
  %scevgep.i3411 = getelementptr [8000 x i8]* @data8, i32 0, i32 %n.02.us.i3410 ; <i8*> [#uses=1]
  %417 = load i8* %scevgep.i3411, align 1         ; <i8> [#uses=1]
  %418 = add i8 %result.03.us.i3409, 120          ; <i8> [#uses=1]
  %419 = add i8 %418, %417                        ; <i8> [#uses=2]
  %420 = add nsw i32 %n.02.us.i3410, 1            ; <i32> [#uses=2]
  %exitcond.i3412 = icmp eq i32 %420, 8000        ; <i1> [#uses=1]
  br i1 %exitcond.i3412, label %bb2.bb3_crit_edge.us.i3417, label %bb1.us.i3413

bb2.bb3_crit_edge.us.i3417:                       ; preds = %bb1.us.i3413
  %421 = sub i8 %419, %414                        ; <i8> [#uses=2]
  %422 = sext i8 %421 to i32                      ; <i32> [#uses=2]
  %neg.i.i.us.i3414 = sub i32 0, %422             ; <i32> [#uses=1]
  %abscond.i.i.us.i3415 = icmp sgt i8 %421, -1    ; <i1> [#uses=1]
  %abs.i.i.us.i3416 = select i1 %abscond.i.i.us.i3415, i32 %422, i32 %neg.i.i.us.i3414 ; <i32> [#uses=1]
  %423 = icmp slt i32 %abs.i.i.us.i3416, 1        ; <i1> [#uses=1]
  br i1 %423, label %_Z17check_shifted_sumIa34custom_multiple_constant_multiply2IaEEvT_.exit.us.i, label %bb.i1.us.i3408

bb5.i3418:                                        ; preds = %_Z17check_shifted_sumIa34custom_multiple_constant_multiply2IaEEvT_.exit.us.i, %_Z13test_constantIa33custom_multiple_constant_multiplyIaEEvPT_iPKc.exit
  %424 = tail call i32 @clock() nounwind          ; <i32> [#uses=1]
  %425 = sub i32 %424, %413                       ; <i32> [#uses=1]
  %426 = sitofp i32 %425 to double                ; <double> [#uses=1]
  %427 = fdiv double %426, 1.000000e+06           ; <double> [#uses=1]
  %.not3668 = icmp ne %struct.one_result* %results.19, null ; <i1> [#uses=1]
  %428 = icmp sgt i32 %allocated_results.19, 21   ; <i1> [#uses=1]
  %or.cond3669 = and i1 %428, %.not3668           ; <i1> [#uses=1]
  br i1 %or.cond3669, label %_Z13test_constantIa34custom_multiple_constant_multiply2IaEEvPT_iPKc.exit, label %bb1.i.i3420

bb1.i.i3420:                                      ; preds = %bb5.i3418
  %429 = add nsw i32 %allocated_results.19, 10    ; <i32> [#uses=3]
  %430 = mul i32 %429, 12                         ; <i32> [#uses=1]
  %431 = bitcast %struct.one_result* %results.19 to i8* ; <i8*> [#uses=1]
  %432 = tail call i8* @realloc(i8* %431, i32 %430) nounwind ; <i8*> [#uses=2]
  %433 = bitcast i8* %432 to %struct.one_result*  ; <%struct.one_result*> [#uses=2]
  %434 = icmp eq i8* %432, null                   ; <i1> [#uses=1]
  br i1 %434, label %bb2.i.i3421, label %_Z13test_constantIa34custom_multiple_constant_multiply2IaEEvPT_iPKc.exit

bb2.i.i3421:                                      ; preds = %bb1.i.i3420
  %435 = tail call i32 (i8*, ...)* @printf(i8* noalias getelementptr inbounds ([31 x i8]* @.str11, i32 0, i32 0), i32 %429) nounwind ; <i32> [#uses=0]
  tail call void @exit(i32 -1) noreturn nounwind
  unreachable

_Z13test_constantIa34custom_multiple_constant_multiply2IaEEvPT_iPKc.exit: ; preds = %bb1.i.i3420, %bb5.i3418
  %results.20 = phi %struct.one_result* [ %433, %bb1.i.i3420 ], [ %results.19, %bb5.i3418 ] ; <%struct.one_result*> [#uses=4]
  %allocated_results.20 = phi i32 [ %429, %bb1.i.i3420 ], [ %allocated_results.19, %bb5.i3418 ] ; <i32> [#uses=3]
  %436 = phi %struct.one_result* [ %433, %bb1.i.i3420 ], [ %results.19, %bb5.i3418 ] ; <%struct.one_result*> [#uses=2]
  %437 = getelementptr inbounds %struct.one_result* %436, i32 21, i32 0 ; <double*> [#uses=1]
  store double %427, double* %437, align 4
  %438 = getelementptr inbounds %struct.one_result* %436, i32 21, i32 1 ; <i8**> [#uses=1]
  store i8* getelementptr inbounds ([35 x i8]* @.str33, i32 0, i32 0), i8** %438, align 4
  %439 = tail call i32 @clock() nounwind          ; <i32> [#uses=1]
  br i1 %257, label %bb.nph6.i3386, label %bb5.i3400

bb.nph6.i3386:                                    ; preds = %_Z13test_constantIa34custom_multiple_constant_multiply2IaEEvPT_iPKc.exit
  %440 = sdiv i8 %8, 5                            ; <i8> [#uses=1]
  %441 = shl i8 %440, 6                           ; <i8> [#uses=1]
  br label %bb2.preheader.us.i3389

bb2.preheader.us.i3389:                           ; preds = %_Z17check_shifted_sumIa22custom_constant_divideIaEEvT_.exit.us.i, %bb.nph6.i3386
  %i.05.us.i3387 = phi i32 [ 0, %bb.nph6.i3386 ], [ %tmp.i3388, %_Z17check_shifted_sumIa22custom_constant_divideIaEEvT_.exit.us.i ] ; <i32> [#uses=1]
  %tmp.i3388 = add i32 %i.05.us.i3387, 1          ; <i32> [#uses=2]
  br label %bb1.us.i3395

_Z17check_shifted_sumIa22custom_constant_divideIaEEvT_.exit.us.i: ; preds = %bb2.bb3_crit_edge.us.i3399, %bb.i1.us.i3390
  %442 = icmp slt i32 %tmp.i3388, %255            ; <i1> [#uses=1]
  br i1 %442, label %bb2.preheader.us.i3389, label %bb5.i3400

bb.i1.us.i3390:                                   ; preds = %bb2.bb3_crit_edge.us.i3399
  %443 = tail call i32 (i8*, ...)* @printf(i8* noalias getelementptr inbounds ([16 x i8]* @.str, i32 0, i32 0), i32 22) nounwind ; <i32> [#uses=0]
  br label %_Z17check_shifted_sumIa22custom_constant_divideIaEEvT_.exit.us.i

bb1.us.i3395:                                     ; preds = %bb1.us.i3395, %bb2.preheader.us.i3389
  %result.03.us.i3391 = phi i8 [ 0, %bb2.preheader.us.i3389 ], [ %446, %bb1.us.i3395 ] ; <i8> [#uses=1]
  %n.02.us.i3392 = phi i32 [ 0, %bb2.preheader.us.i3389 ], [ %447, %bb1.us.i3395 ] ; <i32> [#uses=2]
  %scevgep.i3393 = getelementptr [8000 x i8]* @data8, i32 0, i32 %n.02.us.i3392 ; <i8*> [#uses=1]
  %444 = load i8* %scevgep.i3393, align 1         ; <i8> [#uses=1]
  %445 = sdiv i8 %444, 5                          ; <i8> [#uses=1]
  %446 = add i8 %445, %result.03.us.i3391         ; <i8> [#uses=2]
  %447 = add nsw i32 %n.02.us.i3392, 1            ; <i32> [#uses=2]
  %exitcond.i3394 = icmp eq i32 %447, 8000        ; <i1> [#uses=1]
  br i1 %exitcond.i3394, label %bb2.bb3_crit_edge.us.i3399, label %bb1.us.i3395

bb2.bb3_crit_edge.us.i3399:                       ; preds = %bb1.us.i3395
  %448 = sub i8 %446, %441                        ; <i8> [#uses=2]
  %449 = sext i8 %448 to i32                      ; <i32> [#uses=2]
  %neg.i.i.us.i3396 = sub i32 0, %449             ; <i32> [#uses=1]
  %abscond.i.i.us.i3397 = icmp sgt i8 %448, -1    ; <i1> [#uses=1]
  %abs.i.i.us.i3398 = select i1 %abscond.i.i.us.i3397, i32 %449, i32 %neg.i.i.us.i3396 ; <i32> [#uses=1]
  %450 = icmp slt i32 %abs.i.i.us.i3398, 1        ; <i1> [#uses=1]
  br i1 %450, label %_Z17check_shifted_sumIa22custom_constant_divideIaEEvT_.exit.us.i, label %bb.i1.us.i3390

bb5.i3400:                                        ; preds = %_Z17check_shifted_sumIa22custom_constant_divideIaEEvT_.exit.us.i, %_Z13test_constantIa34custom_multiple_constant_multiply2IaEEvPT_iPKc.exit
  %451 = tail call i32 @clock() nounwind          ; <i32> [#uses=1]
  %452 = sub i32 %451, %439                       ; <i32> [#uses=1]
  %453 = sitofp i32 %452 to double                ; <double> [#uses=1]
  %454 = fdiv double %453, 1.000000e+06           ; <double> [#uses=1]
  %.not3670 = icmp ne %struct.one_result* %results.20, null ; <i1> [#uses=1]
  %455 = icmp sgt i32 %allocated_results.20, 22   ; <i1> [#uses=1]
  %or.cond3671 = and i1 %455, %.not3670           ; <i1> [#uses=1]
  br i1 %or.cond3671, label %_Z13test_constantIa22custom_constant_divideIaEEvPT_iPKc.exit, label %bb1.i.i3402

bb1.i.i3402:                                      ; preds = %bb5.i3400
  %456 = add nsw i32 %allocated_results.20, 10    ; <i32> [#uses=3]
  %457 = mul i32 %456, 12                         ; <i32> [#uses=1]
  %458 = bitcast %struct.one_result* %results.20 to i8* ; <i8*> [#uses=1]
  %459 = tail call i8* @realloc(i8* %458, i32 %457) nounwind ; <i8*> [#uses=2]
  %460 = bitcast i8* %459 to %struct.one_result*  ; <%struct.one_result*> [#uses=2]
  %461 = icmp eq i8* %459, null                   ; <i1> [#uses=1]
  br i1 %461, label %bb2.i.i3403, label %_Z13test_constantIa22custom_constant_divideIaEEvPT_iPKc.exit

bb2.i.i3403:                                      ; preds = %bb1.i.i3402
  %462 = tail call i32 (i8*, ...)* @printf(i8* noalias getelementptr inbounds ([31 x i8]* @.str11, i32 0, i32 0), i32 %456) nounwind ; <i32> [#uses=0]
  tail call void @exit(i32 -1) noreturn nounwind
  unreachable

_Z13test_constantIa22custom_constant_divideIaEEvPT_iPKc.exit: ; preds = %bb1.i.i3402, %bb5.i3400
  %results.21 = phi %struct.one_result* [ %460, %bb1.i.i3402 ], [ %results.20, %bb5.i3400 ] ; <%struct.one_result*> [#uses=4]
  %allocated_results.21 = phi i32 [ %456, %bb1.i.i3402 ], [ %allocated_results.20, %bb5.i3400 ] ; <i32> [#uses=3]
  %463 = phi %struct.one_result* [ %460, %bb1.i.i3402 ], [ %results.20, %bb5.i3400 ] ; <%struct.one_result*> [#uses=2]
  %464 = getelementptr inbounds %struct.one_result* %463, i32 22, i32 0 ; <double*> [#uses=1]
  store double %454, double* %464, align 4
  %465 = getelementptr inbounds %struct.one_result* %463, i32 22, i32 1 ; <i8**> [#uses=1]
  store i8* getelementptr inbounds ([23 x i8]* @.str34, i32 0, i32 0), i8** %465, align 4
  %466 = tail call i32 @clock() nounwind          ; <i32> [#uses=1]
  br i1 %257, label %bb.nph6.i3368, label %bb5.i3382

bb.nph6.i3368:                                    ; preds = %_Z13test_constantIa22custom_constant_divideIaEEvPT_iPKc.exit
  %467 = sdiv i8 %8, 120                          ; <i8> [#uses=1]
  %468 = shl i8 %467, 6                           ; <i8> [#uses=1]
  br label %bb2.preheader.us.i3371

bb2.preheader.us.i3371:                           ; preds = %_Z17check_shifted_sumIa31custom_multiple_constant_divideIaEEvT_.exit.us.i, %bb.nph6.i3368
  %i.05.us.i3369 = phi i32 [ 0, %bb.nph6.i3368 ], [ %tmp.i3370, %_Z17check_shifted_sumIa31custom_multiple_constant_divideIaEEvT_.exit.us.i ] ; <i32> [#uses=1]
  %tmp.i3370 = add i32 %i.05.us.i3369, 1          ; <i32> [#uses=2]
  br label %bb1.us.i3377

_Z17check_shifted_sumIa31custom_multiple_constant_divideIaEEvT_.exit.us.i: ; preds = %bb2.bb3_crit_edge.us.i3381, %bb.i1.us.i3372
  %469 = icmp slt i32 %tmp.i3370, %255            ; <i1> [#uses=1]
  br i1 %469, label %bb2.preheader.us.i3371, label %bb5.i3382

bb.i1.us.i3372:                                   ; preds = %bb2.bb3_crit_edge.us.i3381
  %470 = tail call i32 (i8*, ...)* @printf(i8* noalias getelementptr inbounds ([16 x i8]* @.str, i32 0, i32 0), i32 23) nounwind ; <i32> [#uses=0]
  br label %_Z17check_shifted_sumIa31custom_multiple_constant_divideIaEEvT_.exit.us.i

bb1.us.i3377:                                     ; preds = %bb1.us.i3377, %bb2.preheader.us.i3371
  %result.03.us.i3373 = phi i8 [ 0, %bb2.preheader.us.i3371 ], [ %473, %bb1.us.i3377 ] ; <i8> [#uses=1]
  %n.02.us.i3374 = phi i32 [ 0, %bb2.preheader.us.i3371 ], [ %474, %bb1.us.i3377 ] ; <i32> [#uses=2]
  %scevgep.i3375 = getelementptr [8000 x i8]* @data8, i32 0, i32 %n.02.us.i3374 ; <i8*> [#uses=1]
  %471 = load i8* %scevgep.i3375, align 1         ; <i8> [#uses=1]
  %472 = sdiv i8 %471, 120                        ; <i8> [#uses=1]
  %473 = add i8 %472, %result.03.us.i3373         ; <i8> [#uses=2]
  %474 = add nsw i32 %n.02.us.i3374, 1            ; <i32> [#uses=2]
  %exitcond.i3376 = icmp eq i32 %474, 8000        ; <i1> [#uses=1]
  br i1 %exitcond.i3376, label %bb2.bb3_crit_edge.us.i3381, label %bb1.us.i3377

bb2.bb3_crit_edge.us.i3381:                       ; preds = %bb1.us.i3377
  %475 = sub i8 %473, %468                        ; <i8> [#uses=2]
  %476 = sext i8 %475 to i32                      ; <i32> [#uses=2]
  %neg.i.i.us.i3378 = sub i32 0, %476             ; <i32> [#uses=1]
  %abscond.i.i.us.i3379 = icmp sgt i8 %475, -1    ; <i1> [#uses=1]
  %abs.i.i.us.i3380 = select i1 %abscond.i.i.us.i3379, i32 %476, i32 %neg.i.i.us.i3378 ; <i32> [#uses=1]
  %477 = icmp slt i32 %abs.i.i.us.i3380, 1        ; <i1> [#uses=1]
  br i1 %477, label %_Z17check_shifted_sumIa31custom_multiple_constant_divideIaEEvT_.exit.us.i, label %bb.i1.us.i3372

bb5.i3382:                                        ; preds = %_Z17check_shifted_sumIa31custom_multiple_constant_divideIaEEvT_.exit.us.i, %_Z13test_constantIa22custom_constant_divideIaEEvPT_iPKc.exit
  %478 = tail call i32 @clock() nounwind          ; <i32> [#uses=1]
  %479 = sub i32 %478, %466                       ; <i32> [#uses=1]
  %480 = sitofp i32 %479 to double                ; <double> [#uses=1]
  %481 = fdiv double %480, 1.000000e+06           ; <double> [#uses=1]
  %.not3672 = icmp ne %struct.one_result* %results.21, null ; <i1> [#uses=1]
  %482 = icmp sgt i32 %allocated_results.21, 23   ; <i1> [#uses=1]
  %or.cond3673 = and i1 %482, %.not3672           ; <i1> [#uses=1]
  br i1 %or.cond3673, label %_Z13test_constantIa31custom_multiple_constant_divideIaEEvPT_iPKc.exit, label %bb1.i.i3384

bb1.i.i3384:                                      ; preds = %bb5.i3382
  %483 = add nsw i32 %allocated_results.21, 10    ; <i32> [#uses=3]
  %484 = mul i32 %483, 12                         ; <i32> [#uses=1]
  %485 = bitcast %struct.one_result* %results.21 to i8* ; <i8*> [#uses=1]
  %486 = tail call i8* @realloc(i8* %485, i32 %484) nounwind ; <i8*> [#uses=2]
  %487 = bitcast i8* %486 to %struct.one_result*  ; <%struct.one_result*> [#uses=2]
  %488 = icmp eq i8* %486, null                   ; <i1> [#uses=1]
  br i1 %488, label %bb2.i.i3385, label %_Z13test_constantIa31custom_multiple_constant_divideIaEEvPT_iPKc.exit

bb2.i.i3385:                                      ; preds = %bb1.i.i3384
  %489 = tail call i32 (i8*, ...)* @printf(i8* noalias getelementptr inbounds ([31 x i8]* @.str11, i32 0, i32 0), i32 %483) nounwind ; <i32> [#uses=0]
  tail call void @exit(i32 -1) noreturn nounwind
  unreachable

_Z13test_constantIa31custom_multiple_constant_divideIaEEvPT_iPKc.exit: ; preds = %bb1.i.i3384, %bb5.i3382
  %results.22 = phi %struct.one_result* [ %487, %bb1.i.i3384 ], [ %results.21, %bb5.i3382 ] ; <%struct.one_result*> [#uses=4]
  %allocated_results.22 = phi i32 [ %483, %bb1.i.i3384 ], [ %allocated_results.21, %bb5.i3382 ] ; <i32> [#uses=3]
  %490 = phi %struct.one_result* [ %487, %bb1.i.i3384 ], [ %results.21, %bb5.i3382 ] ; <%struct.one_result*> [#uses=2]
  %491 = getelementptr inbounds %struct.one_result* %490, i32 23, i32 0 ; <double*> [#uses=1]
  store double %481, double* %491, align 4
  %492 = getelementptr inbounds %struct.one_result* %490, i32 23, i32 1 ; <i8**> [#uses=1]
  store i8* getelementptr inbounds ([33 x i8]* @.str35, i32 0, i32 0), i8** %492, align 4
  %493 = tail call i32 @clock() nounwind          ; <i32> [#uses=1]
  br i1 %257, label %bb.nph6.i3350, label %bb5.i3364

bb.nph6.i3350:                                    ; preds = %_Z13test_constantIa31custom_multiple_constant_divideIaEEvPT_iPKc.exit
  %494 = shl i8 %8, 6                             ; <i8> [#uses=1]
  %495 = xor i8 %494, -128                        ; <i8> [#uses=1]
  br label %bb2.preheader.us.i3353

bb2.preheader.us.i3353:                           ; preds = %_Z17check_shifted_sumIa32custom_multiple_constant_divide2IaEEvT_.exit.us.i, %bb.nph6.i3350
  %i.05.us.i3351 = phi i32 [ 0, %bb.nph6.i3350 ], [ %tmp.i3352, %_Z17check_shifted_sumIa32custom_multiple_constant_divide2IaEEvT_.exit.us.i ] ; <i32> [#uses=1]
  %tmp.i3352 = add i32 %i.05.us.i3351, 1          ; <i32> [#uses=2]
  br label %bb1.us.i3359

_Z17check_shifted_sumIa32custom_multiple_constant_divide2IaEEvT_.exit.us.i: ; preds = %bb2.bb3_crit_edge.us.i3363, %bb.i1.us.i3354
  %496 = icmp slt i32 %tmp.i3352, %255            ; <i1> [#uses=1]
  br i1 %496, label %bb2.preheader.us.i3353, label %bb5.i3364

bb.i1.us.i3354:                                   ; preds = %bb2.bb3_crit_edge.us.i3363
  %497 = tail call i32 (i8*, ...)* @printf(i8* noalias getelementptr inbounds ([16 x i8]* @.str, i32 0, i32 0), i32 24) nounwind ; <i32> [#uses=0]
  br label %_Z17check_shifted_sumIa32custom_multiple_constant_divide2IaEEvT_.exit.us.i

bb1.us.i3359:                                     ; preds = %bb1.us.i3359, %bb2.preheader.us.i3353
  %result.03.us.i3355 = phi i8 [ 0, %bb2.preheader.us.i3353 ], [ %500, %bb1.us.i3359 ] ; <i8> [#uses=1]
  %n.02.us.i3356 = phi i32 [ 0, %bb2.preheader.us.i3353 ], [ %501, %bb1.us.i3359 ] ; <i32> [#uses=2]
  %scevgep.i3357 = getelementptr [8000 x i8]* @data8, i32 0, i32 %n.02.us.i3356 ; <i8*> [#uses=1]
  %498 = load i8* %scevgep.i3357, align 1         ; <i8> [#uses=1]
  %499 = add i8 %result.03.us.i3355, 2            ; <i8> [#uses=1]
  %500 = add i8 %499, %498                        ; <i8> [#uses=2]
  %501 = add nsw i32 %n.02.us.i3356, 1            ; <i32> [#uses=2]
  %exitcond.i3358 = icmp eq i32 %501, 8000        ; <i1> [#uses=1]
  br i1 %exitcond.i3358, label %bb2.bb3_crit_edge.us.i3363, label %bb1.us.i3359

bb2.bb3_crit_edge.us.i3363:                       ; preds = %bb1.us.i3359
  %502 = sub i8 %500, %495                        ; <i8> [#uses=2]
  %503 = sext i8 %502 to i32                      ; <i32> [#uses=2]
  %neg.i.i.us.i3360 = sub i32 0, %503             ; <i32> [#uses=1]
  %abscond.i.i.us.i3361 = icmp sgt i8 %502, -1    ; <i1> [#uses=1]
  %abs.i.i.us.i3362 = select i1 %abscond.i.i.us.i3361, i32 %503, i32 %neg.i.i.us.i3360 ; <i32> [#uses=1]
  %504 = icmp slt i32 %abs.i.i.us.i3362, 1        ; <i1> [#uses=1]
  br i1 %504, label %_Z17check_shifted_sumIa32custom_multiple_constant_divide2IaEEvT_.exit.us.i, label %bb.i1.us.i3354

bb5.i3364:                                        ; preds = %_Z17check_shifted_sumIa32custom_multiple_constant_divide2IaEEvT_.exit.us.i, %_Z13test_constantIa31custom_multiple_constant_divideIaEEvPT_iPKc.exit
  %505 = tail call i32 @clock() nounwind          ; <i32> [#uses=1]
  %506 = sub i32 %505, %493                       ; <i32> [#uses=1]
  %507 = sitofp i32 %506 to double                ; <double> [#uses=1]
  %508 = fdiv double %507, 1.000000e+06           ; <double> [#uses=1]
  %.not3674 = icmp ne %struct.one_result* %results.22, null ; <i1> [#uses=1]
  %509 = icmp sgt i32 %allocated_results.22, 24   ; <i1> [#uses=1]
  %or.cond3675 = and i1 %509, %.not3674           ; <i1> [#uses=1]
  br i1 %or.cond3675, label %_Z13test_constantIa32custom_multiple_constant_divide2IaEEvPT_iPKc.exit, label %bb1.i.i3366

bb1.i.i3366:                                      ; preds = %bb5.i3364
  %510 = add nsw i32 %allocated_results.22, 10    ; <i32> [#uses=3]
  %511 = mul i32 %510, 12                         ; <i32> [#uses=1]
  %512 = bitcast %struct.one_result* %results.22 to i8* ; <i8*> [#uses=1]
  %513 = tail call i8* @realloc(i8* %512, i32 %511) nounwind ; <i8*> [#uses=2]
  %514 = bitcast i8* %513 to %struct.one_result*  ; <%struct.one_result*> [#uses=2]
  %515 = icmp eq i8* %513, null                   ; <i1> [#uses=1]
  br i1 %515, label %bb2.i.i3367, label %_Z13test_constantIa32custom_multiple_constant_divide2IaEEvPT_iPKc.exit

bb2.i.i3367:                                      ; preds = %bb1.i.i3366
  %516 = tail call i32 (i8*, ...)* @printf(i8* noalias getelementptr inbounds ([31 x i8]* @.str11, i32 0, i32 0), i32 %510) nounwind ; <i32> [#uses=0]
  tail call void @exit(i32 -1) noreturn nounwind
  unreachable

_Z13test_constantIa32custom_multiple_constant_divide2IaEEvPT_iPKc.exit: ; preds = %bb1.i.i3366, %bb5.i3364
  %results.23 = phi %struct.one_result* [ %514, %bb1.i.i3366 ], [ %results.22, %bb5.i3364 ] ; <%struct.one_result*> [#uses=4]
  %allocated_results.23 = phi i32 [ %510, %bb1.i.i3366 ], [ %allocated_results.22, %bb5.i3364 ] ; <i32> [#uses=3]
  %517 = phi %struct.one_result* [ %514, %bb1.i.i3366 ], [ %results.22, %bb5.i3364 ] ; <%struct.one_result*> [#uses=2]
  %518 = getelementptr inbounds %struct.one_result* %517, i32 24, i32 0 ; <double*> [#uses=1]
  store double %508, double* %518, align 4
  %519 = getelementptr inbounds %struct.one_result* %517, i32 24, i32 1 ; <i8**> [#uses=1]
  store i8* getelementptr inbounds ([33 x i8]* @.str36, i32 0, i32 0), i8** %519, align 4
  %520 = tail call i32 @clock() nounwind          ; <i32> [#uses=1]
  br i1 %257, label %bb.nph6.i3332, label %bb5.i3346

bb.nph6.i3332:                                    ; preds = %_Z13test_constantIa32custom_multiple_constant_divide2IaEEvPT_iPKc.exit
  %521 = shl i8 %8, 6                             ; <i8> [#uses=1]
  br label %bb2.preheader.us.i3335

bb2.preheader.us.i3335:                           ; preds = %_Z17check_shifted_sumIa30custom_multiple_constant_mixedIaEEvT_.exit.us.i, %bb.nph6.i3332
  %i.05.us.i3333 = phi i32 [ 0, %bb.nph6.i3332 ], [ %tmp.i3334, %_Z17check_shifted_sumIa30custom_multiple_constant_mixedIaEEvT_.exit.us.i ] ; <i32> [#uses=1]
  %tmp.i3334 = add i32 %i.05.us.i3333, 1          ; <i32> [#uses=2]
  br label %bb1.us.i3341

_Z17check_shifted_sumIa30custom_multiple_constant_mixedIaEEvT_.exit.us.i: ; preds = %bb2.bb3_crit_edge.us.i3345, %bb.i1.us.i3336
  %522 = icmp slt i32 %tmp.i3334, %255            ; <i1> [#uses=1]
  br i1 %522, label %bb2.preheader.us.i3335, label %bb5.i3346

bb.i1.us.i3336:                                   ; preds = %bb2.bb3_crit_edge.us.i3345
  %523 = tail call i32 (i8*, ...)* @printf(i8* noalias getelementptr inbounds ([16 x i8]* @.str, i32 0, i32 0), i32 25) nounwind ; <i32> [#uses=0]
  br label %_Z17check_shifted_sumIa30custom_multiple_constant_mixedIaEEvT_.exit.us.i

bb1.us.i3341:                                     ; preds = %bb1.us.i3341, %bb2.preheader.us.i3335
  %result.03.us.i3337 = phi i8 [ 0, %bb2.preheader.us.i3335 ], [ %525, %bb1.us.i3341 ] ; <i8> [#uses=1]
  %n.02.us.i3338 = phi i32 [ 0, %bb2.preheader.us.i3335 ], [ %526, %bb1.us.i3341 ] ; <i32> [#uses=2]
  %scevgep.i3339 = getelementptr [8000 x i8]* @data8, i32 0, i32 %n.02.us.i3338 ; <i8*> [#uses=1]
  %524 = load i8* %scevgep.i3339, align 1         ; <i8> [#uses=1]
  %525 = add i8 %524, %result.03.us.i3337         ; <i8> [#uses=2]
  %526 = add nsw i32 %n.02.us.i3338, 1            ; <i32> [#uses=2]
  %exitcond.i3340 = icmp eq i32 %526, 8000        ; <i1> [#uses=1]
  br i1 %exitcond.i3340, label %bb2.bb3_crit_edge.us.i3345, label %bb1.us.i3341

bb2.bb3_crit_edge.us.i3345:                       ; preds = %bb1.us.i3341
  %527 = sub i8 %525, %521                        ; <i8> [#uses=2]
  %528 = sext i8 %527 to i32                      ; <i32> [#uses=2]
  %neg.i.i.us.i3342 = sub i32 0, %528             ; <i32> [#uses=1]
  %abscond.i.i.us.i3343 = icmp sgt i8 %527, -1    ; <i1> [#uses=1]
  %abs.i.i.us.i3344 = select i1 %abscond.i.i.us.i3343, i32 %528, i32 %neg.i.i.us.i3342 ; <i32> [#uses=1]
  %529 = icmp slt i32 %abs.i.i.us.i3344, 1        ; <i1> [#uses=1]
  br i1 %529, label %_Z17check_shifted_sumIa30custom_multiple_constant_mixedIaEEvT_.exit.us.i, label %bb.i1.us.i3336

bb5.i3346:                                        ; preds = %_Z17check_shifted_sumIa30custom_multiple_constant_mixedIaEEvT_.exit.us.i, %_Z13test_constantIa32custom_multiple_constant_divide2IaEEvPT_iPKc.exit
  %530 = tail call i32 @clock() nounwind          ; <i32> [#uses=1]
  %531 = sub i32 %530, %520                       ; <i32> [#uses=1]
  %532 = sitofp i32 %531 to double                ; <double> [#uses=1]
  %533 = fdiv double %532, 1.000000e+06           ; <double> [#uses=1]
  %.not3676 = icmp ne %struct.one_result* %results.23, null ; <i1> [#uses=1]
  %534 = icmp sgt i32 %allocated_results.23, 25   ; <i1> [#uses=1]
  %or.cond3677 = and i1 %534, %.not3676           ; <i1> [#uses=1]
  br i1 %or.cond3677, label %_Z13test_constantIa30custom_multiple_constant_mixedIaEEvPT_iPKc.exit, label %bb1.i.i3348

bb1.i.i3348:                                      ; preds = %bb5.i3346
  %535 = add nsw i32 %allocated_results.23, 10    ; <i32> [#uses=3]
  %536 = mul i32 %535, 12                         ; <i32> [#uses=1]
  %537 = bitcast %struct.one_result* %results.23 to i8* ; <i8*> [#uses=1]
  %538 = tail call i8* @realloc(i8* %537, i32 %536) nounwind ; <i8*> [#uses=2]
  %539 = bitcast i8* %538 to %struct.one_result*  ; <%struct.one_result*> [#uses=2]
  %540 = icmp eq i8* %538, null                   ; <i1> [#uses=1]
  br i1 %540, label %bb2.i.i3349, label %_Z13test_constantIa30custom_multiple_constant_mixedIaEEvPT_iPKc.exit

bb2.i.i3349:                                      ; preds = %bb1.i.i3348
  %541 = tail call i32 (i8*, ...)* @printf(i8* noalias getelementptr inbounds ([31 x i8]* @.str11, i32 0, i32 0), i32 %535) nounwind ; <i32> [#uses=0]
  tail call void @exit(i32 -1) noreturn nounwind
  unreachable

_Z13test_constantIa30custom_multiple_constant_mixedIaEEvPT_iPKc.exit: ; preds = %bb1.i.i3348, %bb5.i3346
  %results.24 = phi %struct.one_result* [ %539, %bb1.i.i3348 ], [ %results.23, %bb5.i3346 ] ; <%struct.one_result*> [#uses=4]
  %allocated_results.24 = phi i32 [ %535, %bb1.i.i3348 ], [ %allocated_results.23, %bb5.i3346 ] ; <i32> [#uses=3]
  %542 = phi %struct.one_result* [ %539, %bb1.i.i3348 ], [ %results.23, %bb5.i3346 ] ; <%struct.one_result*> [#uses=2]
  %543 = getelementptr inbounds %struct.one_result* %542, i32 25, i32 0 ; <double*> [#uses=1]
  store double %533, double* %543, align 4
  %544 = getelementptr inbounds %struct.one_result* %542, i32 25, i32 1 ; <i8**> [#uses=1]
  store i8* getelementptr inbounds ([31 x i8]* @.str37, i32 0, i32 0), i8** %544, align 4
  %545 = tail call i32 @clock() nounwind          ; <i32> [#uses=1]
  br i1 %257, label %bb.nph6.i3314, label %bb5.i3328

bb.nph6.i3314:                                    ; preds = %_Z13test_constantIa30custom_multiple_constant_mixedIaEEvPT_iPKc.exit
  %546 = shl i8 %8, 6                             ; <i8> [#uses=1]
  %547 = and i8 %546, -128                        ; <i8> [#uses=1]
  br label %bb2.preheader.us.i3317

bb2.preheader.us.i3317:                           ; preds = %_Z17check_shifted_sumIa19custom_constant_andIaEEvT_.exit.us.i, %bb.nph6.i3314
  %i.05.us.i3315 = phi i32 [ 0, %bb.nph6.i3314 ], [ %tmp.i3316, %_Z17check_shifted_sumIa19custom_constant_andIaEEvT_.exit.us.i ] ; <i32> [#uses=1]
  %tmp.i3316 = add i32 %i.05.us.i3315, 1          ; <i32> [#uses=2]
  br label %bb1.us.i3323

_Z17check_shifted_sumIa19custom_constant_andIaEEvT_.exit.us.i: ; preds = %bb2.bb3_crit_edge.us.i3327, %bb.i1.us.i3318
  %548 = icmp slt i32 %tmp.i3316, %255            ; <i1> [#uses=1]
  br i1 %548, label %bb2.preheader.us.i3317, label %bb5.i3328

bb.i1.us.i3318:                                   ; preds = %bb2.bb3_crit_edge.us.i3327
  %549 = tail call i32 (i8*, ...)* @printf(i8* noalias getelementptr inbounds ([16 x i8]* @.str, i32 0, i32 0), i32 26) nounwind ; <i32> [#uses=0]
  br label %_Z17check_shifted_sumIa19custom_constant_andIaEEvT_.exit.us.i

bb1.us.i3323:                                     ; preds = %bb1.us.i3323, %bb2.preheader.us.i3317
  %result.03.us.i3319 = phi i8 [ 0, %bb2.preheader.us.i3317 ], [ %552, %bb1.us.i3323 ] ; <i8> [#uses=1]
  %n.02.us.i3320 = phi i32 [ 0, %bb2.preheader.us.i3317 ], [ %553, %bb1.us.i3323 ] ; <i32> [#uses=2]
  %scevgep.i3321 = getelementptr [8000 x i8]* @data8, i32 0, i32 %n.02.us.i3320 ; <i8*> [#uses=1]
  %550 = load i8* %scevgep.i3321, align 1         ; <i8> [#uses=1]
  %551 = and i8 %550, 10                          ; <i8> [#uses=1]
  %552 = add i8 %551, %result.03.us.i3319         ; <i8> [#uses=2]
  %553 = add nsw i32 %n.02.us.i3320, 1            ; <i32> [#uses=2]
  %exitcond.i3322 = icmp eq i32 %553, 8000        ; <i1> [#uses=1]
  br i1 %exitcond.i3322, label %bb2.bb3_crit_edge.us.i3327, label %bb1.us.i3323

bb2.bb3_crit_edge.us.i3327:                       ; preds = %bb1.us.i3323
  %554 = sub i8 %552, %547                        ; <i8> [#uses=2]
  %555 = sext i8 %554 to i32                      ; <i32> [#uses=2]
  %neg.i.i.us.i3324 = sub i32 0, %555             ; <i32> [#uses=1]
  %abscond.i.i.us.i3325 = icmp sgt i8 %554, -1    ; <i1> [#uses=1]
  %abs.i.i.us.i3326 = select i1 %abscond.i.i.us.i3325, i32 %555, i32 %neg.i.i.us.i3324 ; <i32> [#uses=1]
  %556 = icmp slt i32 %abs.i.i.us.i3326, 1        ; <i1> [#uses=1]
  br i1 %556, label %_Z17check_shifted_sumIa19custom_constant_andIaEEvT_.exit.us.i, label %bb.i1.us.i3318

bb5.i3328:                                        ; preds = %_Z17check_shifted_sumIa19custom_constant_andIaEEvT_.exit.us.i, %_Z13test_constantIa30custom_multiple_constant_mixedIaEEvPT_iPKc.exit
  %557 = tail call i32 @clock() nounwind          ; <i32> [#uses=1]
  %558 = sub i32 %557, %545                       ; <i32> [#uses=1]
  %559 = sitofp i32 %558 to double                ; <double> [#uses=1]
  %560 = fdiv double %559, 1.000000e+06           ; <double> [#uses=1]
  %.not3678 = icmp ne %struct.one_result* %results.24, null ; <i1> [#uses=1]
  %561 = icmp sgt i32 %allocated_results.24, 26   ; <i1> [#uses=1]
  %or.cond3679 = and i1 %561, %.not3678           ; <i1> [#uses=1]
  br i1 %or.cond3679, label %_Z13test_constantIa19custom_constant_andIaEEvPT_iPKc.exit, label %bb1.i.i3330

bb1.i.i3330:                                      ; preds = %bb5.i3328
  %562 = add nsw i32 %allocated_results.24, 10    ; <i32> [#uses=3]
  %563 = mul i32 %562, 12                         ; <i32> [#uses=1]
  %564 = bitcast %struct.one_result* %results.24 to i8* ; <i8*> [#uses=1]
  %565 = tail call i8* @realloc(i8* %564, i32 %563) nounwind ; <i8*> [#uses=2]
  %566 = bitcast i8* %565 to %struct.one_result*  ; <%struct.one_result*> [#uses=2]
  %567 = icmp eq i8* %565, null                   ; <i1> [#uses=1]
  br i1 %567, label %bb2.i.i3331, label %_Z13test_constantIa19custom_constant_andIaEEvPT_iPKc.exit

bb2.i.i3331:                                      ; preds = %bb1.i.i3330
  %568 = tail call i32 (i8*, ...)* @printf(i8* noalias getelementptr inbounds ([31 x i8]* @.str11, i32 0, i32 0), i32 %562) nounwind ; <i32> [#uses=0]
  tail call void @exit(i32 -1) noreturn nounwind
  unreachable

_Z13test_constantIa19custom_constant_andIaEEvPT_iPKc.exit: ; preds = %bb1.i.i3330, %bb5.i3328
  %results.25 = phi %struct.one_result* [ %566, %bb1.i.i3330 ], [ %results.24, %bb5.i3328 ] ; <%struct.one_result*> [#uses=4]
  %allocated_results.25 = phi i32 [ %562, %bb1.i.i3330 ], [ %allocated_results.24, %bb5.i3328 ] ; <i32> [#uses=3]
  %569 = phi %struct.one_result* [ %566, %bb1.i.i3330 ], [ %results.24, %bb5.i3328 ] ; <%struct.one_result*> [#uses=2]
  %570 = getelementptr inbounds %struct.one_result* %569, i32 26, i32 0 ; <double*> [#uses=1]
  store double %560, double* %570, align 4
  %571 = getelementptr inbounds %struct.one_result* %569, i32 26, i32 1 ; <i8**> [#uses=1]
  store i8* getelementptr inbounds ([20 x i8]* @.str38, i32 0, i32 0), i8** %571, align 4
  %572 = tail call i32 @clock() nounwind          ; <i32> [#uses=1]
  br i1 %257, label %bb.nph6.i3296, label %bb5.i3310

bb.nph6.i3296:                                    ; preds = %_Z13test_constantIa19custom_constant_andIaEEvPT_iPKc.exit
  %573 = shl i8 %8, 6                             ; <i8> [#uses=1]
  %574 = and i8 %573, -128                        ; <i8> [#uses=1]
  br label %bb2.preheader.us.i3299

bb2.preheader.us.i3299:                           ; preds = %_Z17check_shifted_sumIa28custom_multiple_constant_andIaEEvT_.exit.us.i, %bb.nph6.i3296
  %i.05.us.i3297 = phi i32 [ 0, %bb.nph6.i3296 ], [ %tmp.i3298, %_Z17check_shifted_sumIa28custom_multiple_constant_andIaEEvT_.exit.us.i ] ; <i32> [#uses=1]
  %tmp.i3298 = add i32 %i.05.us.i3297, 1          ; <i32> [#uses=2]
  br label %bb1.us.i3305

_Z17check_shifted_sumIa28custom_multiple_constant_andIaEEvT_.exit.us.i: ; preds = %bb2.bb3_crit_edge.us.i3309, %bb.i1.us.i3300
  %575 = icmp slt i32 %tmp.i3298, %255            ; <i1> [#uses=1]
  br i1 %575, label %bb2.preheader.us.i3299, label %bb5.i3310

bb.i1.us.i3300:                                   ; preds = %bb2.bb3_crit_edge.us.i3309
  %576 = tail call i32 (i8*, ...)* @printf(i8* noalias getelementptr inbounds ([16 x i8]* @.str, i32 0, i32 0), i32 27) nounwind ; <i32> [#uses=0]
  br label %_Z17check_shifted_sumIa28custom_multiple_constant_andIaEEvT_.exit.us.i

bb1.us.i3305:                                     ; preds = %bb1.us.i3305, %bb2.preheader.us.i3299
  %result.03.us.i3301 = phi i8 [ 0, %bb2.preheader.us.i3299 ], [ %579, %bb1.us.i3305 ] ; <i8> [#uses=1]
  %n.02.us.i3302 = phi i32 [ 0, %bb2.preheader.us.i3299 ], [ %580, %bb1.us.i3305 ] ; <i32> [#uses=2]
  %scevgep.i3303 = getelementptr [8000 x i8]* @data8, i32 0, i32 %n.02.us.i3302 ; <i8*> [#uses=1]
  %577 = load i8* %scevgep.i3303, align 1         ; <i8> [#uses=1]
  %578 = and i8 %577, 14                          ; <i8> [#uses=1]
  %579 = add i8 %578, %result.03.us.i3301         ; <i8> [#uses=2]
  %580 = add nsw i32 %n.02.us.i3302, 1            ; <i32> [#uses=2]
  %exitcond.i3304 = icmp eq i32 %580, 8000        ; <i1> [#uses=1]
  br i1 %exitcond.i3304, label %bb2.bb3_crit_edge.us.i3309, label %bb1.us.i3305

bb2.bb3_crit_edge.us.i3309:                       ; preds = %bb1.us.i3305
  %581 = sub i8 %579, %574                        ; <i8> [#uses=2]
  %582 = sext i8 %581 to i32                      ; <i32> [#uses=2]
  %neg.i.i.us.i3306 = sub i32 0, %582             ; <i32> [#uses=1]
  %abscond.i.i.us.i3307 = icmp sgt i8 %581, -1    ; <i1> [#uses=1]
  %abs.i.i.us.i3308 = select i1 %abscond.i.i.us.i3307, i32 %582, i32 %neg.i.i.us.i3306 ; <i32> [#uses=1]
  %583 = icmp slt i32 %abs.i.i.us.i3308, 1        ; <i1> [#uses=1]
  br i1 %583, label %_Z17check_shifted_sumIa28custom_multiple_constant_andIaEEvT_.exit.us.i, label %bb.i1.us.i3300

bb5.i3310:                                        ; preds = %_Z17check_shifted_sumIa28custom_multiple_constant_andIaEEvT_.exit.us.i, %_Z13test_constantIa19custom_constant_andIaEEvPT_iPKc.exit
  %584 = tail call i32 @clock() nounwind          ; <i32> [#uses=1]
  %585 = sub i32 %584, %572                       ; <i32> [#uses=1]
  %586 = sitofp i32 %585 to double                ; <double> [#uses=1]
  %587 = fdiv double %586, 1.000000e+06           ; <double> [#uses=1]
  %.not3680 = icmp ne %struct.one_result* %results.25, null ; <i1> [#uses=1]
  %588 = icmp sgt i32 %allocated_results.25, 27   ; <i1> [#uses=1]
  %or.cond3681 = and i1 %588, %.not3680           ; <i1> [#uses=1]
  br i1 %or.cond3681, label %_Z13test_constantIa28custom_multiple_constant_andIaEEvPT_iPKc.exit, label %bb1.i.i3312

bb1.i.i3312:                                      ; preds = %bb5.i3310
  %589 = add nsw i32 %allocated_results.25, 10    ; <i32> [#uses=3]
  %590 = mul i32 %589, 12                         ; <i32> [#uses=1]
  %591 = bitcast %struct.one_result* %results.25 to i8* ; <i8*> [#uses=1]
  %592 = tail call i8* @realloc(i8* %591, i32 %590) nounwind ; <i8*> [#uses=2]
  %593 = bitcast i8* %592 to %struct.one_result*  ; <%struct.one_result*> [#uses=2]
  %594 = icmp eq i8* %592, null                   ; <i1> [#uses=1]
  br i1 %594, label %bb2.i.i3313, label %_Z13test_constantIa28custom_multiple_constant_andIaEEvPT_iPKc.exit

bb2.i.i3313:                                      ; preds = %bb1.i.i3312
  %595 = tail call i32 (i8*, ...)* @printf(i8* noalias getelementptr inbounds ([31 x i8]* @.str11, i32 0, i32 0), i32 %589) nounwind ; <i32> [#uses=0]
  tail call void @exit(i32 -1) noreturn nounwind
  unreachable

_Z13test_constantIa28custom_multiple_constant_andIaEEvPT_iPKc.exit: ; preds = %bb1.i.i3312, %bb5.i3310
  %results.26 = phi %struct.one_result* [ %593, %bb1.i.i3312 ], [ %results.25, %bb5.i3310 ] ; <%struct.one_result*> [#uses=4]
  %allocated_results.26 = phi i32 [ %589, %bb1.i.i3312 ], [ %allocated_results.25, %bb5.i3310 ] ; <i32> [#uses=3]
  %596 = phi %struct.one_result* [ %593, %bb1.i.i3312 ], [ %results.25, %bb5.i3310 ] ; <%struct.one_result*> [#uses=2]
  %597 = getelementptr inbounds %struct.one_result* %596, i32 27, i32 0 ; <double*> [#uses=1]
  store double %587, double* %597, align 4
  %598 = getelementptr inbounds %struct.one_result* %596, i32 27, i32 1 ; <i8**> [#uses=1]
  store i8* getelementptr inbounds ([29 x i8]* @.str39, i32 0, i32 0), i8** %598, align 4
  %599 = tail call i32 @clock() nounwind          ; <i32> [#uses=1]
  br i1 %257, label %bb.nph6.i3278, label %bb5.i3292

bb.nph6.i3278:                                    ; preds = %_Z13test_constantIa28custom_multiple_constant_andIaEEvPT_iPKc.exit
  %600 = shl i8 %8, 6                             ; <i8> [#uses=1]
  %601 = or i8 %600, -128                         ; <i8> [#uses=1]
  br label %bb2.preheader.us.i3281

bb2.preheader.us.i3281:                           ; preds = %_Z17check_shifted_sumIa18custom_constant_orIaEEvT_.exit.us.i, %bb.nph6.i3278
  %i.05.us.i3279 = phi i32 [ 0, %bb.nph6.i3278 ], [ %tmp.i3280, %_Z17check_shifted_sumIa18custom_constant_orIaEEvT_.exit.us.i ] ; <i32> [#uses=1]
  %tmp.i3280 = add i32 %i.05.us.i3279, 1          ; <i32> [#uses=2]
  br label %bb1.us.i3287

_Z17check_shifted_sumIa18custom_constant_orIaEEvT_.exit.us.i: ; preds = %bb2.bb3_crit_edge.us.i3291, %bb.i1.us.i3282
  %602 = icmp slt i32 %tmp.i3280, %255            ; <i1> [#uses=1]
  br i1 %602, label %bb2.preheader.us.i3281, label %bb5.i3292

bb.i1.us.i3282:                                   ; preds = %bb2.bb3_crit_edge.us.i3291
  %603 = tail call i32 (i8*, ...)* @printf(i8* noalias getelementptr inbounds ([16 x i8]* @.str, i32 0, i32 0), i32 28) nounwind ; <i32> [#uses=0]
  br label %_Z17check_shifted_sumIa18custom_constant_orIaEEvT_.exit.us.i

bb1.us.i3287:                                     ; preds = %bb1.us.i3287, %bb2.preheader.us.i3281
  %result.03.us.i3283 = phi i8 [ 0, %bb2.preheader.us.i3281 ], [ %606, %bb1.us.i3287 ] ; <i8> [#uses=1]
  %n.02.us.i3284 = phi i32 [ 0, %bb2.preheader.us.i3281 ], [ %607, %bb1.us.i3287 ] ; <i32> [#uses=2]
  %scevgep.i3285 = getelementptr [8000 x i8]* @data8, i32 0, i32 %n.02.us.i3284 ; <i8*> [#uses=1]
  %604 = load i8* %scevgep.i3285, align 1         ; <i8> [#uses=1]
  %605 = or i8 %604, 10                           ; <i8> [#uses=1]
  %606 = add i8 %605, %result.03.us.i3283         ; <i8> [#uses=2]
  %607 = add nsw i32 %n.02.us.i3284, 1            ; <i32> [#uses=2]
  %exitcond.i3286 = icmp eq i32 %607, 8000        ; <i1> [#uses=1]
  br i1 %exitcond.i3286, label %bb2.bb3_crit_edge.us.i3291, label %bb1.us.i3287

bb2.bb3_crit_edge.us.i3291:                       ; preds = %bb1.us.i3287
  %608 = sub i8 %606, %601                        ; <i8> [#uses=2]
  %609 = sext i8 %608 to i32                      ; <i32> [#uses=2]
  %neg.i.i.us.i3288 = sub i32 0, %609             ; <i32> [#uses=1]
  %abscond.i.i.us.i3289 = icmp sgt i8 %608, -1    ; <i1> [#uses=1]
  %abs.i.i.us.i3290 = select i1 %abscond.i.i.us.i3289, i32 %609, i32 %neg.i.i.us.i3288 ; <i32> [#uses=1]
  %610 = icmp slt i32 %abs.i.i.us.i3290, 1        ; <i1> [#uses=1]
  br i1 %610, label %_Z17check_shifted_sumIa18custom_constant_orIaEEvT_.exit.us.i, label %bb.i1.us.i3282

bb5.i3292:                                        ; preds = %_Z17check_shifted_sumIa18custom_constant_orIaEEvT_.exit.us.i, %_Z13test_constantIa28custom_multiple_constant_andIaEEvPT_iPKc.exit
  %611 = tail call i32 @clock() nounwind          ; <i32> [#uses=1]
  %612 = sub i32 %611, %599                       ; <i32> [#uses=1]
  %613 = sitofp i32 %612 to double                ; <double> [#uses=1]
  %614 = fdiv double %613, 1.000000e+06           ; <double> [#uses=1]
  %.not3682 = icmp ne %struct.one_result* %results.26, null ; <i1> [#uses=1]
  %615 = icmp sgt i32 %allocated_results.26, 28   ; <i1> [#uses=1]
  %or.cond3683 = and i1 %615, %.not3682           ; <i1> [#uses=1]
  br i1 %or.cond3683, label %_Z13test_constantIa18custom_constant_orIaEEvPT_iPKc.exit, label %bb1.i.i3294

bb1.i.i3294:                                      ; preds = %bb5.i3292
  %616 = add nsw i32 %allocated_results.26, 10    ; <i32> [#uses=3]
  %617 = mul i32 %616, 12                         ; <i32> [#uses=1]
  %618 = bitcast %struct.one_result* %results.26 to i8* ; <i8*> [#uses=1]
  %619 = tail call i8* @realloc(i8* %618, i32 %617) nounwind ; <i8*> [#uses=2]
  %620 = bitcast i8* %619 to %struct.one_result*  ; <%struct.one_result*> [#uses=2]
  %621 = icmp eq i8* %619, null                   ; <i1> [#uses=1]
  br i1 %621, label %bb2.i.i3295, label %_Z13test_constantIa18custom_constant_orIaEEvPT_iPKc.exit

bb2.i.i3295:                                      ; preds = %bb1.i.i3294
  %622 = tail call i32 (i8*, ...)* @printf(i8* noalias getelementptr inbounds ([31 x i8]* @.str11, i32 0, i32 0), i32 %616) nounwind ; <i32> [#uses=0]
  tail call void @exit(i32 -1) noreturn nounwind
  unreachable

_Z13test_constantIa18custom_constant_orIaEEvPT_iPKc.exit: ; preds = %bb1.i.i3294, %bb5.i3292
  %results.27 = phi %struct.one_result* [ %620, %bb1.i.i3294 ], [ %results.26, %bb5.i3292 ] ; <%struct.one_result*> [#uses=4]
  %allocated_results.27 = phi i32 [ %616, %bb1.i.i3294 ], [ %allocated_results.26, %bb5.i3292 ] ; <i32> [#uses=3]
  %623 = phi %struct.one_result* [ %620, %bb1.i.i3294 ], [ %results.26, %bb5.i3292 ] ; <%struct.one_result*> [#uses=2]
  %624 = getelementptr inbounds %struct.one_result* %623, i32 28, i32 0 ; <double*> [#uses=1]
  store double %614, double* %624, align 4
  %625 = getelementptr inbounds %struct.one_result* %623, i32 28, i32 1 ; <i8**> [#uses=1]
  store i8* getelementptr inbounds ([19 x i8]* @.str40, i32 0, i32 0), i8** %625, align 4
  %626 = tail call i32 @clock() nounwind          ; <i32> [#uses=1]
  br i1 %257, label %bb2.preheader.us.i3262, label %bb5.i3274

bb2.preheader.us.i3262:                           ; preds = %_Z17check_shifted_sumIa27custom_multiple_constant_orIaEEvT_.exit.us.i, %_Z13test_constantIa18custom_constant_orIaEEvPT_iPKc.exit
  %i.05.us.i3260 = phi i32 [ %tmp.i3261, %_Z17check_shifted_sumIa27custom_multiple_constant_orIaEEvT_.exit.us.i ], [ 0, %_Z13test_constantIa18custom_constant_orIaEEvPT_iPKc.exit ] ; <i32> [#uses=1]
  %tmp.i3261 = add i32 %i.05.us.i3260, 1          ; <i32> [#uses=2]
  br label %bb1.us.i3268

_Z17check_shifted_sumIa27custom_multiple_constant_orIaEEvT_.exit.us.i: ; preds = %bb2.bb3_crit_edge.us.i3273, %bb.i1.us.i3263
  %627 = icmp slt i32 %tmp.i3261, %255            ; <i1> [#uses=1]
  br i1 %627, label %bb2.preheader.us.i3262, label %bb5.i3274

bb.i1.us.i3263:                                   ; preds = %bb2.bb3_crit_edge.us.i3273
  %628 = tail call i32 (i8*, ...)* @printf(i8* noalias getelementptr inbounds ([16 x i8]* @.str, i32 0, i32 0), i32 29) nounwind ; <i32> [#uses=0]
  br label %_Z17check_shifted_sumIa27custom_multiple_constant_orIaEEvT_.exit.us.i

bb1.us.i3268:                                     ; preds = %bb1.us.i3268, %bb2.preheader.us.i3262
  %result.03.us.i3264 = phi i8 [ 0, %bb2.preheader.us.i3262 ], [ %631, %bb1.us.i3268 ] ; <i8> [#uses=1]
  %n.02.us.i3265 = phi i32 [ 0, %bb2.preheader.us.i3262 ], [ %632, %bb1.us.i3268 ] ; <i32> [#uses=2]
  %scevgep.i3266 = getelementptr [8000 x i8]* @data8, i32 0, i32 %n.02.us.i3265 ; <i8*> [#uses=1]
  %629 = load i8* %scevgep.i3266, align 1         ; <i8> [#uses=1]
  %630 = or i8 %629, 63                           ; <i8> [#uses=1]
  %631 = add i8 %630, %result.03.us.i3264         ; <i8> [#uses=2]
  %632 = add nsw i32 %n.02.us.i3265, 1            ; <i32> [#uses=2]
  %exitcond.i3267 = icmp eq i32 %632, 8000        ; <i1> [#uses=1]
  br i1 %exitcond.i3267, label %bb2.bb3_crit_edge.us.i3273, label %bb1.us.i3268

bb2.bb3_crit_edge.us.i3273:                       ; preds = %bb1.us.i3268
  %phitmp.i3269 = add i8 %631, 64                 ; <i8> [#uses=2]
  %633 = sext i8 %phitmp.i3269 to i32             ; <i32> [#uses=2]
  %neg.i.i.us.i3270 = sub i32 0, %633             ; <i32> [#uses=1]
  %abscond.i.i.us.i3271 = icmp sgt i8 %phitmp.i3269, -1 ; <i1> [#uses=1]
  %abs.i.i.us.i3272 = select i1 %abscond.i.i.us.i3271, i32 %633, i32 %neg.i.i.us.i3270 ; <i32> [#uses=1]
  %634 = icmp slt i32 %abs.i.i.us.i3272, 1        ; <i1> [#uses=1]
  br i1 %634, label %_Z17check_shifted_sumIa27custom_multiple_constant_orIaEEvT_.exit.us.i, label %bb.i1.us.i3263

bb5.i3274:                                        ; preds = %_Z17check_shifted_sumIa27custom_multiple_constant_orIaEEvT_.exit.us.i, %_Z13test_constantIa18custom_constant_orIaEEvPT_iPKc.exit
  %635 = tail call i32 @clock() nounwind          ; <i32> [#uses=1]
  %636 = sub i32 %635, %626                       ; <i32> [#uses=1]
  %637 = sitofp i32 %636 to double                ; <double> [#uses=1]
  %638 = fdiv double %637, 1.000000e+06           ; <double> [#uses=1]
  %.not3684 = icmp ne %struct.one_result* %results.27, null ; <i1> [#uses=1]
  %639 = icmp sgt i32 %allocated_results.27, 29   ; <i1> [#uses=1]
  %or.cond3685 = and i1 %639, %.not3684           ; <i1> [#uses=1]
  br i1 %or.cond3685, label %_Z13test_constantIa27custom_multiple_constant_orIaEEvPT_iPKc.exit, label %bb1.i.i3276

bb1.i.i3276:                                      ; preds = %bb5.i3274
  %640 = add nsw i32 %allocated_results.27, 10    ; <i32> [#uses=3]
  %641 = mul i32 %640, 12                         ; <i32> [#uses=1]
  %642 = bitcast %struct.one_result* %results.27 to i8* ; <i8*> [#uses=1]
  %643 = tail call i8* @realloc(i8* %642, i32 %641) nounwind ; <i8*> [#uses=2]
  %644 = bitcast i8* %643 to %struct.one_result*  ; <%struct.one_result*> [#uses=2]
  %645 = icmp eq i8* %643, null                   ; <i1> [#uses=1]
  br i1 %645, label %bb2.i.i3277, label %_Z13test_constantIa27custom_multiple_constant_orIaEEvPT_iPKc.exit

bb2.i.i3277:                                      ; preds = %bb1.i.i3276
  %646 = tail call i32 (i8*, ...)* @printf(i8* noalias getelementptr inbounds ([31 x i8]* @.str11, i32 0, i32 0), i32 %640) nounwind ; <i32> [#uses=0]
  tail call void @exit(i32 -1) noreturn nounwind
  unreachable

_Z13test_constantIa27custom_multiple_constant_orIaEEvPT_iPKc.exit: ; preds = %bb1.i.i3276, %bb5.i3274
  %results.28 = phi %struct.one_result* [ %644, %bb1.i.i3276 ], [ %results.27, %bb5.i3274 ] ; <%struct.one_result*> [#uses=4]
  %allocated_results.28 = phi i32 [ %640, %bb1.i.i3276 ], [ %allocated_results.27, %bb5.i3274 ] ; <i32> [#uses=3]
  %647 = phi %struct.one_result* [ %644, %bb1.i.i3276 ], [ %results.27, %bb5.i3274 ] ; <%struct.one_result*> [#uses=2]
  %648 = getelementptr inbounds %struct.one_result* %647, i32 29, i32 0 ; <double*> [#uses=1]
  store double %638, double* %648, align 4
  %649 = getelementptr inbounds %struct.one_result* %647, i32 29, i32 1 ; <i8**> [#uses=1]
  store i8* getelementptr inbounds ([28 x i8]* @.str41, i32 0, i32 0), i8** %649, align 4
  %650 = tail call i32 @clock() nounwind          ; <i32> [#uses=1]
  br i1 %257, label %bb.nph6.i3241, label %bb5.i3255

bb.nph6.i3241:                                    ; preds = %_Z13test_constantIa27custom_multiple_constant_orIaEEvPT_iPKc.exit
  %651 = shl i8 %8, 6                             ; <i8> [#uses=1]
  %652 = xor i8 %651, -128                        ; <i8> [#uses=1]
  br label %bb2.preheader.us.i3244

bb2.preheader.us.i3244:                           ; preds = %_Z17check_shifted_sumIa19custom_constant_xorIaEEvT_.exit.us.i, %bb.nph6.i3241
  %i.05.us.i3242 = phi i32 [ 0, %bb.nph6.i3241 ], [ %tmp.i3243, %_Z17check_shifted_sumIa19custom_constant_xorIaEEvT_.exit.us.i ] ; <i32> [#uses=1]
  %tmp.i3243 = add i32 %i.05.us.i3242, 1          ; <i32> [#uses=2]
  br label %bb1.us.i3250

_Z17check_shifted_sumIa19custom_constant_xorIaEEvT_.exit.us.i: ; preds = %bb2.bb3_crit_edge.us.i3254, %bb.i1.us.i3245
  %653 = icmp slt i32 %tmp.i3243, %255            ; <i1> [#uses=1]
  br i1 %653, label %bb2.preheader.us.i3244, label %bb5.i3255

bb.i1.us.i3245:                                   ; preds = %bb2.bb3_crit_edge.us.i3254
  %654 = tail call i32 (i8*, ...)* @printf(i8* noalias getelementptr inbounds ([16 x i8]* @.str, i32 0, i32 0), i32 30) nounwind ; <i32> [#uses=0]
  br label %_Z17check_shifted_sumIa19custom_constant_xorIaEEvT_.exit.us.i

bb1.us.i3250:                                     ; preds = %bb1.us.i3250, %bb2.preheader.us.i3244
  %result.03.us.i3246 = phi i8 [ 0, %bb2.preheader.us.i3244 ], [ %657, %bb1.us.i3250 ] ; <i8> [#uses=1]
  %n.02.us.i3247 = phi i32 [ 0, %bb2.preheader.us.i3244 ], [ %658, %bb1.us.i3250 ] ; <i32> [#uses=2]
  %scevgep.i3248 = getelementptr [8000 x i8]* @data8, i32 0, i32 %n.02.us.i3247 ; <i8*> [#uses=1]
  %655 = load i8* %scevgep.i3248, align 1         ; <i8> [#uses=1]
  %656 = xor i8 %655, 10                          ; <i8> [#uses=1]
  %657 = add i8 %656, %result.03.us.i3246         ; <i8> [#uses=2]
  %658 = add nsw i32 %n.02.us.i3247, 1            ; <i32> [#uses=2]
  %exitcond.i3249 = icmp eq i32 %658, 8000        ; <i1> [#uses=1]
  br i1 %exitcond.i3249, label %bb2.bb3_crit_edge.us.i3254, label %bb1.us.i3250

bb2.bb3_crit_edge.us.i3254:                       ; preds = %bb1.us.i3250
  %659 = sub i8 %657, %652                        ; <i8> [#uses=2]
  %660 = sext i8 %659 to i32                      ; <i32> [#uses=2]
  %neg.i.i.us.i3251 = sub i32 0, %660             ; <i32> [#uses=1]
  %abscond.i.i.us.i3252 = icmp sgt i8 %659, -1    ; <i1> [#uses=1]
  %abs.i.i.us.i3253 = select i1 %abscond.i.i.us.i3252, i32 %660, i32 %neg.i.i.us.i3251 ; <i32> [#uses=1]
  %661 = icmp slt i32 %abs.i.i.us.i3253, 1        ; <i1> [#uses=1]
  br i1 %661, label %_Z17check_shifted_sumIa19custom_constant_xorIaEEvT_.exit.us.i, label %bb.i1.us.i3245

bb5.i3255:                                        ; preds = %_Z17check_shifted_sumIa19custom_constant_xorIaEEvT_.exit.us.i, %_Z13test_constantIa27custom_multiple_constant_orIaEEvPT_iPKc.exit
  %662 = tail call i32 @clock() nounwind          ; <i32> [#uses=1]
  %663 = sub i32 %662, %650                       ; <i32> [#uses=1]
  %664 = sitofp i32 %663 to double                ; <double> [#uses=1]
  %665 = fdiv double %664, 1.000000e+06           ; <double> [#uses=1]
  %.not3686 = icmp ne %struct.one_result* %results.28, null ; <i1> [#uses=1]
  %666 = icmp sgt i32 %allocated_results.28, 30   ; <i1> [#uses=1]
  %or.cond3687 = and i1 %666, %.not3686           ; <i1> [#uses=1]
  br i1 %or.cond3687, label %_Z13test_constantIa19custom_constant_xorIaEEvPT_iPKc.exit, label %bb1.i.i3257

bb1.i.i3257:                                      ; preds = %bb5.i3255
  %667 = add nsw i32 %allocated_results.28, 10    ; <i32> [#uses=3]
  %668 = mul i32 %667, 12                         ; <i32> [#uses=1]
  %669 = bitcast %struct.one_result* %results.28 to i8* ; <i8*> [#uses=1]
  %670 = tail call i8* @realloc(i8* %669, i32 %668) nounwind ; <i8*> [#uses=2]
  %671 = bitcast i8* %670 to %struct.one_result*  ; <%struct.one_result*> [#uses=2]
  %672 = icmp eq i8* %670, null                   ; <i1> [#uses=1]
  br i1 %672, label %bb2.i.i3258, label %_Z13test_constantIa19custom_constant_xorIaEEvPT_iPKc.exit

bb2.i.i3258:                                      ; preds = %bb1.i.i3257
  %673 = tail call i32 (i8*, ...)* @printf(i8* noalias getelementptr inbounds ([31 x i8]* @.str11, i32 0, i32 0), i32 %667) nounwind ; <i32> [#uses=0]
  tail call void @exit(i32 -1) noreturn nounwind
  unreachable

_Z13test_constantIa19custom_constant_xorIaEEvPT_iPKc.exit: ; preds = %bb1.i.i3257, %bb5.i3255
  %results.29 = phi %struct.one_result* [ %671, %bb1.i.i3257 ], [ %results.28, %bb5.i3255 ] ; <%struct.one_result*> [#uses=4]
  %allocated_results.29 = phi i32 [ %667, %bb1.i.i3257 ], [ %allocated_results.28, %bb5.i3255 ] ; <i32> [#uses=3]
  %674 = phi %struct.one_result* [ %671, %bb1.i.i3257 ], [ %results.28, %bb5.i3255 ] ; <%struct.one_result*> [#uses=2]
  %675 = getelementptr inbounds %struct.one_result* %674, i32 30, i32 0 ; <double*> [#uses=1]
  store double %665, double* %675, align 4
  %676 = getelementptr inbounds %struct.one_result* %674, i32 30, i32 1 ; <i8**> [#uses=1]
  store i8* getelementptr inbounds ([20 x i8]* @.str42, i32 0, i32 0), i8** %676, align 4
  %677 = tail call i32 @clock() nounwind          ; <i32> [#uses=1]
  br i1 %257, label %bb.nph6.i3223, label %bb5.i3237

bb.nph6.i3223:                                    ; preds = %_Z13test_constantIa19custom_constant_xorIaEEvPT_iPKc.exit
  %678 = shl i8 %8, 6                             ; <i8> [#uses=1]
  %679 = xor i8 %678, 64                          ; <i8> [#uses=1]
  br label %bb2.preheader.us.i3226

bb2.preheader.us.i3226:                           ; preds = %_Z17check_shifted_sumIa28custom_multiple_constant_xorIaEEvT_.exit.us.i, %bb.nph6.i3223
  %i.05.us.i3224 = phi i32 [ 0, %bb.nph6.i3223 ], [ %tmp.i3225, %_Z17check_shifted_sumIa28custom_multiple_constant_xorIaEEvT_.exit.us.i ] ; <i32> [#uses=1]
  %tmp.i3225 = add i32 %i.05.us.i3224, 1          ; <i32> [#uses=2]
  br label %bb1.us.i3232

_Z17check_shifted_sumIa28custom_multiple_constant_xorIaEEvT_.exit.us.i: ; preds = %bb2.bb3_crit_edge.us.i3236, %bb.i1.us.i3227
  %680 = icmp slt i32 %tmp.i3225, %255            ; <i1> [#uses=1]
  br i1 %680, label %bb2.preheader.us.i3226, label %bb5.i3237

bb.i1.us.i3227:                                   ; preds = %bb2.bb3_crit_edge.us.i3236
  %681 = tail call i32 (i8*, ...)* @printf(i8* noalias getelementptr inbounds ([16 x i8]* @.str, i32 0, i32 0), i32 31) nounwind ; <i32> [#uses=0]
  br label %_Z17check_shifted_sumIa28custom_multiple_constant_xorIaEEvT_.exit.us.i

bb1.us.i3232:                                     ; preds = %bb1.us.i3232, %bb2.preheader.us.i3226
  %result.03.us.i3228 = phi i8 [ 0, %bb2.preheader.us.i3226 ], [ %684, %bb1.us.i3232 ] ; <i8> [#uses=1]
  %n.02.us.i3229 = phi i32 [ 0, %bb2.preheader.us.i3226 ], [ %685, %bb1.us.i3232 ] ; <i32> [#uses=2]
  %scevgep.i3230 = getelementptr [8000 x i8]* @data8, i32 0, i32 %n.02.us.i3229 ; <i8*> [#uses=1]
  %682 = load i8* %scevgep.i3230, align 1         ; <i8> [#uses=1]
  %683 = xor i8 %682, 49                          ; <i8> [#uses=1]
  %684 = add i8 %683, %result.03.us.i3228         ; <i8> [#uses=2]
  %685 = add nsw i32 %n.02.us.i3229, 1            ; <i32> [#uses=2]
  %exitcond.i3231 = icmp eq i32 %685, 8000        ; <i1> [#uses=1]
  br i1 %exitcond.i3231, label %bb2.bb3_crit_edge.us.i3236, label %bb1.us.i3232

bb2.bb3_crit_edge.us.i3236:                       ; preds = %bb1.us.i3232
  %686 = sub i8 %684, %679                        ; <i8> [#uses=2]
  %687 = sext i8 %686 to i32                      ; <i32> [#uses=2]
  %neg.i.i.us.i3233 = sub i32 0, %687             ; <i32> [#uses=1]
  %abscond.i.i.us.i3234 = icmp sgt i8 %686, -1    ; <i1> [#uses=1]
  %abs.i.i.us.i3235 = select i1 %abscond.i.i.us.i3234, i32 %687, i32 %neg.i.i.us.i3233 ; <i32> [#uses=1]
  %688 = icmp slt i32 %abs.i.i.us.i3235, 1        ; <i1> [#uses=1]
  br i1 %688, label %_Z17check_shifted_sumIa28custom_multiple_constant_xorIaEEvT_.exit.us.i, label %bb.i1.us.i3227

bb5.i3237:                                        ; preds = %_Z17check_shifted_sumIa28custom_multiple_constant_xorIaEEvT_.exit.us.i, %_Z13test_constantIa19custom_constant_xorIaEEvPT_iPKc.exit
  %689 = tail call i32 @clock() nounwind          ; <i32> [#uses=1]
  %690 = sub i32 %689, %677                       ; <i32> [#uses=1]
  %691 = sitofp i32 %690 to double                ; <double> [#uses=1]
  %692 = fdiv double %691, 1.000000e+06           ; <double> [#uses=1]
  %.not3688 = icmp ne %struct.one_result* %results.29, null ; <i1> [#uses=1]
  %693 = icmp sgt i32 %allocated_results.29, 31   ; <i1> [#uses=1]
  %or.cond3689 = and i1 %693, %.not3688           ; <i1> [#uses=1]
  br i1 %or.cond3689, label %_Z13test_constantIa28custom_multiple_constant_xorIaEEvPT_iPKc.exit, label %bb1.i.i3239

bb1.i.i3239:                                      ; preds = %bb5.i3237
  %694 = add nsw i32 %allocated_results.29, 10    ; <i32> [#uses=3]
  %695 = mul i32 %694, 12                         ; <i32> [#uses=1]
  %696 = bitcast %struct.one_result* %results.29 to i8* ; <i8*> [#uses=1]
  %697 = tail call i8* @realloc(i8* %696, i32 %695) nounwind ; <i8*> [#uses=2]
  %698 = bitcast i8* %697 to %struct.one_result*  ; <%struct.one_result*> [#uses=2]
  %699 = icmp eq i8* %697, null                   ; <i1> [#uses=1]
  br i1 %699, label %bb2.i.i3240, label %_Z13test_constantIa28custom_multiple_constant_xorIaEEvPT_iPKc.exit

bb2.i.i3240:                                      ; preds = %bb1.i.i3239
  %700 = tail call i32 (i8*, ...)* @printf(i8* noalias getelementptr inbounds ([31 x i8]* @.str11, i32 0, i32 0), i32 %694) nounwind ; <i32> [#uses=0]
  tail call void @exit(i32 -1) noreturn nounwind
  unreachable

_Z13test_constantIa28custom_multiple_constant_xorIaEEvPT_iPKc.exit: ; preds = %bb1.i.i3239, %bb5.i3237
  %results.30 = phi %struct.one_result* [ %698, %bb1.i.i3239 ], [ %results.29, %bb5.i3237 ] ; <%struct.one_result*> [#uses=4]
  %allocated_results.30 = phi i32 [ %694, %bb1.i.i3239 ], [ %allocated_results.29, %bb5.i3237 ] ; <i32> [#uses=3]
  %701 = phi %struct.one_result* [ %698, %bb1.i.i3239 ], [ %results.29, %bb5.i3237 ] ; <%struct.one_result*> [#uses=2]
  %702 = getelementptr inbounds %struct.one_result* %701, i32 31, i32 0 ; <double*> [#uses=1]
  store double %692, double* %702, align 4
  %703 = getelementptr inbounds %struct.one_result* %701, i32 31, i32 1 ; <i8**> [#uses=1]
  store i8* getelementptr inbounds ([29 x i8]* @.str43, i32 0, i32 0), i8** %703, align 4
  %704 = fptoui double %init_value.0 to i8        ; <i8> [#uses=15]
  br label %bb.i5

bb.i5:                                            ; preds = %bb.i5, %_Z13test_constantIa28custom_multiple_constant_xorIaEEvPT_iPKc.exit
  %indvar.i1 = phi i32 [ 0, %_Z13test_constantIa28custom_multiple_constant_xorIaEEvPT_iPKc.exit ], [ %indvar.next.i3, %bb.i5 ] ; <i32> [#uses=2]
  %first_addr.01.i2 = getelementptr [8000 x i8]* @data8unsigned, i32 0, i32 %indvar.i1 ; <i8*> [#uses=1]
  store i8 %704, i8* %first_addr.01.i2, align 1
  %indvar.next.i3 = add i32 %indvar.i1, 1         ; <i32> [#uses=2]
  %exitcond = icmp eq i32 %indvar.next.i3, ptrtoint (i8* getelementptr ([8000 x i8]* @data8unsigned, i32 1, i32 sub (i32 0, i32 ptrtoint ([8000 x i8]* @data8unsigned to i32))) to i32) ; <i1> [#uses=1]
  br i1 %exitcond, label %_Z4fillIPhhEvT_S1_T0_.exit, label %bb.i5

_Z4fillIPhhEvT_S1_T0_.exit:                       ; preds = %bb.i5
  %705 = tail call i32 @clock() nounwind          ; <i32> [#uses=1]
  br i1 %10, label %bb2.preheader.us.i3218, label %bb5.i3219

bb2.preheader.us.i3218:                           ; preds = %bb2.preheader.us.i3218, %_Z4fillIPhhEvT_S1_T0_.exit
  %i.05.us.i3216 = phi i32 [ %tmp10.i3217, %bb2.preheader.us.i3218 ], [ 0, %_Z4fillIPhhEvT_S1_T0_.exit ] ; <i32> [#uses=1]
  %tmp10.i3217 = add i32 %i.05.us.i3216, 1        ; <i32> [#uses=2]
  %706 = icmp slt i32 %tmp10.i3217, %base_iterations.0 ; <i1> [#uses=1]
  br i1 %706, label %bb2.preheader.us.i3218, label %bb5.i3219

bb5.i3219:                                        ; preds = %bb2.preheader.us.i3218, %_Z4fillIPhhEvT_S1_T0_.exit
  %707 = tail call i32 @clock() nounwind          ; <i32> [#uses=1]
  %708 = sub i32 %707, %705                       ; <i32> [#uses=1]
  %709 = sitofp i32 %708 to double                ; <double> [#uses=1]
  %710 = fdiv double %709, 1.000000e+06           ; <double> [#uses=1]
  %.not3690 = icmp ne %struct.one_result* %results.30, null ; <i1> [#uses=1]
  %711 = icmp sgt i32 %allocated_results.30, 32   ; <i1> [#uses=1]
  %or.cond3691 = and i1 %711, %.not3690           ; <i1> [#uses=1]
  br i1 %or.cond3691, label %_Z13test_constantIh10custom_twoIhEEvPT_iPKc.exit, label %bb1.i.i3221

bb1.i.i3221:                                      ; preds = %bb5.i3219
  %712 = add nsw i32 %allocated_results.30, 10    ; <i32> [#uses=3]
  %713 = mul i32 %712, 12                         ; <i32> [#uses=1]
  %714 = bitcast %struct.one_result* %results.30 to i8* ; <i8*> [#uses=1]
  %715 = tail call i8* @realloc(i8* %714, i32 %713) nounwind ; <i8*> [#uses=2]
  %716 = bitcast i8* %715 to %struct.one_result*  ; <%struct.one_result*> [#uses=2]
  %717 = icmp eq i8* %715, null                   ; <i1> [#uses=1]
  br i1 %717, label %bb2.i.i3222, label %_Z13test_constantIh10custom_twoIhEEvPT_iPKc.exit

bb2.i.i3222:                                      ; preds = %bb1.i.i3221
  %718 = tail call i32 (i8*, ...)* @printf(i8* noalias getelementptr inbounds ([31 x i8]* @.str11, i32 0, i32 0), i32 %712) nounwind ; <i32> [#uses=0]
  tail call void @exit(i32 -1) noreturn nounwind
  unreachable

_Z13test_constantIh10custom_twoIhEEvPT_iPKc.exit: ; preds = %bb1.i.i3221, %bb5.i3219
  %results.31 = phi %struct.one_result* [ %716, %bb1.i.i3221 ], [ %results.30, %bb5.i3219 ] ; <%struct.one_result*> [#uses=4]
  %allocated_results.31 = phi i32 [ %712, %bb1.i.i3221 ], [ %allocated_results.30, %bb5.i3219 ] ; <i32> [#uses=3]
  %719 = phi %struct.one_result* [ %716, %bb1.i.i3221 ], [ %results.30, %bb5.i3219 ] ; <%struct.one_result*> [#uses=2]
  %720 = getelementptr inbounds %struct.one_result* %719, i32 32, i32 0 ; <double*> [#uses=1]
  store double %710, double* %720, align 4
  %721 = getelementptr inbounds %struct.one_result* %719, i32 32, i32 1 ; <i8**> [#uses=1]
  store i8* getelementptr inbounds ([17 x i8]* @.str44, i32 0, i32 0), i8** %721, align 4
  %722 = tail call i32 @clock() nounwind          ; <i32> [#uses=1]
  br i1 %10, label %bb2.preheader.us.i3210, label %bb5.i3211

bb2.preheader.us.i3210:                           ; preds = %bb2.preheader.us.i3210, %_Z13test_constantIh10custom_twoIhEEvPT_iPKc.exit
  %i.05.us.i3208 = phi i32 [ %tmp10.i3209, %bb2.preheader.us.i3210 ], [ 0, %_Z13test_constantIh10custom_twoIhEEvPT_iPKc.exit ] ; <i32> [#uses=1]
  %tmp10.i3209 = add i32 %i.05.us.i3208, 1        ; <i32> [#uses=2]
  %723 = icmp slt i32 %tmp10.i3209, %base_iterations.0 ; <i1> [#uses=1]
  br i1 %723, label %bb2.preheader.us.i3210, label %bb5.i3211

bb5.i3211:                                        ; preds = %bb2.preheader.us.i3210, %_Z13test_constantIh10custom_twoIhEEvPT_iPKc.exit
  %724 = tail call i32 @clock() nounwind          ; <i32> [#uses=1]
  %725 = sub i32 %724, %722                       ; <i32> [#uses=1]
  %726 = sitofp i32 %725 to double                ; <double> [#uses=1]
  %727 = fdiv double %726, 1.000000e+06           ; <double> [#uses=1]
  %.not3692 = icmp ne %struct.one_result* %results.31, null ; <i1> [#uses=1]
  %728 = icmp sgt i32 %allocated_results.31, 33   ; <i1> [#uses=1]
  %or.cond3693 = and i1 %728, %.not3692           ; <i1> [#uses=1]
  br i1 %or.cond3693, label %_Z13test_constantIh20custom_add_constantsIhEEvPT_iPKc.exit, label %bb1.i.i3213

bb1.i.i3213:                                      ; preds = %bb5.i3211
  %729 = add nsw i32 %allocated_results.31, 10    ; <i32> [#uses=3]
  %730 = mul i32 %729, 12                         ; <i32> [#uses=1]
  %731 = bitcast %struct.one_result* %results.31 to i8* ; <i8*> [#uses=1]
  %732 = tail call i8* @realloc(i8* %731, i32 %730) nounwind ; <i8*> [#uses=2]
  %733 = bitcast i8* %732 to %struct.one_result*  ; <%struct.one_result*> [#uses=2]
  %734 = icmp eq i8* %732, null                   ; <i1> [#uses=1]
  br i1 %734, label %bb2.i.i3214, label %_Z13test_constantIh20custom_add_constantsIhEEvPT_iPKc.exit

bb2.i.i3214:                                      ; preds = %bb1.i.i3213
  %735 = tail call i32 (i8*, ...)* @printf(i8* noalias getelementptr inbounds ([31 x i8]* @.str11, i32 0, i32 0), i32 %729) nounwind ; <i32> [#uses=0]
  tail call void @exit(i32 -1) noreturn nounwind
  unreachable

_Z13test_constantIh20custom_add_constantsIhEEvPT_iPKc.exit: ; preds = %bb1.i.i3213, %bb5.i3211
  %results.32 = phi %struct.one_result* [ %733, %bb1.i.i3213 ], [ %results.31, %bb5.i3211 ] ; <%struct.one_result*> [#uses=4]
  %allocated_results.32 = phi i32 [ %729, %bb1.i.i3213 ], [ %allocated_results.31, %bb5.i3211 ] ; <i32> [#uses=3]
  %736 = phi %struct.one_result* [ %733, %bb1.i.i3213 ], [ %results.31, %bb5.i3211 ] ; <%struct.one_result*> [#uses=2]
  %737 = getelementptr inbounds %struct.one_result* %736, i32 33, i32 0 ; <double*> [#uses=1]
  store double %727, double* %737, align 4
  %738 = getelementptr inbounds %struct.one_result* %736, i32 33, i32 1 ; <i8**> [#uses=1]
  store i8* getelementptr inbounds ([22 x i8]* @.str45, i32 0, i32 0), i8** %738, align 4
  %739 = tail call i32 @clock() nounwind          ; <i32> [#uses=1]
  br i1 %10, label %bb2.preheader.us.i3202, label %bb5.i3203

bb2.preheader.us.i3202:                           ; preds = %bb2.preheader.us.i3202, %_Z13test_constantIh20custom_add_constantsIhEEvPT_iPKc.exit
  %i.05.us.i3200 = phi i32 [ %tmp7.i3201, %bb2.preheader.us.i3202 ], [ 0, %_Z13test_constantIh20custom_add_constantsIhEEvPT_iPKc.exit ] ; <i32> [#uses=1]
  %tmp7.i3201 = add i32 %i.05.us.i3200, 1         ; <i32> [#uses=2]
  %740 = icmp slt i32 %tmp7.i3201, %base_iterations.0 ; <i1> [#uses=1]
  br i1 %740, label %bb2.preheader.us.i3202, label %bb5.i3203

bb5.i3203:                                        ; preds = %bb2.preheader.us.i3202, %_Z13test_constantIh20custom_add_constantsIhEEvPT_iPKc.exit
  %741 = tail call i32 @clock() nounwind          ; <i32> [#uses=1]
  %742 = sub i32 %741, %739                       ; <i32> [#uses=1]
  %743 = sitofp i32 %742 to double                ; <double> [#uses=1]
  %744 = fdiv double %743, 1.000000e+06           ; <double> [#uses=1]
  %.not3694 = icmp ne %struct.one_result* %results.32, null ; <i1> [#uses=1]
  %745 = icmp sgt i32 %allocated_results.32, 34   ; <i1> [#uses=1]
  %or.cond3695 = and i1 %745, %.not3694           ; <i1> [#uses=1]
  br i1 %or.cond3695, label %_Z13test_constantIh20custom_sub_constantsIhEEvPT_iPKc.exit, label %bb1.i.i3205

bb1.i.i3205:                                      ; preds = %bb5.i3203
  %746 = add nsw i32 %allocated_results.32, 10    ; <i32> [#uses=3]
  %747 = mul i32 %746, 12                         ; <i32> [#uses=1]
  %748 = bitcast %struct.one_result* %results.32 to i8* ; <i8*> [#uses=1]
  %749 = tail call i8* @realloc(i8* %748, i32 %747) nounwind ; <i8*> [#uses=2]
  %750 = bitcast i8* %749 to %struct.one_result*  ; <%struct.one_result*> [#uses=2]
  %751 = icmp eq i8* %749, null                   ; <i1> [#uses=1]
  br i1 %751, label %bb2.i.i3206, label %_Z13test_constantIh20custom_sub_constantsIhEEvPT_iPKc.exit

bb2.i.i3206:                                      ; preds = %bb1.i.i3205
  %752 = tail call i32 (i8*, ...)* @printf(i8* noalias getelementptr inbounds ([31 x i8]* @.str11, i32 0, i32 0), i32 %746) nounwind ; <i32> [#uses=0]
  tail call void @exit(i32 -1) noreturn nounwind
  unreachable

_Z13test_constantIh20custom_sub_constantsIhEEvPT_iPKc.exit: ; preds = %bb1.i.i3205, %bb5.i3203
  %results.33 = phi %struct.one_result* [ %750, %bb1.i.i3205 ], [ %results.32, %bb5.i3203 ] ; <%struct.one_result*> [#uses=4]
  %allocated_results.33 = phi i32 [ %746, %bb1.i.i3205 ], [ %allocated_results.32, %bb5.i3203 ] ; <i32> [#uses=3]
  %753 = phi %struct.one_result* [ %750, %bb1.i.i3205 ], [ %results.32, %bb5.i3203 ] ; <%struct.one_result*> [#uses=2]
  %754 = getelementptr inbounds %struct.one_result* %753, i32 34, i32 0 ; <double*> [#uses=1]
  store double %744, double* %754, align 4
  %755 = getelementptr inbounds %struct.one_result* %753, i32 34, i32 1 ; <i8**> [#uses=1]
  store i8* getelementptr inbounds ([27 x i8]* @.str46, i32 0, i32 0), i8** %755, align 4
  %756 = tail call i32 @clock() nounwind          ; <i32> [#uses=1]
  br i1 %10, label %bb2.preheader.us.i3194, label %bb5.i3195

bb2.preheader.us.i3194:                           ; preds = %bb2.preheader.us.i3194, %_Z13test_constantIh20custom_sub_constantsIhEEvPT_iPKc.exit
  %i.05.us.i3192 = phi i32 [ %tmp10.i3193, %bb2.preheader.us.i3194 ], [ 0, %_Z13test_constantIh20custom_sub_constantsIhEEvPT_iPKc.exit ] ; <i32> [#uses=1]
  %tmp10.i3193 = add i32 %i.05.us.i3192, 1        ; <i32> [#uses=2]
  %757 = icmp slt i32 %tmp10.i3193, %base_iterations.0 ; <i1> [#uses=1]
  br i1 %757, label %bb2.preheader.us.i3194, label %bb5.i3195

bb5.i3195:                                        ; preds = %bb2.preheader.us.i3194, %_Z13test_constantIh20custom_sub_constantsIhEEvPT_iPKc.exit
  %758 = tail call i32 @clock() nounwind          ; <i32> [#uses=1]
  %759 = sub i32 %758, %756                       ; <i32> [#uses=1]
  %760 = sitofp i32 %759 to double                ; <double> [#uses=1]
  %761 = fdiv double %760, 1.000000e+06           ; <double> [#uses=1]
  %.not3696 = icmp ne %struct.one_result* %results.33, null ; <i1> [#uses=1]
  %762 = icmp sgt i32 %allocated_results.33, 35   ; <i1> [#uses=1]
  %or.cond3697 = and i1 %762, %.not3696           ; <i1> [#uses=1]
  br i1 %or.cond3697, label %_Z13test_constantIh25custom_multiply_constantsIhEEvPT_iPKc.exit, label %bb1.i.i3197

bb1.i.i3197:                                      ; preds = %bb5.i3195
  %763 = add nsw i32 %allocated_results.33, 10    ; <i32> [#uses=3]
  %764 = mul i32 %763, 12                         ; <i32> [#uses=1]
  %765 = bitcast %struct.one_result* %results.33 to i8* ; <i8*> [#uses=1]
  %766 = tail call i8* @realloc(i8* %765, i32 %764) nounwind ; <i8*> [#uses=2]
  %767 = bitcast i8* %766 to %struct.one_result*  ; <%struct.one_result*> [#uses=2]
  %768 = icmp eq i8* %766, null                   ; <i1> [#uses=1]
  br i1 %768, label %bb2.i.i3198, label %_Z13test_constantIh25custom_multiply_constantsIhEEvPT_iPKc.exit

bb2.i.i3198:                                      ; preds = %bb1.i.i3197
  %769 = tail call i32 (i8*, ...)* @printf(i8* noalias getelementptr inbounds ([31 x i8]* @.str11, i32 0, i32 0), i32 %763) nounwind ; <i32> [#uses=0]
  tail call void @exit(i32 -1) noreturn nounwind
  unreachable

_Z13test_constantIh25custom_multiply_constantsIhEEvPT_iPKc.exit: ; preds = %bb1.i.i3197, %bb5.i3195
  %results.34 = phi %struct.one_result* [ %767, %bb1.i.i3197 ], [ %results.33, %bb5.i3195 ] ; <%struct.one_result*> [#uses=4]
  %allocated_results.34 = phi i32 [ %763, %bb1.i.i3197 ], [ %allocated_results.33, %bb5.i3195 ] ; <i32> [#uses=3]
  %770 = phi %struct.one_result* [ %767, %bb1.i.i3197 ], [ %results.33, %bb5.i3195 ] ; <%struct.one_result*> [#uses=2]
  %771 = getelementptr inbounds %struct.one_result* %770, i32 35, i32 0 ; <double*> [#uses=1]
  store double %761, double* %771, align 4
  %772 = getelementptr inbounds %struct.one_result* %770, i32 35, i32 1 ; <i8**> [#uses=1]
  store i8* getelementptr inbounds ([27 x i8]* @.str47, i32 0, i32 0), i8** %772, align 4
  %773 = tail call i32 @clock() nounwind          ; <i32> [#uses=1]
  br i1 %10, label %bb2.preheader.us.i3186, label %bb5.i3187

bb2.preheader.us.i3186:                           ; preds = %bb2.preheader.us.i3186, %_Z13test_constantIh25custom_multiply_constantsIhEEvPT_iPKc.exit
  %i.05.us.i3184 = phi i32 [ %tmp10.i3185, %bb2.preheader.us.i3186 ], [ 0, %_Z13test_constantIh25custom_multiply_constantsIhEEvPT_iPKc.exit ] ; <i32> [#uses=1]
  %tmp10.i3185 = add i32 %i.05.us.i3184, 1        ; <i32> [#uses=2]
  %774 = icmp slt i32 %tmp10.i3185, %base_iterations.0 ; <i1> [#uses=1]
  br i1 %774, label %bb2.preheader.us.i3186, label %bb5.i3187

bb5.i3187:                                        ; preds = %bb2.preheader.us.i3186, %_Z13test_constantIh25custom_multiply_constantsIhEEvPT_iPKc.exit
  %775 = tail call i32 @clock() nounwind          ; <i32> [#uses=1]
  %776 = sub i32 %775, %773                       ; <i32> [#uses=1]
  %777 = sitofp i32 %776 to double                ; <double> [#uses=1]
  %778 = fdiv double %777, 1.000000e+06           ; <double> [#uses=1]
  %.not3698 = icmp ne %struct.one_result* %results.34, null ; <i1> [#uses=1]
  %779 = icmp sgt i32 %allocated_results.34, 36   ; <i1> [#uses=1]
  %or.cond3699 = and i1 %779, %.not3698           ; <i1> [#uses=1]
  br i1 %or.cond3699, label %_Z13test_constantIh23custom_divide_constantsIhEEvPT_iPKc.exit, label %bb1.i.i3189

bb1.i.i3189:                                      ; preds = %bb5.i3187
  %780 = add nsw i32 %allocated_results.34, 10    ; <i32> [#uses=3]
  %781 = mul i32 %780, 12                         ; <i32> [#uses=1]
  %782 = bitcast %struct.one_result* %results.34 to i8* ; <i8*> [#uses=1]
  %783 = tail call i8* @realloc(i8* %782, i32 %781) nounwind ; <i8*> [#uses=2]
  %784 = bitcast i8* %783 to %struct.one_result*  ; <%struct.one_result*> [#uses=2]
  %785 = icmp eq i8* %783, null                   ; <i1> [#uses=1]
  br i1 %785, label %bb2.i.i3190, label %_Z13test_constantIh23custom_divide_constantsIhEEvPT_iPKc.exit

bb2.i.i3190:                                      ; preds = %bb1.i.i3189
  %786 = tail call i32 (i8*, ...)* @printf(i8* noalias getelementptr inbounds ([31 x i8]* @.str11, i32 0, i32 0), i32 %780) nounwind ; <i32> [#uses=0]
  tail call void @exit(i32 -1) noreturn nounwind
  unreachable

_Z13test_constantIh23custom_divide_constantsIhEEvPT_iPKc.exit: ; preds = %bb1.i.i3189, %bb5.i3187
  %results.35 = phi %struct.one_result* [ %784, %bb1.i.i3189 ], [ %results.34, %bb5.i3187 ] ; <%struct.one_result*> [#uses=4]
  %allocated_results.35 = phi i32 [ %780, %bb1.i.i3189 ], [ %allocated_results.34, %bb5.i3187 ] ; <i32> [#uses=3]
  %787 = phi %struct.one_result* [ %784, %bb1.i.i3189 ], [ %results.34, %bb5.i3187 ] ; <%struct.one_result*> [#uses=2]
  %788 = getelementptr inbounds %struct.one_result* %787, i32 36, i32 0 ; <double*> [#uses=1]
  store double %778, double* %788, align 4
  %789 = getelementptr inbounds %struct.one_result* %787, i32 36, i32 1 ; <i8**> [#uses=1]
  store i8* getelementptr inbounds ([25 x i8]* @.str48, i32 0, i32 0), i8** %789, align 4
  %790 = tail call i32 @clock() nounwind          ; <i32> [#uses=1]
  br i1 %10, label %bb2.preheader.us.i3178, label %bb5.i3179

bb2.preheader.us.i3178:                           ; preds = %bb2.preheader.us.i3178, %_Z13test_constantIh23custom_divide_constantsIhEEvPT_iPKc.exit
  %i.05.us.i3176 = phi i32 [ %tmp10.i3177, %bb2.preheader.us.i3178 ], [ 0, %_Z13test_constantIh23custom_divide_constantsIhEEvPT_iPKc.exit ] ; <i32> [#uses=1]
  %tmp10.i3177 = add i32 %i.05.us.i3176, 1        ; <i32> [#uses=2]
  %791 = icmp slt i32 %tmp10.i3177, %base_iterations.0 ; <i1> [#uses=1]
  br i1 %791, label %bb2.preheader.us.i3178, label %bb5.i3179

bb5.i3179:                                        ; preds = %bb2.preheader.us.i3178, %_Z13test_constantIh23custom_divide_constantsIhEEvPT_iPKc.exit
  %792 = tail call i32 @clock() nounwind          ; <i32> [#uses=1]
  %793 = sub i32 %792, %790                       ; <i32> [#uses=1]
  %794 = sitofp i32 %793 to double                ; <double> [#uses=1]
  %795 = fdiv double %794, 1.000000e+06           ; <double> [#uses=1]
  %.not3700 = icmp ne %struct.one_result* %results.35, null ; <i1> [#uses=1]
  %796 = icmp sgt i32 %allocated_results.35, 37   ; <i1> [#uses=1]
  %or.cond3701 = and i1 %796, %.not3700           ; <i1> [#uses=1]
  br i1 %or.cond3701, label %_Z13test_constantIh20custom_mod_constantsIhEEvPT_iPKc.exit, label %bb1.i.i3181

bb1.i.i3181:                                      ; preds = %bb5.i3179
  %797 = add nsw i32 %allocated_results.35, 10    ; <i32> [#uses=3]
  %798 = mul i32 %797, 12                         ; <i32> [#uses=1]
  %799 = bitcast %struct.one_result* %results.35 to i8* ; <i8*> [#uses=1]
  %800 = tail call i8* @realloc(i8* %799, i32 %798) nounwind ; <i8*> [#uses=2]
  %801 = bitcast i8* %800 to %struct.one_result*  ; <%struct.one_result*> [#uses=2]
  %802 = icmp eq i8* %800, null                   ; <i1> [#uses=1]
  br i1 %802, label %bb2.i.i3182, label %_Z13test_constantIh20custom_mod_constantsIhEEvPT_iPKc.exit

bb2.i.i3182:                                      ; preds = %bb1.i.i3181
  %803 = tail call i32 (i8*, ...)* @printf(i8* noalias getelementptr inbounds ([31 x i8]* @.str11, i32 0, i32 0), i32 %797) nounwind ; <i32> [#uses=0]
  tail call void @exit(i32 -1) noreturn nounwind
  unreachable

_Z13test_constantIh20custom_mod_constantsIhEEvPT_iPKc.exit: ; preds = %bb1.i.i3181, %bb5.i3179
  %results.36 = phi %struct.one_result* [ %801, %bb1.i.i3181 ], [ %results.35, %bb5.i3179 ] ; <%struct.one_result*> [#uses=4]
  %allocated_results.36 = phi i32 [ %797, %bb1.i.i3181 ], [ %allocated_results.35, %bb5.i3179 ] ; <i32> [#uses=3]
  %804 = phi %struct.one_result* [ %801, %bb1.i.i3181 ], [ %results.35, %bb5.i3179 ] ; <%struct.one_result*> [#uses=2]
  %805 = getelementptr inbounds %struct.one_result* %804, i32 37, i32 0 ; <double*> [#uses=1]
  store double %795, double* %805, align 4
  %806 = getelementptr inbounds %struct.one_result* %804, i32 37, i32 1 ; <i8**> [#uses=1]
  store i8* getelementptr inbounds ([22 x i8]* @.str49, i32 0, i32 0), i8** %806, align 4
  %807 = tail call i32 @clock() nounwind          ; <i32> [#uses=1]
  %808 = tail call i32 @clock() nounwind          ; <i32> [#uses=1]
  %809 = sub i32 %808, %807                       ; <i32> [#uses=1]
  %810 = sitofp i32 %809 to double                ; <double> [#uses=1]
  %811 = fdiv double %810, 1.000000e+06           ; <double> [#uses=1]
  %.not3702 = icmp ne %struct.one_result* %results.36, null ; <i1> [#uses=1]
  %812 = icmp sgt i32 %allocated_results.36, 38   ; <i1> [#uses=1]
  %or.cond3703 = and i1 %812, %.not3702           ; <i1> [#uses=1]
  br i1 %or.cond3703, label %_Z13test_constantIh22custom_equal_constantsIhEEvPT_iPKc.exit, label %bb1.i.i3173

bb1.i.i3173:                                      ; preds = %_Z13test_constantIh20custom_mod_constantsIhEEvPT_iPKc.exit
  %813 = add nsw i32 %allocated_results.36, 10    ; <i32> [#uses=3]
  %814 = mul i32 %813, 12                         ; <i32> [#uses=1]
  %815 = bitcast %struct.one_result* %results.36 to i8* ; <i8*> [#uses=1]
  %816 = tail call i8* @realloc(i8* %815, i32 %814) nounwind ; <i8*> [#uses=2]
  %817 = bitcast i8* %816 to %struct.one_result*  ; <%struct.one_result*> [#uses=2]
  %818 = icmp eq i8* %816, null                   ; <i1> [#uses=1]
  br i1 %818, label %bb2.i.i3174, label %_Z13test_constantIh22custom_equal_constantsIhEEvPT_iPKc.exit

bb2.i.i3174:                                      ; preds = %bb1.i.i3173
  %819 = tail call i32 (i8*, ...)* @printf(i8* noalias getelementptr inbounds ([31 x i8]* @.str11, i32 0, i32 0), i32 %813) nounwind ; <i32> [#uses=0]
  tail call void @exit(i32 -1) noreturn nounwind
  unreachable

_Z13test_constantIh22custom_equal_constantsIhEEvPT_iPKc.exit: ; preds = %bb1.i.i3173, %_Z13test_constantIh20custom_mod_constantsIhEEvPT_iPKc.exit
  %results.37 = phi %struct.one_result* [ %817, %bb1.i.i3173 ], [ %results.36, %_Z13test_constantIh20custom_mod_constantsIhEEvPT_iPKc.exit ] ; <%struct.one_result*> [#uses=4]
  %allocated_results.37 = phi i32 [ %813, %bb1.i.i3173 ], [ %allocated_results.36, %_Z13test_constantIh20custom_mod_constantsIhEEvPT_iPKc.exit ] ; <i32> [#uses=3]
  %820 = phi %struct.one_result* [ %817, %bb1.i.i3173 ], [ %results.36, %_Z13test_constantIh20custom_mod_constantsIhEEvPT_iPKc.exit ] ; <%struct.one_result*> [#uses=2]
  %821 = getelementptr inbounds %struct.one_result* %820, i32 38, i32 0 ; <double*> [#uses=1]
  store double %811, double* %821, align 4
  %822 = getelementptr inbounds %struct.one_result* %820, i32 38, i32 1 ; <i8**> [#uses=1]
  store i8* getelementptr inbounds ([24 x i8]* @.str50, i32 0, i32 0), i8** %822, align 4
  %823 = tail call i32 @clock() nounwind          ; <i32> [#uses=1]
  br i1 %10, label %bb2.preheader.us.i3166, label %bb5.i3167

bb2.preheader.us.i3166:                           ; preds = %bb2.preheader.us.i3166, %_Z13test_constantIh22custom_equal_constantsIhEEvPT_iPKc.exit
  %i.05.us.i3164 = phi i32 [ %tmp7.i3165, %bb2.preheader.us.i3166 ], [ 0, %_Z13test_constantIh22custom_equal_constantsIhEEvPT_iPKc.exit ] ; <i32> [#uses=1]
  %tmp7.i3165 = add i32 %i.05.us.i3164, 1         ; <i32> [#uses=2]
  %824 = icmp slt i32 %tmp7.i3165, %base_iterations.0 ; <i1> [#uses=1]
  br i1 %824, label %bb2.preheader.us.i3166, label %bb5.i3167

bb5.i3167:                                        ; preds = %bb2.preheader.us.i3166, %_Z13test_constantIh22custom_equal_constantsIhEEvPT_iPKc.exit
  %825 = tail call i32 @clock() nounwind          ; <i32> [#uses=1]
  %826 = sub i32 %825, %823                       ; <i32> [#uses=1]
  %827 = sitofp i32 %826 to double                ; <double> [#uses=1]
  %828 = fdiv double %827, 1.000000e+06           ; <double> [#uses=1]
  %.not3704 = icmp ne %struct.one_result* %results.37, null ; <i1> [#uses=1]
  %829 = icmp sgt i32 %allocated_results.37, 39   ; <i1> [#uses=1]
  %or.cond3705 = and i1 %829, %.not3704           ; <i1> [#uses=1]
  br i1 %or.cond3705, label %_Z13test_constantIh25custom_notequal_constantsIhEEvPT_iPKc.exit, label %bb1.i.i3169

bb1.i.i3169:                                      ; preds = %bb5.i3167
  %830 = add nsw i32 %allocated_results.37, 10    ; <i32> [#uses=3]
  %831 = mul i32 %830, 12                         ; <i32> [#uses=1]
  %832 = bitcast %struct.one_result* %results.37 to i8* ; <i8*> [#uses=1]
  %833 = tail call i8* @realloc(i8* %832, i32 %831) nounwind ; <i8*> [#uses=2]
  %834 = bitcast i8* %833 to %struct.one_result*  ; <%struct.one_result*> [#uses=2]
  %835 = icmp eq i8* %833, null                   ; <i1> [#uses=1]
  br i1 %835, label %bb2.i.i3170, label %_Z13test_constantIh25custom_notequal_constantsIhEEvPT_iPKc.exit

bb2.i.i3170:                                      ; preds = %bb1.i.i3169
  %836 = tail call i32 (i8*, ...)* @printf(i8* noalias getelementptr inbounds ([31 x i8]* @.str11, i32 0, i32 0), i32 %830) nounwind ; <i32> [#uses=0]
  tail call void @exit(i32 -1) noreturn nounwind
  unreachable

_Z13test_constantIh25custom_notequal_constantsIhEEvPT_iPKc.exit: ; preds = %bb1.i.i3169, %bb5.i3167
  %results.38 = phi %struct.one_result* [ %834, %bb1.i.i3169 ], [ %results.37, %bb5.i3167 ] ; <%struct.one_result*> [#uses=4]
  %allocated_results.38 = phi i32 [ %830, %bb1.i.i3169 ], [ %allocated_results.37, %bb5.i3167 ] ; <i32> [#uses=3]
  %837 = phi %struct.one_result* [ %834, %bb1.i.i3169 ], [ %results.37, %bb5.i3167 ] ; <%struct.one_result*> [#uses=2]
  %838 = getelementptr inbounds %struct.one_result* %837, i32 39, i32 0 ; <double*> [#uses=1]
  store double %828, double* %838, align 4
  %839 = getelementptr inbounds %struct.one_result* %837, i32 39, i32 1 ; <i8**> [#uses=1]
  store i8* getelementptr inbounds ([27 x i8]* @.str51, i32 0, i32 0), i8** %839, align 4
  %840 = tail call i32 @clock() nounwind          ; <i32> [#uses=1]
  br i1 %10, label %bb2.preheader.us.i3158, label %bb5.i3159

bb2.preheader.us.i3158:                           ; preds = %bb2.preheader.us.i3158, %_Z13test_constantIh25custom_notequal_constantsIhEEvPT_iPKc.exit
  %i.05.us.i3156 = phi i32 [ %tmp7.i3157, %bb2.preheader.us.i3158 ], [ 0, %_Z13test_constantIh25custom_notequal_constantsIhEEvPT_iPKc.exit ] ; <i32> [#uses=1]
  %tmp7.i3157 = add i32 %i.05.us.i3156, 1         ; <i32> [#uses=2]
  %841 = icmp slt i32 %tmp7.i3157, %base_iterations.0 ; <i1> [#uses=1]
  br i1 %841, label %bb2.preheader.us.i3158, label %bb5.i3159

bb5.i3159:                                        ; preds = %bb2.preheader.us.i3158, %_Z13test_constantIh25custom_notequal_constantsIhEEvPT_iPKc.exit
  %842 = tail call i32 @clock() nounwind          ; <i32> [#uses=1]
  %843 = sub i32 %842, %840                       ; <i32> [#uses=1]
  %844 = sitofp i32 %843 to double                ; <double> [#uses=1]
  %845 = fdiv double %844, 1.000000e+06           ; <double> [#uses=1]
  %.not3706 = icmp ne %struct.one_result* %results.38, null ; <i1> [#uses=1]
  %846 = icmp sgt i32 %allocated_results.38, 40   ; <i1> [#uses=1]
  %or.cond3707 = and i1 %846, %.not3706           ; <i1> [#uses=1]
  br i1 %or.cond3707, label %_Z13test_constantIh28custom_greaterthan_constantsIhEEvPT_iPKc.exit, label %bb1.i.i3161

bb1.i.i3161:                                      ; preds = %bb5.i3159
  %847 = add nsw i32 %allocated_results.38, 10    ; <i32> [#uses=3]
  %848 = mul i32 %847, 12                         ; <i32> [#uses=1]
  %849 = bitcast %struct.one_result* %results.38 to i8* ; <i8*> [#uses=1]
  %850 = tail call i8* @realloc(i8* %849, i32 %848) nounwind ; <i8*> [#uses=2]
  %851 = bitcast i8* %850 to %struct.one_result*  ; <%struct.one_result*> [#uses=2]
  %852 = icmp eq i8* %850, null                   ; <i1> [#uses=1]
  br i1 %852, label %bb2.i.i3162, label %_Z13test_constantIh28custom_greaterthan_constantsIhEEvPT_iPKc.exit

bb2.i.i3162:                                      ; preds = %bb1.i.i3161
  %853 = tail call i32 (i8*, ...)* @printf(i8* noalias getelementptr inbounds ([31 x i8]* @.str11, i32 0, i32 0), i32 %847) nounwind ; <i32> [#uses=0]
  tail call void @exit(i32 -1) noreturn nounwind
  unreachable

_Z13test_constantIh28custom_greaterthan_constantsIhEEvPT_iPKc.exit: ; preds = %bb1.i.i3161, %bb5.i3159
  %results.39 = phi %struct.one_result* [ %851, %bb1.i.i3161 ], [ %results.38, %bb5.i3159 ] ; <%struct.one_result*> [#uses=4]
  %allocated_results.39 = phi i32 [ %847, %bb1.i.i3161 ], [ %allocated_results.38, %bb5.i3159 ] ; <i32> [#uses=3]
  %854 = phi %struct.one_result* [ %851, %bb1.i.i3161 ], [ %results.38, %bb5.i3159 ] ; <%struct.one_result*> [#uses=2]
  %855 = getelementptr inbounds %struct.one_result* %854, i32 40, i32 0 ; <double*> [#uses=1]
  store double %845, double* %855, align 4
  %856 = getelementptr inbounds %struct.one_result* %854, i32 40, i32 1 ; <i8**> [#uses=1]
  store i8* getelementptr inbounds ([31 x i8]* @.str52, i32 0, i32 0), i8** %856, align 4
  %857 = tail call i32 @clock() nounwind          ; <i32> [#uses=1]
  %858 = tail call i32 @clock() nounwind          ; <i32> [#uses=1]
  %859 = sub i32 %858, %857                       ; <i32> [#uses=1]
  %860 = sitofp i32 %859 to double                ; <double> [#uses=1]
  %861 = fdiv double %860, 1.000000e+06           ; <double> [#uses=1]
  %.not3708 = icmp ne %struct.one_result* %results.39, null ; <i1> [#uses=1]
  %862 = icmp sgt i32 %allocated_results.39, 41   ; <i1> [#uses=1]
  %or.cond3709 = and i1 %862, %.not3708           ; <i1> [#uses=1]
  br i1 %or.cond3709, label %_Z13test_constantIh25custom_lessthan_constantsIhEEvPT_iPKc.exit, label %bb1.i.i3153

bb1.i.i3153:                                      ; preds = %_Z13test_constantIh28custom_greaterthan_constantsIhEEvPT_iPKc.exit
  %863 = add nsw i32 %allocated_results.39, 10    ; <i32> [#uses=3]
  %864 = mul i32 %863, 12                         ; <i32> [#uses=1]
  %865 = bitcast %struct.one_result* %results.39 to i8* ; <i8*> [#uses=1]
  %866 = tail call i8* @realloc(i8* %865, i32 %864) nounwind ; <i8*> [#uses=2]
  %867 = bitcast i8* %866 to %struct.one_result*  ; <%struct.one_result*> [#uses=2]
  %868 = icmp eq i8* %866, null                   ; <i1> [#uses=1]
  br i1 %868, label %bb2.i.i3154, label %_Z13test_constantIh25custom_lessthan_constantsIhEEvPT_iPKc.exit

bb2.i.i3154:                                      ; preds = %bb1.i.i3153
  %869 = tail call i32 (i8*, ...)* @printf(i8* noalias getelementptr inbounds ([31 x i8]* @.str11, i32 0, i32 0), i32 %863) nounwind ; <i32> [#uses=0]
  tail call void @exit(i32 -1) noreturn nounwind
  unreachable

_Z13test_constantIh25custom_lessthan_constantsIhEEvPT_iPKc.exit: ; preds = %bb1.i.i3153, %_Z13test_constantIh28custom_greaterthan_constantsIhEEvPT_iPKc.exit
  %results.40 = phi %struct.one_result* [ %867, %bb1.i.i3153 ], [ %results.39, %_Z13test_constantIh28custom_greaterthan_constantsIhEEvPT_iPKc.exit ] ; <%struct.one_result*> [#uses=4]
  %allocated_results.40 = phi i32 [ %863, %bb1.i.i3153 ], [ %allocated_results.39, %_Z13test_constantIh28custom_greaterthan_constantsIhEEvPT_iPKc.exit ] ; <i32> [#uses=3]
  %870 = phi %struct.one_result* [ %867, %bb1.i.i3153 ], [ %results.39, %_Z13test_constantIh28custom_greaterthan_constantsIhEEvPT_iPKc.exit ] ; <%struct.one_result*> [#uses=2]
  %871 = getelementptr inbounds %struct.one_result* %870, i32 41, i32 0 ; <double*> [#uses=1]
  store double %861, double* %871, align 4
  %872 = getelementptr inbounds %struct.one_result* %870, i32 41, i32 1 ; <i8**> [#uses=1]
  store i8* getelementptr inbounds ([28 x i8]* @.str53, i32 0, i32 0), i8** %872, align 4
  %873 = tail call i32 @clock() nounwind          ; <i32> [#uses=1]
  br i1 %10, label %bb2.preheader.us.i3146, label %bb5.i3147

bb2.preheader.us.i3146:                           ; preds = %bb2.preheader.us.i3146, %_Z13test_constantIh25custom_lessthan_constantsIhEEvPT_iPKc.exit
  %i.05.us.i3144 = phi i32 [ %tmp7.i3145, %bb2.preheader.us.i3146 ], [ 0, %_Z13test_constantIh25custom_lessthan_constantsIhEEvPT_iPKc.exit ] ; <i32> [#uses=1]
  %tmp7.i3145 = add i32 %i.05.us.i3144, 1         ; <i32> [#uses=2]
  %874 = icmp slt i32 %tmp7.i3145, %base_iterations.0 ; <i1> [#uses=1]
  br i1 %874, label %bb2.preheader.us.i3146, label %bb5.i3147

bb5.i3147:                                        ; preds = %bb2.preheader.us.i3146, %_Z13test_constantIh25custom_lessthan_constantsIhEEvPT_iPKc.exit
  %875 = tail call i32 @clock() nounwind          ; <i32> [#uses=1]
  %876 = sub i32 %875, %873                       ; <i32> [#uses=1]
  %877 = sitofp i32 %876 to double                ; <double> [#uses=1]
  %878 = fdiv double %877, 1.000000e+06           ; <double> [#uses=1]
  %.not3710 = icmp ne %struct.one_result* %results.40, null ; <i1> [#uses=1]
  %879 = icmp sgt i32 %allocated_results.40, 42   ; <i1> [#uses=1]
  %or.cond3711 = and i1 %879, %.not3710           ; <i1> [#uses=1]
  br i1 %or.cond3711, label %_Z13test_constantIh33custom_greaterthanequal_constantsIhEEvPT_iPKc.exit, label %bb1.i.i3149

bb1.i.i3149:                                      ; preds = %bb5.i3147
  %880 = add nsw i32 %allocated_results.40, 10    ; <i32> [#uses=3]
  %881 = mul i32 %880, 12                         ; <i32> [#uses=1]
  %882 = bitcast %struct.one_result* %results.40 to i8* ; <i8*> [#uses=1]
  %883 = tail call i8* @realloc(i8* %882, i32 %881) nounwind ; <i8*> [#uses=2]
  %884 = bitcast i8* %883 to %struct.one_result*  ; <%struct.one_result*> [#uses=2]
  %885 = icmp eq i8* %883, null                   ; <i1> [#uses=1]
  br i1 %885, label %bb2.i.i3150, label %_Z13test_constantIh33custom_greaterthanequal_constantsIhEEvPT_iPKc.exit

bb2.i.i3150:                                      ; preds = %bb1.i.i3149
  %886 = tail call i32 (i8*, ...)* @printf(i8* noalias getelementptr inbounds ([31 x i8]* @.str11, i32 0, i32 0), i32 %880) nounwind ; <i32> [#uses=0]
  tail call void @exit(i32 -1) noreturn nounwind
  unreachable

_Z13test_constantIh33custom_greaterthanequal_constantsIhEEvPT_iPKc.exit: ; preds = %bb1.i.i3149, %bb5.i3147
  %results.41 = phi %struct.one_result* [ %884, %bb1.i.i3149 ], [ %results.40, %bb5.i3147 ] ; <%struct.one_result*> [#uses=4]
  %allocated_results.41 = phi i32 [ %880, %bb1.i.i3149 ], [ %allocated_results.40, %bb5.i3147 ] ; <i32> [#uses=3]
  %887 = phi %struct.one_result* [ %884, %bb1.i.i3149 ], [ %results.40, %bb5.i3147 ] ; <%struct.one_result*> [#uses=2]
  %888 = getelementptr inbounds %struct.one_result* %887, i32 42, i32 0 ; <double*> [#uses=1]
  store double %878, double* %888, align 4
  %889 = getelementptr inbounds %struct.one_result* %887, i32 42, i32 1 ; <i8**> [#uses=1]
  store i8* getelementptr inbounds ([37 x i8]* @.str54, i32 0, i32 0), i8** %889, align 4
  %890 = tail call i32 @clock() nounwind          ; <i32> [#uses=1]
  %891 = tail call i32 @clock() nounwind          ; <i32> [#uses=1]
  %892 = sub i32 %891, %890                       ; <i32> [#uses=1]
  %893 = sitofp i32 %892 to double                ; <double> [#uses=1]
  %894 = fdiv double %893, 1.000000e+06           ; <double> [#uses=1]
  %.not3712 = icmp ne %struct.one_result* %results.41, null ; <i1> [#uses=1]
  %895 = icmp sgt i32 %allocated_results.41, 43   ; <i1> [#uses=1]
  %or.cond3713 = and i1 %895, %.not3712           ; <i1> [#uses=1]
  br i1 %or.cond3713, label %_Z13test_constantIh30custom_lessthanequal_constantsIhEEvPT_iPKc.exit, label %bb1.i.i3141

bb1.i.i3141:                                      ; preds = %_Z13test_constantIh33custom_greaterthanequal_constantsIhEEvPT_iPKc.exit
  %896 = add nsw i32 %allocated_results.41, 10    ; <i32> [#uses=3]
  %897 = mul i32 %896, 12                         ; <i32> [#uses=1]
  %898 = bitcast %struct.one_result* %results.41 to i8* ; <i8*> [#uses=1]
  %899 = tail call i8* @realloc(i8* %898, i32 %897) nounwind ; <i8*> [#uses=2]
  %900 = bitcast i8* %899 to %struct.one_result*  ; <%struct.one_result*> [#uses=2]
  %901 = icmp eq i8* %899, null                   ; <i1> [#uses=1]
  br i1 %901, label %bb2.i.i3142, label %_Z13test_constantIh30custom_lessthanequal_constantsIhEEvPT_iPKc.exit

bb2.i.i3142:                                      ; preds = %bb1.i.i3141
  %902 = tail call i32 (i8*, ...)* @printf(i8* noalias getelementptr inbounds ([31 x i8]* @.str11, i32 0, i32 0), i32 %896) nounwind ; <i32> [#uses=0]
  tail call void @exit(i32 -1) noreturn nounwind
  unreachable

_Z13test_constantIh30custom_lessthanequal_constantsIhEEvPT_iPKc.exit: ; preds = %bb1.i.i3141, %_Z13test_constantIh33custom_greaterthanequal_constantsIhEEvPT_iPKc.exit
  %results.42 = phi %struct.one_result* [ %900, %bb1.i.i3141 ], [ %results.41, %_Z13test_constantIh33custom_greaterthanequal_constantsIhEEvPT_iPKc.exit ] ; <%struct.one_result*> [#uses=4]
  %allocated_results.42 = phi i32 [ %896, %bb1.i.i3141 ], [ %allocated_results.41, %_Z13test_constantIh33custom_greaterthanequal_constantsIhEEvPT_iPKc.exit ] ; <i32> [#uses=3]
  %903 = phi %struct.one_result* [ %900, %bb1.i.i3141 ], [ %results.41, %_Z13test_constantIh33custom_greaterthanequal_constantsIhEEvPT_iPKc.exit ] ; <%struct.one_result*> [#uses=2]
  %904 = getelementptr inbounds %struct.one_result* %903, i32 43, i32 0 ; <double*> [#uses=1]
  store double %894, double* %904, align 4
  %905 = getelementptr inbounds %struct.one_result* %903, i32 43, i32 1 ; <i8**> [#uses=1]
  store i8* getelementptr inbounds ([34 x i8]* @.str55, i32 0, i32 0), i8** %905, align 4
  %906 = tail call i32 @clock() nounwind          ; <i32> [#uses=1]
  br i1 %10, label %bb2.preheader.us.i3134, label %bb5.i3135

bb2.preheader.us.i3134:                           ; preds = %bb2.preheader.us.i3134, %_Z13test_constantIh30custom_lessthanequal_constantsIhEEvPT_iPKc.exit
  %i.05.us.i3132 = phi i32 [ %tmp10.i3133, %bb2.preheader.us.i3134 ], [ 0, %_Z13test_constantIh30custom_lessthanequal_constantsIhEEvPT_iPKc.exit ] ; <i32> [#uses=1]
  %tmp10.i3133 = add i32 %i.05.us.i3132, 1        ; <i32> [#uses=2]
  %907 = icmp slt i32 %tmp10.i3133, %base_iterations.0 ; <i1> [#uses=1]
  br i1 %907, label %bb2.preheader.us.i3134, label %bb5.i3135

bb5.i3135:                                        ; preds = %bb2.preheader.us.i3134, %_Z13test_constantIh30custom_lessthanequal_constantsIhEEvPT_iPKc.exit
  %908 = tail call i32 @clock() nounwind          ; <i32> [#uses=1]
  %909 = sub i32 %908, %906                       ; <i32> [#uses=1]
  %910 = sitofp i32 %909 to double                ; <double> [#uses=1]
  %911 = fdiv double %910, 1.000000e+06           ; <double> [#uses=1]
  %.not3714 = icmp ne %struct.one_result* %results.42, null ; <i1> [#uses=1]
  %912 = icmp sgt i32 %allocated_results.42, 44   ; <i1> [#uses=1]
  %or.cond3715 = and i1 %912, %.not3714           ; <i1> [#uses=1]
  br i1 %or.cond3715, label %_Z13test_constantIh20custom_and_constantsIhEEvPT_iPKc.exit, label %bb1.i.i3137

bb1.i.i3137:                                      ; preds = %bb5.i3135
  %913 = add nsw i32 %allocated_results.42, 10    ; <i32> [#uses=3]
  %914 = mul i32 %913, 12                         ; <i32> [#uses=1]
  %915 = bitcast %struct.one_result* %results.42 to i8* ; <i8*> [#uses=1]
  %916 = tail call i8* @realloc(i8* %915, i32 %914) nounwind ; <i8*> [#uses=2]
  %917 = bitcast i8* %916 to %struct.one_result*  ; <%struct.one_result*> [#uses=2]
  %918 = icmp eq i8* %916, null                   ; <i1> [#uses=1]
  br i1 %918, label %bb2.i.i3138, label %_Z13test_constantIh20custom_and_constantsIhEEvPT_iPKc.exit

bb2.i.i3138:                                      ; preds = %bb1.i.i3137
  %919 = tail call i32 (i8*, ...)* @printf(i8* noalias getelementptr inbounds ([31 x i8]* @.str11, i32 0, i32 0), i32 %913) nounwind ; <i32> [#uses=0]
  tail call void @exit(i32 -1) noreturn nounwind
  unreachable

_Z13test_constantIh20custom_and_constantsIhEEvPT_iPKc.exit: ; preds = %bb1.i.i3137, %bb5.i3135
  %results.43 = phi %struct.one_result* [ %917, %bb1.i.i3137 ], [ %results.42, %bb5.i3135 ] ; <%struct.one_result*> [#uses=4]
  %allocated_results.43 = phi i32 [ %913, %bb1.i.i3137 ], [ %allocated_results.42, %bb5.i3135 ] ; <i32> [#uses=3]
  %920 = phi %struct.one_result* [ %917, %bb1.i.i3137 ], [ %results.42, %bb5.i3135 ] ; <%struct.one_result*> [#uses=2]
  %921 = getelementptr inbounds %struct.one_result* %920, i32 44, i32 0 ; <double*> [#uses=1]
  store double %911, double* %921, align 4
  %922 = getelementptr inbounds %struct.one_result* %920, i32 44, i32 1 ; <i8**> [#uses=1]
  store i8* getelementptr inbounds ([22 x i8]* @.str56, i32 0, i32 0), i8** %922, align 4
  %923 = tail call i32 @clock() nounwind          ; <i32> [#uses=1]
  br i1 %10, label %bb2.preheader.us.i3126, label %bb5.i3127

bb2.preheader.us.i3126:                           ; preds = %bb2.preheader.us.i3126, %_Z13test_constantIh20custom_and_constantsIhEEvPT_iPKc.exit
  %i.05.us.i3124 = phi i32 [ %tmp10.i3125, %bb2.preheader.us.i3126 ], [ 0, %_Z13test_constantIh20custom_and_constantsIhEEvPT_iPKc.exit ] ; <i32> [#uses=1]
  %tmp10.i3125 = add i32 %i.05.us.i3124, 1        ; <i32> [#uses=2]
  %924 = icmp slt i32 %tmp10.i3125, %base_iterations.0 ; <i1> [#uses=1]
  br i1 %924, label %bb2.preheader.us.i3126, label %bb5.i3127

bb5.i3127:                                        ; preds = %bb2.preheader.us.i3126, %_Z13test_constantIh20custom_and_constantsIhEEvPT_iPKc.exit
  %925 = tail call i32 @clock() nounwind          ; <i32> [#uses=1]
  %926 = sub i32 %925, %923                       ; <i32> [#uses=1]
  %927 = sitofp i32 %926 to double                ; <double> [#uses=1]
  %928 = fdiv double %927, 1.000000e+06           ; <double> [#uses=1]
  %.not3716 = icmp ne %struct.one_result* %results.43, null ; <i1> [#uses=1]
  %929 = icmp sgt i32 %allocated_results.43, 45   ; <i1> [#uses=1]
  %or.cond3717 = and i1 %929, %.not3716           ; <i1> [#uses=1]
  br i1 %or.cond3717, label %_Z13test_constantIh19custom_or_constantsIhEEvPT_iPKc.exit, label %bb1.i.i3129

bb1.i.i3129:                                      ; preds = %bb5.i3127
  %930 = add nsw i32 %allocated_results.43, 10    ; <i32> [#uses=3]
  %931 = mul i32 %930, 12                         ; <i32> [#uses=1]
  %932 = bitcast %struct.one_result* %results.43 to i8* ; <i8*> [#uses=1]
  %933 = tail call i8* @realloc(i8* %932, i32 %931) nounwind ; <i8*> [#uses=2]
  %934 = bitcast i8* %933 to %struct.one_result*  ; <%struct.one_result*> [#uses=2]
  %935 = icmp eq i8* %933, null                   ; <i1> [#uses=1]
  br i1 %935, label %bb2.i.i3130, label %_Z13test_constantIh19custom_or_constantsIhEEvPT_iPKc.exit

bb2.i.i3130:                                      ; preds = %bb1.i.i3129
  %936 = tail call i32 (i8*, ...)* @printf(i8* noalias getelementptr inbounds ([31 x i8]* @.str11, i32 0, i32 0), i32 %930) nounwind ; <i32> [#uses=0]
  tail call void @exit(i32 -1) noreturn nounwind
  unreachable

_Z13test_constantIh19custom_or_constantsIhEEvPT_iPKc.exit: ; preds = %bb1.i.i3129, %bb5.i3127
  %results.44 = phi %struct.one_result* [ %934, %bb1.i.i3129 ], [ %results.43, %bb5.i3127 ] ; <%struct.one_result*> [#uses=4]
  %allocated_results.44 = phi i32 [ %930, %bb1.i.i3129 ], [ %allocated_results.43, %bb5.i3127 ] ; <i32> [#uses=3]
  %937 = phi %struct.one_result* [ %934, %bb1.i.i3129 ], [ %results.43, %bb5.i3127 ] ; <%struct.one_result*> [#uses=2]
  %938 = getelementptr inbounds %struct.one_result* %937, i32 45, i32 0 ; <double*> [#uses=1]
  store double %928, double* %938, align 4
  %939 = getelementptr inbounds %struct.one_result* %937, i32 45, i32 1 ; <i8**> [#uses=1]
  store i8* getelementptr inbounds ([21 x i8]* @.str57, i32 0, i32 0), i8** %939, align 4
  %940 = tail call i32 @clock() nounwind          ; <i32> [#uses=1]
  br i1 %10, label %bb2.preheader.us.i3118, label %bb5.i3119

bb2.preheader.us.i3118:                           ; preds = %bb2.preheader.us.i3118, %_Z13test_constantIh19custom_or_constantsIhEEvPT_iPKc.exit
  %i.05.us.i3116 = phi i32 [ %tmp10.i3117, %bb2.preheader.us.i3118 ], [ 0, %_Z13test_constantIh19custom_or_constantsIhEEvPT_iPKc.exit ] ; <i32> [#uses=1]
  %tmp10.i3117 = add i32 %i.05.us.i3116, 1        ; <i32> [#uses=2]
  %941 = icmp slt i32 %tmp10.i3117, %base_iterations.0 ; <i1> [#uses=1]
  br i1 %941, label %bb2.preheader.us.i3118, label %bb5.i3119

bb5.i3119:                                        ; preds = %bb2.preheader.us.i3118, %_Z13test_constantIh19custom_or_constantsIhEEvPT_iPKc.exit
  %942 = tail call i32 @clock() nounwind          ; <i32> [#uses=1]
  %943 = sub i32 %942, %940                       ; <i32> [#uses=1]
  %944 = sitofp i32 %943 to double                ; <double> [#uses=1]
  %945 = fdiv double %944, 1.000000e+06           ; <double> [#uses=1]
  %.not3718 = icmp ne %struct.one_result* %results.44, null ; <i1> [#uses=1]
  %946 = icmp sgt i32 %allocated_results.44, 46   ; <i1> [#uses=1]
  %or.cond3719 = and i1 %946, %.not3718           ; <i1> [#uses=1]
  br i1 %or.cond3719, label %_Z13test_constantIh20custom_xor_constantsIhEEvPT_iPKc.exit, label %bb1.i.i3121

bb1.i.i3121:                                      ; preds = %bb5.i3119
  %947 = add nsw i32 %allocated_results.44, 10    ; <i32> [#uses=3]
  %948 = mul i32 %947, 12                         ; <i32> [#uses=1]
  %949 = bitcast %struct.one_result* %results.44 to i8* ; <i8*> [#uses=1]
  %950 = tail call i8* @realloc(i8* %949, i32 %948) nounwind ; <i8*> [#uses=2]
  %951 = bitcast i8* %950 to %struct.one_result*  ; <%struct.one_result*> [#uses=2]
  %952 = icmp eq i8* %950, null                   ; <i1> [#uses=1]
  br i1 %952, label %bb2.i.i3122, label %_Z13test_constantIh20custom_xor_constantsIhEEvPT_iPKc.exit

bb2.i.i3122:                                      ; preds = %bb1.i.i3121
  %953 = tail call i32 (i8*, ...)* @printf(i8* noalias getelementptr inbounds ([31 x i8]* @.str11, i32 0, i32 0), i32 %947) nounwind ; <i32> [#uses=0]
  tail call void @exit(i32 -1) noreturn nounwind
  unreachable

_Z13test_constantIh20custom_xor_constantsIhEEvPT_iPKc.exit: ; preds = %bb1.i.i3121, %bb5.i3119
  %results.45 = phi %struct.one_result* [ %951, %bb1.i.i3121 ], [ %results.44, %bb5.i3119 ] ; <%struct.one_result*> [#uses=4]
  %allocated_results.45 = phi i32 [ %947, %bb1.i.i3121 ], [ %allocated_results.44, %bb5.i3119 ] ; <i32> [#uses=3]
  %954 = phi %struct.one_result* [ %951, %bb1.i.i3121 ], [ %results.44, %bb5.i3119 ] ; <%struct.one_result*> [#uses=2]
  %955 = getelementptr inbounds %struct.one_result* %954, i32 46, i32 0 ; <double*> [#uses=1]
  store double %945, double* %955, align 4
  %956 = getelementptr inbounds %struct.one_result* %954, i32 46, i32 1 ; <i8**> [#uses=1]
  store i8* getelementptr inbounds ([22 x i8]* @.str58, i32 0, i32 0), i8** %956, align 4
  %957 = tail call i32 @clock() nounwind          ; <i32> [#uses=1]
  br i1 %257, label %bb.nph6.i3100, label %bb5.i3111

bb.nph6.i3100:                                    ; preds = %_Z13test_constantIh20custom_xor_constantsIhEEvPT_iPKc.exit
  %958 = shl i8 %704, 6                           ; <i8> [#uses=1]
  %959 = xor i8 %958, -128                        ; <i8> [#uses=1]
  br label %bb2.preheader.us.i3103

bb2.preheader.us.i3103:                           ; preds = %_Z17check_shifted_sumIh19custom_constant_addIhEEvT_.exit.us.i, %bb.nph6.i3100
  %i.05.us.i3101 = phi i32 [ 0, %bb.nph6.i3100 ], [ %tmp.i3102, %_Z17check_shifted_sumIh19custom_constant_addIhEEvT_.exit.us.i ] ; <i32> [#uses=1]
  %tmp.i3102 = add i32 %i.05.us.i3101, 1          ; <i32> [#uses=2]
  br label %bb1.us.i3109

_Z17check_shifted_sumIh19custom_constant_addIhEEvT_.exit.us.i: ; preds = %bb2.bb3_crit_edge.us.i3110, %bb.i1.us.i3104
  %960 = icmp slt i32 %tmp.i3102, %255            ; <i1> [#uses=1]
  br i1 %960, label %bb2.preheader.us.i3103, label %bb5.i3111

bb.i1.us.i3104:                                   ; preds = %bb2.bb3_crit_edge.us.i3110
  %961 = tail call i32 (i8*, ...)* @printf(i8* noalias getelementptr inbounds ([16 x i8]* @.str, i32 0, i32 0), i32 47) nounwind ; <i32> [#uses=0]
  br label %_Z17check_shifted_sumIh19custom_constant_addIhEEvT_.exit.us.i

bb1.us.i3109:                                     ; preds = %bb1.us.i3109, %bb2.preheader.us.i3103
  %result.03.us.i3105 = phi i8 [ 0, %bb2.preheader.us.i3103 ], [ %964, %bb1.us.i3109 ] ; <i8> [#uses=1]
  %n.02.us.i3106 = phi i32 [ 0, %bb2.preheader.us.i3103 ], [ %965, %bb1.us.i3109 ] ; <i32> [#uses=2]
  %scevgep.i3107 = getelementptr [8000 x i8]* @data8unsigned, i32 0, i32 %n.02.us.i3106 ; <i8*> [#uses=1]
  %962 = load i8* %scevgep.i3107, align 1         ; <i8> [#uses=1]
  %963 = add i8 %result.03.us.i3105, 10           ; <i8> [#uses=1]
  %964 = add i8 %963, %962                        ; <i8> [#uses=2]
  %965 = add nsw i32 %n.02.us.i3106, 1            ; <i32> [#uses=2]
  %exitcond.i3108 = icmp eq i32 %965, 8000        ; <i1> [#uses=1]
  br i1 %exitcond.i3108, label %bb2.bb3_crit_edge.us.i3110, label %bb1.us.i3109

bb2.bb3_crit_edge.us.i3110:                       ; preds = %bb1.us.i3109
  %966 = icmp eq i8 %959, %964                    ; <i1> [#uses=1]
  br i1 %966, label %_Z17check_shifted_sumIh19custom_constant_addIhEEvT_.exit.us.i, label %bb.i1.us.i3104

bb5.i3111:                                        ; preds = %_Z17check_shifted_sumIh19custom_constant_addIhEEvT_.exit.us.i, %_Z13test_constantIh20custom_xor_constantsIhEEvPT_iPKc.exit
  %967 = tail call i32 @clock() nounwind          ; <i32> [#uses=1]
  %968 = sub i32 %967, %957                       ; <i32> [#uses=1]
  %969 = sitofp i32 %968 to double                ; <double> [#uses=1]
  %970 = fdiv double %969, 1.000000e+06           ; <double> [#uses=1]
  %.not3720 = icmp ne %struct.one_result* %results.45, null ; <i1> [#uses=1]
  %971 = icmp sgt i32 %allocated_results.45, 47   ; <i1> [#uses=1]
  %or.cond3721 = and i1 %971, %.not3720           ; <i1> [#uses=1]
  br i1 %or.cond3721, label %_Z13test_constantIh19custom_constant_addIhEEvPT_iPKc.exit, label %bb1.i.i3113

bb1.i.i3113:                                      ; preds = %bb5.i3111
  %972 = add nsw i32 %allocated_results.45, 10    ; <i32> [#uses=3]
  %973 = mul i32 %972, 12                         ; <i32> [#uses=1]
  %974 = bitcast %struct.one_result* %results.45 to i8* ; <i8*> [#uses=1]
  %975 = tail call i8* @realloc(i8* %974, i32 %973) nounwind ; <i8*> [#uses=2]
  %976 = bitcast i8* %975 to %struct.one_result*  ; <%struct.one_result*> [#uses=2]
  %977 = icmp eq i8* %975, null                   ; <i1> [#uses=1]
  br i1 %977, label %bb2.i.i3114, label %_Z13test_constantIh19custom_constant_addIhEEvPT_iPKc.exit

bb2.i.i3114:                                      ; preds = %bb1.i.i3113
  %978 = tail call i32 (i8*, ...)* @printf(i8* noalias getelementptr inbounds ([31 x i8]* @.str11, i32 0, i32 0), i32 %972) nounwind ; <i32> [#uses=0]
  tail call void @exit(i32 -1) noreturn nounwind
  unreachable

_Z13test_constantIh19custom_constant_addIhEEvPT_iPKc.exit: ; preds = %bb1.i.i3113, %bb5.i3111
  %results.46 = phi %struct.one_result* [ %976, %bb1.i.i3113 ], [ %results.45, %bb5.i3111 ] ; <%struct.one_result*> [#uses=4]
  %allocated_results.46 = phi i32 [ %972, %bb1.i.i3113 ], [ %allocated_results.45, %bb5.i3111 ] ; <i32> [#uses=3]
  %979 = phi %struct.one_result* [ %976, %bb1.i.i3113 ], [ %results.45, %bb5.i3111 ] ; <%struct.one_result*> [#uses=2]
  %980 = getelementptr inbounds %struct.one_result* %979, i32 47, i32 0 ; <double*> [#uses=1]
  store double %970, double* %980, align 4
  %981 = getelementptr inbounds %struct.one_result* %979, i32 47, i32 1 ; <i8**> [#uses=1]
  store i8* getelementptr inbounds ([21 x i8]* @.str59, i32 0, i32 0), i8** %981, align 4
  %982 = tail call i32 @clock() nounwind          ; <i32> [#uses=1]
  br i1 %257, label %bb.nph6.i3085, label %bb5.i3096

bb.nph6.i3085:                                    ; preds = %_Z13test_constantIh19custom_constant_addIhEEvPT_iPKc.exit
  %983 = shl i8 %704, 6                           ; <i8> [#uses=1]
  %984 = xor i8 %983, -128                        ; <i8> [#uses=1]
  br label %bb2.preheader.us.i3088

bb2.preheader.us.i3088:                           ; preds = %_Z17check_shifted_sumIh28custom_multiple_constant_addIhEEvT_.exit.us.i, %bb.nph6.i3085
  %i.05.us.i3086 = phi i32 [ 0, %bb.nph6.i3085 ], [ %tmp.i3087, %_Z17check_shifted_sumIh28custom_multiple_constant_addIhEEvT_.exit.us.i ] ; <i32> [#uses=1]
  %tmp.i3087 = add i32 %i.05.us.i3086, 1          ; <i32> [#uses=2]
  br label %bb1.us.i3094

_Z17check_shifted_sumIh28custom_multiple_constant_addIhEEvT_.exit.us.i: ; preds = %bb2.bb3_crit_edge.us.i3095, %bb.i1.us.i3089
  %985 = icmp slt i32 %tmp.i3087, %255            ; <i1> [#uses=1]
  br i1 %985, label %bb2.preheader.us.i3088, label %bb5.i3096

bb.i1.us.i3089:                                   ; preds = %bb2.bb3_crit_edge.us.i3095
  %986 = tail call i32 (i8*, ...)* @printf(i8* noalias getelementptr inbounds ([16 x i8]* @.str, i32 0, i32 0), i32 48) nounwind ; <i32> [#uses=0]
  br label %_Z17check_shifted_sumIh28custom_multiple_constant_addIhEEvT_.exit.us.i

bb1.us.i3094:                                     ; preds = %bb1.us.i3094, %bb2.preheader.us.i3088
  %result.03.us.i3090 = phi i8 [ 0, %bb2.preheader.us.i3088 ], [ %989, %bb1.us.i3094 ] ; <i8> [#uses=1]
  %n.02.us.i3091 = phi i32 [ 0, %bb2.preheader.us.i3088 ], [ %990, %bb1.us.i3094 ] ; <i32> [#uses=2]
  %scevgep.i3092 = getelementptr [8000 x i8]* @data8unsigned, i32 0, i32 %n.02.us.i3091 ; <i8*> [#uses=1]
  %987 = load i8* %scevgep.i3092, align 1         ; <i8> [#uses=1]
  %988 = add i8 %result.03.us.i3090, 10           ; <i8> [#uses=1]
  %989 = add i8 %988, %987                        ; <i8> [#uses=2]
  %990 = add nsw i32 %n.02.us.i3091, 1            ; <i32> [#uses=2]
  %exitcond.i3093 = icmp eq i32 %990, 8000        ; <i1> [#uses=1]
  br i1 %exitcond.i3093, label %bb2.bb3_crit_edge.us.i3095, label %bb1.us.i3094

bb2.bb3_crit_edge.us.i3095:                       ; preds = %bb1.us.i3094
  %991 = icmp eq i8 %984, %989                    ; <i1> [#uses=1]
  br i1 %991, label %_Z17check_shifted_sumIh28custom_multiple_constant_addIhEEvT_.exit.us.i, label %bb.i1.us.i3089

bb5.i3096:                                        ; preds = %_Z17check_shifted_sumIh28custom_multiple_constant_addIhEEvT_.exit.us.i, %_Z13test_constantIh19custom_constant_addIhEEvPT_iPKc.exit
  %992 = tail call i32 @clock() nounwind          ; <i32> [#uses=1]
  %993 = sub i32 %992, %982                       ; <i32> [#uses=1]
  %994 = sitofp i32 %993 to double                ; <double> [#uses=1]
  %995 = fdiv double %994, 1.000000e+06           ; <double> [#uses=1]
  %.not3722 = icmp ne %struct.one_result* %results.46, null ; <i1> [#uses=1]
  %996 = icmp sgt i32 %allocated_results.46, 48   ; <i1> [#uses=1]
  %or.cond3723 = and i1 %996, %.not3722           ; <i1> [#uses=1]
  br i1 %or.cond3723, label %_Z13test_constantIh28custom_multiple_constant_addIhEEvPT_iPKc.exit, label %bb1.i.i3098

bb1.i.i3098:                                      ; preds = %bb5.i3096
  %997 = add nsw i32 %allocated_results.46, 10    ; <i32> [#uses=3]
  %998 = mul i32 %997, 12                         ; <i32> [#uses=1]
  %999 = bitcast %struct.one_result* %results.46 to i8* ; <i8*> [#uses=1]
  %1000 = tail call i8* @realloc(i8* %999, i32 %998) nounwind ; <i8*> [#uses=2]
  %1001 = bitcast i8* %1000 to %struct.one_result* ; <%struct.one_result*> [#uses=2]
  %1002 = icmp eq i8* %1000, null                 ; <i1> [#uses=1]
  br i1 %1002, label %bb2.i.i3099, label %_Z13test_constantIh28custom_multiple_constant_addIhEEvPT_iPKc.exit

bb2.i.i3099:                                      ; preds = %bb1.i.i3098
  %1003 = tail call i32 (i8*, ...)* @printf(i8* noalias getelementptr inbounds ([31 x i8]* @.str11, i32 0, i32 0), i32 %997) nounwind ; <i32> [#uses=0]
  tail call void @exit(i32 -1) noreturn nounwind
  unreachable

_Z13test_constantIh28custom_multiple_constant_addIhEEvPT_iPKc.exit: ; preds = %bb1.i.i3098, %bb5.i3096
  %results.47 = phi %struct.one_result* [ %1001, %bb1.i.i3098 ], [ %results.46, %bb5.i3096 ] ; <%struct.one_result*> [#uses=4]
  %allocated_results.47 = phi i32 [ %997, %bb1.i.i3098 ], [ %allocated_results.46, %bb5.i3096 ] ; <i32> [#uses=3]
  %1004 = phi %struct.one_result* [ %1001, %bb1.i.i3098 ], [ %results.46, %bb5.i3096 ] ; <%struct.one_result*> [#uses=2]
  %1005 = getelementptr inbounds %struct.one_result* %1004, i32 48, i32 0 ; <double*> [#uses=1]
  store double %995, double* %1005, align 4
  %1006 = getelementptr inbounds %struct.one_result* %1004, i32 48, i32 1 ; <i8**> [#uses=1]
  store i8* getelementptr inbounds ([31 x i8]* @.str60, i32 0, i32 0), i8** %1006, align 4
  %1007 = tail call i32 @clock() nounwind         ; <i32> [#uses=1]
  br i1 %257, label %bb.nph6.i3070, label %bb5.i3081

bb.nph6.i3070:                                    ; preds = %_Z13test_constantIh28custom_multiple_constant_addIhEEvPT_iPKc.exit
  %1008 = shl i8 %704, 6                          ; <i8> [#uses=1]
  %1009 = xor i8 %1008, -128                      ; <i8> [#uses=1]
  br label %bb2.preheader.us.i3073

bb2.preheader.us.i3073:                           ; preds = %_Z17check_shifted_sumIh19custom_constant_subIhEEvT_.exit.us.i, %bb.nph6.i3070
  %i.05.us.i3071 = phi i32 [ 0, %bb.nph6.i3070 ], [ %tmp.i3072, %_Z17check_shifted_sumIh19custom_constant_subIhEEvT_.exit.us.i ] ; <i32> [#uses=1]
  %tmp.i3072 = add i32 %i.05.us.i3071, 1          ; <i32> [#uses=2]
  br label %bb1.us.i3079

_Z17check_shifted_sumIh19custom_constant_subIhEEvT_.exit.us.i: ; preds = %bb2.bb3_crit_edge.us.i3080, %bb.i1.us.i3074
  %1010 = icmp slt i32 %tmp.i3072, %255           ; <i1> [#uses=1]
  br i1 %1010, label %bb2.preheader.us.i3073, label %bb5.i3081

bb.i1.us.i3074:                                   ; preds = %bb2.bb3_crit_edge.us.i3080
  %1011 = tail call i32 (i8*, ...)* @printf(i8* noalias getelementptr inbounds ([16 x i8]* @.str, i32 0, i32 0), i32 49) nounwind ; <i32> [#uses=0]
  br label %_Z17check_shifted_sumIh19custom_constant_subIhEEvT_.exit.us.i

bb1.us.i3079:                                     ; preds = %bb1.us.i3079, %bb2.preheader.us.i3073
  %result.03.us.i3075 = phi i8 [ 0, %bb2.preheader.us.i3073 ], [ %1014, %bb1.us.i3079 ] ; <i8> [#uses=1]
  %n.02.us.i3076 = phi i32 [ 0, %bb2.preheader.us.i3073 ], [ %1015, %bb1.us.i3079 ] ; <i32> [#uses=2]
  %scevgep.i3077 = getelementptr [8000 x i8]* @data8unsigned, i32 0, i32 %n.02.us.i3076 ; <i8*> [#uses=1]
  %1012 = load i8* %scevgep.i3077, align 1        ; <i8> [#uses=1]
  %1013 = add i8 %result.03.us.i3075, -10         ; <i8> [#uses=1]
  %1014 = add i8 %1013, %1012                     ; <i8> [#uses=2]
  %1015 = add nsw i32 %n.02.us.i3076, 1           ; <i32> [#uses=2]
  %exitcond.i3078 = icmp eq i32 %1015, 8000       ; <i1> [#uses=1]
  br i1 %exitcond.i3078, label %bb2.bb3_crit_edge.us.i3080, label %bb1.us.i3079

bb2.bb3_crit_edge.us.i3080:                       ; preds = %bb1.us.i3079
  %1016 = icmp eq i8 %1009, %1014                 ; <i1> [#uses=1]
  br i1 %1016, label %_Z17check_shifted_sumIh19custom_constant_subIhEEvT_.exit.us.i, label %bb.i1.us.i3074

bb5.i3081:                                        ; preds = %_Z17check_shifted_sumIh19custom_constant_subIhEEvT_.exit.us.i, %_Z13test_constantIh28custom_multiple_constant_addIhEEvPT_iPKc.exit
  %1017 = tail call i32 @clock() nounwind         ; <i32> [#uses=1]
  %1018 = sub i32 %1017, %1007                    ; <i32> [#uses=1]
  %1019 = sitofp i32 %1018 to double              ; <double> [#uses=1]
  %1020 = fdiv double %1019, 1.000000e+06         ; <double> [#uses=1]
  %.not3724 = icmp ne %struct.one_result* %results.47, null ; <i1> [#uses=1]
  %1021 = icmp sgt i32 %allocated_results.47, 49  ; <i1> [#uses=1]
  %or.cond3725 = and i1 %1021, %.not3724          ; <i1> [#uses=1]
  br i1 %or.cond3725, label %_Z13test_constantIh19custom_constant_subIhEEvPT_iPKc.exit, label %bb1.i.i3083

bb1.i.i3083:                                      ; preds = %bb5.i3081
  %1022 = add nsw i32 %allocated_results.47, 10   ; <i32> [#uses=3]
  %1023 = mul i32 %1022, 12                       ; <i32> [#uses=1]
  %1024 = bitcast %struct.one_result* %results.47 to i8* ; <i8*> [#uses=1]
  %1025 = tail call i8* @realloc(i8* %1024, i32 %1023) nounwind ; <i8*> [#uses=2]
  %1026 = bitcast i8* %1025 to %struct.one_result* ; <%struct.one_result*> [#uses=2]
  %1027 = icmp eq i8* %1025, null                 ; <i1> [#uses=1]
  br i1 %1027, label %bb2.i.i3084, label %_Z13test_constantIh19custom_constant_subIhEEvPT_iPKc.exit

bb2.i.i3084:                                      ; preds = %bb1.i.i3083
  %1028 = tail call i32 (i8*, ...)* @printf(i8* noalias getelementptr inbounds ([31 x i8]* @.str11, i32 0, i32 0), i32 %1022) nounwind ; <i32> [#uses=0]
  tail call void @exit(i32 -1) noreturn nounwind
  unreachable

_Z13test_constantIh19custom_constant_subIhEEvPT_iPKc.exit: ; preds = %bb1.i.i3083, %bb5.i3081
  %results.48 = phi %struct.one_result* [ %1026, %bb1.i.i3083 ], [ %results.47, %bb5.i3081 ] ; <%struct.one_result*> [#uses=4]
  %allocated_results.48 = phi i32 [ %1022, %bb1.i.i3083 ], [ %allocated_results.47, %bb5.i3081 ] ; <i32> [#uses=3]
  %1029 = phi %struct.one_result* [ %1026, %bb1.i.i3083 ], [ %results.47, %bb5.i3081 ] ; <%struct.one_result*> [#uses=2]
  %1030 = getelementptr inbounds %struct.one_result* %1029, i32 49, i32 0 ; <double*> [#uses=1]
  store double %1020, double* %1030, align 4
  %1031 = getelementptr inbounds %struct.one_result* %1029, i32 49, i32 1 ; <i8**> [#uses=1]
  store i8* getelementptr inbounds ([26 x i8]* @.str61, i32 0, i32 0), i8** %1031, align 4
  %1032 = tail call i32 @clock() nounwind         ; <i32> [#uses=1]
  br i1 %257, label %bb.nph6.i3055, label %bb5.i3066

bb.nph6.i3055:                                    ; preds = %_Z13test_constantIh19custom_constant_subIhEEvPT_iPKc.exit
  %1033 = shl i8 %704, 6                          ; <i8> [#uses=1]
  %1034 = xor i8 %1033, -128                      ; <i8> [#uses=1]
  br label %bb2.preheader.us.i3058

bb2.preheader.us.i3058:                           ; preds = %_Z17check_shifted_sumIh28custom_multiple_constant_subIhEEvT_.exit.us.i, %bb.nph6.i3055
  %i.05.us.i3056 = phi i32 [ 0, %bb.nph6.i3055 ], [ %tmp.i3057, %_Z17check_shifted_sumIh28custom_multiple_constant_subIhEEvT_.exit.us.i ] ; <i32> [#uses=1]
  %tmp.i3057 = add i32 %i.05.us.i3056, 1          ; <i32> [#uses=2]
  br label %bb1.us.i3064

_Z17check_shifted_sumIh28custom_multiple_constant_subIhEEvT_.exit.us.i: ; preds = %bb2.bb3_crit_edge.us.i3065, %bb.i1.us.i3059
  %1035 = icmp slt i32 %tmp.i3057, %255           ; <i1> [#uses=1]
  br i1 %1035, label %bb2.preheader.us.i3058, label %bb5.i3066

bb.i1.us.i3059:                                   ; preds = %bb2.bb3_crit_edge.us.i3065
  %1036 = tail call i32 (i8*, ...)* @printf(i8* noalias getelementptr inbounds ([16 x i8]* @.str, i32 0, i32 0), i32 50) nounwind ; <i32> [#uses=0]
  br label %_Z17check_shifted_sumIh28custom_multiple_constant_subIhEEvT_.exit.us.i

bb1.us.i3064:                                     ; preds = %bb1.us.i3064, %bb2.preheader.us.i3058
  %result.03.us.i3060 = phi i8 [ 0, %bb2.preheader.us.i3058 ], [ %1039, %bb1.us.i3064 ] ; <i8> [#uses=1]
  %n.02.us.i3061 = phi i32 [ 0, %bb2.preheader.us.i3058 ], [ %1040, %bb1.us.i3064 ] ; <i32> [#uses=2]
  %scevgep.i3062 = getelementptr [8000 x i8]* @data8unsigned, i32 0, i32 %n.02.us.i3061 ; <i8*> [#uses=1]
  %1037 = load i8* %scevgep.i3062, align 1        ; <i8> [#uses=1]
  %1038 = add i8 %result.03.us.i3060, -10         ; <i8> [#uses=1]
  %1039 = add i8 %1038, %1037                     ; <i8> [#uses=2]
  %1040 = add nsw i32 %n.02.us.i3061, 1           ; <i32> [#uses=2]
  %exitcond.i3063 = icmp eq i32 %1040, 8000       ; <i1> [#uses=1]
  br i1 %exitcond.i3063, label %bb2.bb3_crit_edge.us.i3065, label %bb1.us.i3064

bb2.bb3_crit_edge.us.i3065:                       ; preds = %bb1.us.i3064
  %1041 = icmp eq i8 %1034, %1039                 ; <i1> [#uses=1]
  br i1 %1041, label %_Z17check_shifted_sumIh28custom_multiple_constant_subIhEEvT_.exit.us.i, label %bb.i1.us.i3059

bb5.i3066:                                        ; preds = %_Z17check_shifted_sumIh28custom_multiple_constant_subIhEEvT_.exit.us.i, %_Z13test_constantIh19custom_constant_subIhEEvPT_iPKc.exit
  %1042 = tail call i32 @clock() nounwind         ; <i32> [#uses=1]
  %1043 = sub i32 %1042, %1032                    ; <i32> [#uses=1]
  %1044 = sitofp i32 %1043 to double              ; <double> [#uses=1]
  %1045 = fdiv double %1044, 1.000000e+06         ; <double> [#uses=1]
  %.not3726 = icmp ne %struct.one_result* %results.48, null ; <i1> [#uses=1]
  %1046 = icmp sgt i32 %allocated_results.48, 50  ; <i1> [#uses=1]
  %or.cond3727 = and i1 %1046, %.not3726          ; <i1> [#uses=1]
  br i1 %or.cond3727, label %_Z13test_constantIh28custom_multiple_constant_subIhEEvPT_iPKc.exit, label %bb1.i.i3068

bb1.i.i3068:                                      ; preds = %bb5.i3066
  %1047 = add nsw i32 %allocated_results.48, 10   ; <i32> [#uses=3]
  %1048 = mul i32 %1047, 12                       ; <i32> [#uses=1]
  %1049 = bitcast %struct.one_result* %results.48 to i8* ; <i8*> [#uses=1]
  %1050 = tail call i8* @realloc(i8* %1049, i32 %1048) nounwind ; <i8*> [#uses=2]
  %1051 = bitcast i8* %1050 to %struct.one_result* ; <%struct.one_result*> [#uses=2]
  %1052 = icmp eq i8* %1050, null                 ; <i1> [#uses=1]
  br i1 %1052, label %bb2.i.i3069, label %_Z13test_constantIh28custom_multiple_constant_subIhEEvPT_iPKc.exit

bb2.i.i3069:                                      ; preds = %bb1.i.i3068
  %1053 = tail call i32 (i8*, ...)* @printf(i8* noalias getelementptr inbounds ([31 x i8]* @.str11, i32 0, i32 0), i32 %1047) nounwind ; <i32> [#uses=0]
  tail call void @exit(i32 -1) noreturn nounwind
  unreachable

_Z13test_constantIh28custom_multiple_constant_subIhEEvPT_iPKc.exit: ; preds = %bb1.i.i3068, %bb5.i3066
  %results.49 = phi %struct.one_result* [ %1051, %bb1.i.i3068 ], [ %results.48, %bb5.i3066 ] ; <%struct.one_result*> [#uses=4]
  %allocated_results.49 = phi i32 [ %1047, %bb1.i.i3068 ], [ %allocated_results.48, %bb5.i3066 ] ; <i32> [#uses=3]
  %1054 = phi %struct.one_result* [ %1051, %bb1.i.i3068 ], [ %results.48, %bb5.i3066 ] ; <%struct.one_result*> [#uses=2]
  %1055 = getelementptr inbounds %struct.one_result* %1054, i32 50, i32 0 ; <double*> [#uses=1]
  store double %1045, double* %1055, align 4
  %1056 = getelementptr inbounds %struct.one_result* %1054, i32 50, i32 1 ; <i8**> [#uses=1]
  store i8* getelementptr inbounds ([36 x i8]* @.str62, i32 0, i32 0), i8** %1056, align 4
  %1057 = tail call i32 @clock() nounwind         ; <i32> [#uses=1]
  br i1 %257, label %bb2.preheader.us.i3042, label %bb5.i3051

bb2.preheader.us.i3042:                           ; preds = %_Z17check_shifted_sumIh24custom_constant_multiplyIhEEvT_.exit.us.i, %_Z13test_constantIh28custom_multiple_constant_subIhEEvPT_iPKc.exit
  %i.05.us.i3040 = phi i32 [ %tmp.i3041, %_Z17check_shifted_sumIh24custom_constant_multiplyIhEEvT_.exit.us.i ], [ 0, %_Z13test_constantIh28custom_multiple_constant_subIhEEvPT_iPKc.exit ] ; <i32> [#uses=1]
  %tmp.i3041 = add i32 %i.05.us.i3040, 1          ; <i32> [#uses=2]
  br label %bb1.us.i3048

_Z17check_shifted_sumIh24custom_constant_multiplyIhEEvT_.exit.us.i: ; preds = %bb2.bb3_crit_edge.us.i3050, %bb.i1.us.i3043
  %1058 = icmp slt i32 %tmp.i3041, %255           ; <i1> [#uses=1]
  br i1 %1058, label %bb2.preheader.us.i3042, label %bb5.i3051

bb.i1.us.i3043:                                   ; preds = %bb2.bb3_crit_edge.us.i3050
  %1059 = tail call i32 (i8*, ...)* @printf(i8* noalias getelementptr inbounds ([16 x i8]* @.str, i32 0, i32 0), i32 51) nounwind ; <i32> [#uses=0]
  br label %_Z17check_shifted_sumIh24custom_constant_multiplyIhEEvT_.exit.us.i

bb1.us.i3048:                                     ; preds = %bb1.us.i3048, %bb2.preheader.us.i3042
  %result.03.us.i3044 = phi i8 [ 0, %bb2.preheader.us.i3042 ], [ %1062, %bb1.us.i3048 ] ; <i8> [#uses=1]
  %n.02.us.i3045 = phi i32 [ 0, %bb2.preheader.us.i3042 ], [ %1063, %bb1.us.i3048 ] ; <i32> [#uses=2]
  %scevgep.i3046 = getelementptr [8000 x i8]* @data8unsigned, i32 0, i32 %n.02.us.i3045 ; <i8*> [#uses=1]
  %1060 = load i8* %scevgep.i3046, align 1        ; <i8> [#uses=1]
  %1061 = mul i8 %1060, 120                       ; <i8> [#uses=1]
  %1062 = add i8 %1061, %result.03.us.i3044       ; <i8> [#uses=2]
  %1063 = add nsw i32 %n.02.us.i3045, 1           ; <i32> [#uses=2]
  %exitcond.i3047 = icmp eq i32 %1063, 8000       ; <i1> [#uses=1]
  br i1 %exitcond.i3047, label %bb2.bb3_crit_edge.us.i3050, label %bb1.us.i3048

bb2.bb3_crit_edge.us.i3050:                       ; preds = %bb1.us.i3048
  %phitmp.i3049 = icmp eq i8 %1062, 0             ; <i1> [#uses=1]
  br i1 %phitmp.i3049, label %_Z17check_shifted_sumIh24custom_constant_multiplyIhEEvT_.exit.us.i, label %bb.i1.us.i3043

bb5.i3051:                                        ; preds = %_Z17check_shifted_sumIh24custom_constant_multiplyIhEEvT_.exit.us.i, %_Z13test_constantIh28custom_multiple_constant_subIhEEvPT_iPKc.exit
  %1064 = tail call i32 @clock() nounwind         ; <i32> [#uses=1]
  %1065 = sub i32 %1064, %1057                    ; <i32> [#uses=1]
  %1066 = sitofp i32 %1065 to double              ; <double> [#uses=1]
  %1067 = fdiv double %1066, 1.000000e+06         ; <double> [#uses=1]
  %.not3728 = icmp ne %struct.one_result* %results.49, null ; <i1> [#uses=1]
  %1068 = icmp sgt i32 %allocated_results.49, 51  ; <i1> [#uses=1]
  %or.cond3729 = and i1 %1068, %.not3728          ; <i1> [#uses=1]
  br i1 %or.cond3729, label %_Z13test_constantIh24custom_constant_multiplyIhEEvPT_iPKc.exit, label %bb1.i.i3053

bb1.i.i3053:                                      ; preds = %bb5.i3051
  %1069 = add nsw i32 %allocated_results.49, 10   ; <i32> [#uses=3]
  %1070 = mul i32 %1069, 12                       ; <i32> [#uses=1]
  %1071 = bitcast %struct.one_result* %results.49 to i8* ; <i8*> [#uses=1]
  %1072 = tail call i8* @realloc(i8* %1071, i32 %1070) nounwind ; <i8*> [#uses=2]
  %1073 = bitcast i8* %1072 to %struct.one_result* ; <%struct.one_result*> [#uses=2]
  %1074 = icmp eq i8* %1072, null                 ; <i1> [#uses=1]
  br i1 %1074, label %bb2.i.i3054, label %_Z13test_constantIh24custom_constant_multiplyIhEEvPT_iPKc.exit

bb2.i.i3054:                                      ; preds = %bb1.i.i3053
  %1075 = tail call i32 (i8*, ...)* @printf(i8* noalias getelementptr inbounds ([31 x i8]* @.str11, i32 0, i32 0), i32 %1069) nounwind ; <i32> [#uses=0]
  tail call void @exit(i32 -1) noreturn nounwind
  unreachable

_Z13test_constantIh24custom_constant_multiplyIhEEvPT_iPKc.exit: ; preds = %bb1.i.i3053, %bb5.i3051
  %results.50 = phi %struct.one_result* [ %1073, %bb1.i.i3053 ], [ %results.49, %bb5.i3051 ] ; <%struct.one_result*> [#uses=4]
  %allocated_results.50 = phi i32 [ %1069, %bb1.i.i3053 ], [ %allocated_results.49, %bb5.i3051 ] ; <i32> [#uses=3]
  %1076 = phi %struct.one_result* [ %1073, %bb1.i.i3053 ], [ %results.49, %bb5.i3051 ] ; <%struct.one_result*> [#uses=2]
  %1077 = getelementptr inbounds %struct.one_result* %1076, i32 51, i32 0 ; <double*> [#uses=1]
  store double %1067, double* %1077, align 4
  %1078 = getelementptr inbounds %struct.one_result* %1076, i32 51, i32 1 ; <i8**> [#uses=1]
  store i8* getelementptr inbounds ([26 x i8]* @.str63, i32 0, i32 0), i8** %1078, align 4
  %1079 = tail call i32 @clock() nounwind         ; <i32> [#uses=1]
  br i1 %257, label %bb2.preheader.us.i3026, label %bb5.i3035

bb2.preheader.us.i3026:                           ; preds = %_Z17check_shifted_sumIh33custom_multiple_constant_multiplyIhEEvT_.exit.us.i, %_Z13test_constantIh24custom_constant_multiplyIhEEvPT_iPKc.exit
  %i.05.us.i3024 = phi i32 [ %tmp.i3025, %_Z17check_shifted_sumIh33custom_multiple_constant_multiplyIhEEvT_.exit.us.i ], [ 0, %_Z13test_constantIh24custom_constant_multiplyIhEEvPT_iPKc.exit ] ; <i32> [#uses=1]
  %tmp.i3025 = add i32 %i.05.us.i3024, 1          ; <i32> [#uses=2]
  br label %bb1.us.i3032

_Z17check_shifted_sumIh33custom_multiple_constant_multiplyIhEEvT_.exit.us.i: ; preds = %bb2.bb3_crit_edge.us.i3034, %bb.i1.us.i3027
  %1080 = icmp slt i32 %tmp.i3025, %255           ; <i1> [#uses=1]
  br i1 %1080, label %bb2.preheader.us.i3026, label %bb5.i3035

bb.i1.us.i3027:                                   ; preds = %bb2.bb3_crit_edge.us.i3034
  %1081 = tail call i32 (i8*, ...)* @printf(i8* noalias getelementptr inbounds ([16 x i8]* @.str, i32 0, i32 0), i32 52) nounwind ; <i32> [#uses=0]
  br label %_Z17check_shifted_sumIh33custom_multiple_constant_multiplyIhEEvT_.exit.us.i

bb1.us.i3032:                                     ; preds = %bb1.us.i3032, %bb2.preheader.us.i3026
  %result.03.us.i3028 = phi i8 [ 0, %bb2.preheader.us.i3026 ], [ %1084, %bb1.us.i3032 ] ; <i8> [#uses=1]
  %n.02.us.i3029 = phi i32 [ 0, %bb2.preheader.us.i3026 ], [ %1085, %bb1.us.i3032 ] ; <i32> [#uses=2]
  %scevgep.i3030 = getelementptr [8000 x i8]* @data8unsigned, i32 0, i32 %n.02.us.i3029 ; <i8*> [#uses=1]
  %1082 = load i8* %scevgep.i3030, align 1        ; <i8> [#uses=1]
  %1083 = mul i8 %1082, 120                       ; <i8> [#uses=1]
  %1084 = add i8 %1083, %result.03.us.i3028       ; <i8> [#uses=2]
  %1085 = add nsw i32 %n.02.us.i3029, 1           ; <i32> [#uses=2]
  %exitcond.i3031 = icmp eq i32 %1085, 8000       ; <i1> [#uses=1]
  br i1 %exitcond.i3031, label %bb2.bb3_crit_edge.us.i3034, label %bb1.us.i3032

bb2.bb3_crit_edge.us.i3034:                       ; preds = %bb1.us.i3032
  %phitmp.i3033 = icmp eq i8 %1084, 0             ; <i1> [#uses=1]
  br i1 %phitmp.i3033, label %_Z17check_shifted_sumIh33custom_multiple_constant_multiplyIhEEvT_.exit.us.i, label %bb.i1.us.i3027

bb5.i3035:                                        ; preds = %_Z17check_shifted_sumIh33custom_multiple_constant_multiplyIhEEvT_.exit.us.i, %_Z13test_constantIh24custom_constant_multiplyIhEEvPT_iPKc.exit
  %1086 = tail call i32 @clock() nounwind         ; <i32> [#uses=1]
  %1087 = sub i32 %1086, %1079                    ; <i32> [#uses=1]
  %1088 = sitofp i32 %1087 to double              ; <double> [#uses=1]
  %1089 = fdiv double %1088, 1.000000e+06         ; <double> [#uses=1]
  %.not3730 = icmp ne %struct.one_result* %results.50, null ; <i1> [#uses=1]
  %1090 = icmp sgt i32 %allocated_results.50, 52  ; <i1> [#uses=1]
  %or.cond3731 = and i1 %1090, %.not3730          ; <i1> [#uses=1]
  br i1 %or.cond3731, label %_Z13test_constantIh33custom_multiple_constant_multiplyIhEEvPT_iPKc.exit, label %bb1.i.i3037

bb1.i.i3037:                                      ; preds = %bb5.i3035
  %1091 = add nsw i32 %allocated_results.50, 10   ; <i32> [#uses=3]
  %1092 = mul i32 %1091, 12                       ; <i32> [#uses=1]
  %1093 = bitcast %struct.one_result* %results.50 to i8* ; <i8*> [#uses=1]
  %1094 = tail call i8* @realloc(i8* %1093, i32 %1092) nounwind ; <i8*> [#uses=2]
  %1095 = bitcast i8* %1094 to %struct.one_result* ; <%struct.one_result*> [#uses=2]
  %1096 = icmp eq i8* %1094, null                 ; <i1> [#uses=1]
  br i1 %1096, label %bb2.i.i3038, label %_Z13test_constantIh33custom_multiple_constant_multiplyIhEEvPT_iPKc.exit

bb2.i.i3038:                                      ; preds = %bb1.i.i3037
  %1097 = tail call i32 (i8*, ...)* @printf(i8* noalias getelementptr inbounds ([31 x i8]* @.str11, i32 0, i32 0), i32 %1091) nounwind ; <i32> [#uses=0]
  tail call void @exit(i32 -1) noreturn nounwind
  unreachable

_Z13test_constantIh33custom_multiple_constant_multiplyIhEEvPT_iPKc.exit: ; preds = %bb1.i.i3037, %bb5.i3035
  %results.51 = phi %struct.one_result* [ %1095, %bb1.i.i3037 ], [ %results.50, %bb5.i3035 ] ; <%struct.one_result*> [#uses=4]
  %allocated_results.51 = phi i32 [ %1091, %bb1.i.i3037 ], [ %allocated_results.50, %bb5.i3035 ] ; <i32> [#uses=3]
  %1098 = phi %struct.one_result* [ %1095, %bb1.i.i3037 ], [ %results.50, %bb5.i3035 ] ; <%struct.one_result*> [#uses=2]
  %1099 = getelementptr inbounds %struct.one_result* %1098, i32 52, i32 0 ; <double*> [#uses=1]
  store double %1089, double* %1099, align 4
  %1100 = getelementptr inbounds %struct.one_result* %1098, i32 52, i32 1 ; <i8**> [#uses=1]
  store i8* getelementptr inbounds ([37 x i8]* @.str64, i32 0, i32 0), i8** %1100, align 4
  %1101 = tail call i32 @clock() nounwind         ; <i32> [#uses=1]
  br i1 %257, label %bb.nph6.i3008, label %bb5.i3019

bb.nph6.i3008:                                    ; preds = %_Z13test_constantIh33custom_multiple_constant_multiplyIhEEvPT_iPKc.exit
  %1102 = shl i8 %704, 6                          ; <i8> [#uses=1]
  br label %bb2.preheader.us.i3011

bb2.preheader.us.i3011:                           ; preds = %_Z17check_shifted_sumIh34custom_multiple_constant_multiply2IhEEvT_.exit.us.i, %bb.nph6.i3008
  %i.05.us.i3009 = phi i32 [ 0, %bb.nph6.i3008 ], [ %tmp.i3010, %_Z17check_shifted_sumIh34custom_multiple_constant_multiply2IhEEvT_.exit.us.i ] ; <i32> [#uses=1]
  %tmp.i3010 = add i32 %i.05.us.i3009, 1          ; <i32> [#uses=2]
  br label %bb1.us.i3017

_Z17check_shifted_sumIh34custom_multiple_constant_multiply2IhEEvT_.exit.us.i: ; preds = %bb2.bb3_crit_edge.us.i3018, %bb.i1.us.i3012
  %1103 = icmp slt i32 %tmp.i3010, %255           ; <i1> [#uses=1]
  br i1 %1103, label %bb2.preheader.us.i3011, label %bb5.i3019

bb.i1.us.i3012:                                   ; preds = %bb2.bb3_crit_edge.us.i3018
  %1104 = tail call i32 (i8*, ...)* @printf(i8* noalias getelementptr inbounds ([16 x i8]* @.str, i32 0, i32 0), i32 53) nounwind ; <i32> [#uses=0]
  br label %_Z17check_shifted_sumIh34custom_multiple_constant_multiply2IhEEvT_.exit.us.i

bb1.us.i3017:                                     ; preds = %bb1.us.i3017, %bb2.preheader.us.i3011
  %result.03.us.i3013 = phi i8 [ 0, %bb2.preheader.us.i3011 ], [ %1107, %bb1.us.i3017 ] ; <i8> [#uses=1]
  %n.02.us.i3014 = phi i32 [ 0, %bb2.preheader.us.i3011 ], [ %1108, %bb1.us.i3017 ] ; <i32> [#uses=2]
  %scevgep.i3015 = getelementptr [8000 x i8]* @data8unsigned, i32 0, i32 %n.02.us.i3014 ; <i8*> [#uses=1]
  %1105 = load i8* %scevgep.i3015, align 1        ; <i8> [#uses=1]
  %1106 = add i8 %result.03.us.i3013, 120         ; <i8> [#uses=1]
  %1107 = add i8 %1106, %1105                     ; <i8> [#uses=2]
  %1108 = add nsw i32 %n.02.us.i3014, 1           ; <i32> [#uses=2]
  %exitcond.i3016 = icmp eq i32 %1108, 8000       ; <i1> [#uses=1]
  br i1 %exitcond.i3016, label %bb2.bb3_crit_edge.us.i3018, label %bb1.us.i3017

bb2.bb3_crit_edge.us.i3018:                       ; preds = %bb1.us.i3017
  %1109 = icmp eq i8 %1102, %1107                 ; <i1> [#uses=1]
  br i1 %1109, label %_Z17check_shifted_sumIh34custom_multiple_constant_multiply2IhEEvT_.exit.us.i, label %bb.i1.us.i3012

bb5.i3019:                                        ; preds = %_Z17check_shifted_sumIh34custom_multiple_constant_multiply2IhEEvT_.exit.us.i, %_Z13test_constantIh33custom_multiple_constant_multiplyIhEEvPT_iPKc.exit
  %1110 = tail call i32 @clock() nounwind         ; <i32> [#uses=1]
  %1111 = sub i32 %1110, %1101                    ; <i32> [#uses=1]
  %1112 = sitofp i32 %1111 to double              ; <double> [#uses=1]
  %1113 = fdiv double %1112, 1.000000e+06         ; <double> [#uses=1]
  %.not3732 = icmp ne %struct.one_result* %results.51, null ; <i1> [#uses=1]
  %1114 = icmp sgt i32 %allocated_results.51, 53  ; <i1> [#uses=1]
  %or.cond3733 = and i1 %1114, %.not3732          ; <i1> [#uses=1]
  br i1 %or.cond3733, label %_Z13test_constantIh34custom_multiple_constant_multiply2IhEEvPT_iPKc.exit, label %bb1.i.i3021

bb1.i.i3021:                                      ; preds = %bb5.i3019
  %1115 = add nsw i32 %allocated_results.51, 10   ; <i32> [#uses=3]
  %1116 = mul i32 %1115, 12                       ; <i32> [#uses=1]
  %1117 = bitcast %struct.one_result* %results.51 to i8* ; <i8*> [#uses=1]
  %1118 = tail call i8* @realloc(i8* %1117, i32 %1116) nounwind ; <i8*> [#uses=2]
  %1119 = bitcast i8* %1118 to %struct.one_result* ; <%struct.one_result*> [#uses=2]
  %1120 = icmp eq i8* %1118, null                 ; <i1> [#uses=1]
  br i1 %1120, label %bb2.i.i3022, label %_Z13test_constantIh34custom_multiple_constant_multiply2IhEEvPT_iPKc.exit

bb2.i.i3022:                                      ; preds = %bb1.i.i3021
  %1121 = tail call i32 (i8*, ...)* @printf(i8* noalias getelementptr inbounds ([31 x i8]* @.str11, i32 0, i32 0), i32 %1115) nounwind ; <i32> [#uses=0]
  tail call void @exit(i32 -1) noreturn nounwind
  unreachable

_Z13test_constantIh34custom_multiple_constant_multiply2IhEEvPT_iPKc.exit: ; preds = %bb1.i.i3021, %bb5.i3019
  %results.52 = phi %struct.one_result* [ %1119, %bb1.i.i3021 ], [ %results.51, %bb5.i3019 ] ; <%struct.one_result*> [#uses=4]
  %allocated_results.52 = phi i32 [ %1115, %bb1.i.i3021 ], [ %allocated_results.51, %bb5.i3019 ] ; <i32> [#uses=3]
  %1122 = phi %struct.one_result* [ %1119, %bb1.i.i3021 ], [ %results.51, %bb5.i3019 ] ; <%struct.one_result*> [#uses=2]
  %1123 = getelementptr inbounds %struct.one_result* %1122, i32 53, i32 0 ; <double*> [#uses=1]
  store double %1113, double* %1123, align 4
  %1124 = getelementptr inbounds %struct.one_result* %1122, i32 53, i32 1 ; <i8**> [#uses=1]
  store i8* getelementptr inbounds ([36 x i8]* @.str65, i32 0, i32 0), i8** %1124, align 4
  %1125 = tail call i32 @clock() nounwind         ; <i32> [#uses=1]
  br i1 %257, label %bb.nph6.i2993, label %bb5.i3004

bb.nph6.i2993:                                    ; preds = %_Z13test_constantIh34custom_multiple_constant_multiply2IhEEvPT_iPKc.exit
  %1126 = udiv i8 %704, 5                         ; <i8> [#uses=1]
  %1127 = shl i8 %1126, 6                         ; <i8> [#uses=1]
  br label %bb2.preheader.us.i2996

bb2.preheader.us.i2996:                           ; preds = %_Z17check_shifted_sumIh22custom_constant_divideIhEEvT_.exit.us.i, %bb.nph6.i2993
  %i.05.us.i2994 = phi i32 [ 0, %bb.nph6.i2993 ], [ %tmp.i2995, %_Z17check_shifted_sumIh22custom_constant_divideIhEEvT_.exit.us.i ] ; <i32> [#uses=1]
  %tmp.i2995 = add i32 %i.05.us.i2994, 1          ; <i32> [#uses=2]
  br label %bb1.us.i3002

_Z17check_shifted_sumIh22custom_constant_divideIhEEvT_.exit.us.i: ; preds = %bb2.bb3_crit_edge.us.i3003, %bb.i1.us.i2997
  %1128 = icmp slt i32 %tmp.i2995, %255           ; <i1> [#uses=1]
  br i1 %1128, label %bb2.preheader.us.i2996, label %bb5.i3004

bb.i1.us.i2997:                                   ; preds = %bb2.bb3_crit_edge.us.i3003
  %1129 = tail call i32 (i8*, ...)* @printf(i8* noalias getelementptr inbounds ([16 x i8]* @.str, i32 0, i32 0), i32 54) nounwind ; <i32> [#uses=0]
  br label %_Z17check_shifted_sumIh22custom_constant_divideIhEEvT_.exit.us.i

bb1.us.i3002:                                     ; preds = %bb1.us.i3002, %bb2.preheader.us.i2996
  %result.03.us.i2998 = phi i8 [ 0, %bb2.preheader.us.i2996 ], [ %1132, %bb1.us.i3002 ] ; <i8> [#uses=1]
  %n.02.us.i2999 = phi i32 [ 0, %bb2.preheader.us.i2996 ], [ %1133, %bb1.us.i3002 ] ; <i32> [#uses=2]
  %scevgep.i3000 = getelementptr [8000 x i8]* @data8unsigned, i32 0, i32 %n.02.us.i2999 ; <i8*> [#uses=1]
  %1130 = load i8* %scevgep.i3000, align 1        ; <i8> [#uses=1]
  %1131 = udiv i8 %1130, 5                        ; <i8> [#uses=1]
  %1132 = add i8 %1131, %result.03.us.i2998       ; <i8> [#uses=2]
  %1133 = add nsw i32 %n.02.us.i2999, 1           ; <i32> [#uses=2]
  %exitcond.i3001 = icmp eq i32 %1133, 8000       ; <i1> [#uses=1]
  br i1 %exitcond.i3001, label %bb2.bb3_crit_edge.us.i3003, label %bb1.us.i3002

bb2.bb3_crit_edge.us.i3003:                       ; preds = %bb1.us.i3002
  %1134 = icmp eq i8 %1127, %1132                 ; <i1> [#uses=1]
  br i1 %1134, label %_Z17check_shifted_sumIh22custom_constant_divideIhEEvT_.exit.us.i, label %bb.i1.us.i2997

bb5.i3004:                                        ; preds = %_Z17check_shifted_sumIh22custom_constant_divideIhEEvT_.exit.us.i, %_Z13test_constantIh34custom_multiple_constant_multiply2IhEEvPT_iPKc.exit
  %1135 = tail call i32 @clock() nounwind         ; <i32> [#uses=1]
  %1136 = sub i32 %1135, %1125                    ; <i32> [#uses=1]
  %1137 = sitofp i32 %1136 to double              ; <double> [#uses=1]
  %1138 = fdiv double %1137, 1.000000e+06         ; <double> [#uses=1]
  %.not3734 = icmp ne %struct.one_result* %results.52, null ; <i1> [#uses=1]
  %1139 = icmp sgt i32 %allocated_results.52, 54  ; <i1> [#uses=1]
  %or.cond3735 = and i1 %1139, %.not3734          ; <i1> [#uses=1]
  br i1 %or.cond3735, label %_Z13test_constantIh22custom_constant_divideIhEEvPT_iPKc.exit, label %bb1.i.i3006

